 integrated_3PropControl_6bitCmd_100HzIMU_25HzP_slrt

 Timestamp is 6057e7bd (Sun Mar 21 20:41:33 2021)

 Preferred load address is 10000000

 Start         Length     Name                   Class
 0001:00000000 0000e340H .text$di                CODE
 0001:0000e340 000a74c0H .text$mn                CODE
 0001:000b5800 00004e56H .text$x                 CODE
 0001:000ba656 0000103eH .text$yd                CODE
 0002:00000000 00000104H .CRT$XCA                DATA
 0002:00000104 00000110H .CRT$XCC                DATA
 0002:00000214 0000010cH .CRT$XCL                DATA
 0002:00000320 00000104H .CRT$XCZ                DATA
 0002:00000424 00000104H .CRT$XIA                DATA
 0002:00000528 00000118H .CRT$XIC                DATA
 0002:00000640 00000104H .CRT$XIZ                DATA
 0002:00000744 00000104H .CRT$XPA                DATA
 0002:00000848 0000010cH .CRT$XPX                DATA
 0002:00000954 00000104H .CRT$XPXA               DATA
 0002:00000a58 00000104H .CRT$XPZ                DATA
 0002:00000b5c 00000104H .CRT$XTA                DATA
 0002:00000c60 00000110H .CRT$XTZ                DATA
 0002:00000d70 0003db18H .rdata                  DATA
 0002:0003e888 00002010H .rdata$r                DATA
 0002:00040898 00000530H .rdata$sxdata           DATA
 0002:00040dc8 00000218H .rdata$zzzdbg           DATA
 0002:00040fe0 00000104H .rtc$IAA                DATA
 0002:000410e4 00000104H .rtc$IZZ                DATA
 0002:000411e8 00000104H .rtc$TAA                DATA
 0002:000412ec 00000104H .rtc$TZZ                DATA
 0002:000413f0 00004d40H .xdata$x                DATA
 0002:00046130 0000022eH .edata                  DATA
 0003:00000000 00003060H .data                   DATA
 0003:00003060 000011e0H .data$r                 DATA
 0003:00004240 00021b6cH .bss                    DATA
 0004:00000000 00000200H .idata$5                DATA
 0004:00000200 00000014H .idata$2                DATA
 0004:00000214 00000014H .idata$3                DATA
 0004:00000228 00000200H .idata$4                DATA
 0004:00000428 000008e3H .idata$6                DATA
 0005:00000000 00000109H .00cfg                  DATA

  Address         Publics by Value              Rva+Base       Lib:Object

 0000:00000000       ___arm64x_redirection_metadata_count 00000000     <absolute>
 0000:00000000       ___guard_longjmp_count     00000000     <absolute>
 0000:00000000       ___x64_code_ranges_to_entry_points 00000000     <absolute>
 0000:00000000       ___guard_fids_count        00000000     <absolute>
 0000:00000000       ___AbsoluteZero            00000000     <absolute>
 0000:00000000       __except_list              00000000     <absolute>
 0000:00000000       ___guard_fids_table        00000000     <absolute>
 0000:00000000       ___arm64x_extra_rfe_table_size 00000000     <absolute>
 0000:00000000       ___arm64x_extra_rfe_table  00000000     <absolute>
 0000:00000000       ___dynamic_value_reloc_table 00000000     <absolute>
 0000:00000000       ___guard_iat_count         00000000     <absolute>
 0000:00000000       ___arm64x_native_entrypoint 00000000     <absolute>
 0000:00000000       ___enclave_config          00000000     <absolute>
 0000:00000000       ___volatile_metadata       00000000     <absolute>
 0000:00000000       ___hybrid_code_map         00000000     <absolute>
 0000:00000000       ___x64_code_ranges_to_entry_points_count 00000000     <absolute>
 0000:00000000       ___guard_longjmp_table     00000000     <absolute>
 0000:00000000       ___guard_iat_table         00000000     <absolute>
 0000:00000000       ___guard_eh_cont_count     00000000     <absolute>
 0000:00000000       ___hybrid_auxiliary_iat    00000000     <absolute>
 0000:00000000       ___guard_eh_cont_table     00000000     <absolute>
 0000:00000000       ___arm64x_redirection_metadata 00000000     <absolute>
 0000:00000000       ___hybrid_code_map_count   00000000     <absolute>
 0000:000000df       ___safe_se_handler_count   000000df     <absolute>
 0000:00000100       ___guard_flags             00000100     <absolute>
 0000:00000000       ___ImageBase               10000000     <linker-defined>
 0001:0000e340       _DllMain@12                1000f340 f   xpctarget.obj
 0001:0000e350       _SLRTSetErrorStatus        1000f350 f   xpctarget.obj
 0001:0000e370       _changeStepSize            1000f370 f   xpctarget.obj
 0001:0000e3c0       _getDLMVersion             1000f3c0 f   xpctarget.obj
 0001:0000e3d0       _getFullPathToRefMdl       1000f3d0 f   xpctarget.obj
 0001:0000e480       _getRefMdlPath             1000f480 f   xpctarget.obj
 0001:0000e500       _getRefMdlSignalNumber     1000f500 f   xpctarget.obj
 0001:0000e5b0       _getrlmdlinfo              1000f5b0 f   xpctarget.obj
 0001:0000e710       _integrated_3PropControl_6bitCmd_100HzIMU_25HzP_ChangeStepSize 1000f710 f   xpctarget.obj
 0001:0000e760       _slrtRegisterSignalToLoggingService 1000f760 f   xpctarget.obj
 0001:0000e8c0       _updateDiscreteEvents      1000f8c0 f   xpctarget.obj
 0001:0000e8d0       _getNumRef                 1000f8d0 f   appmappingData.obj
 0001:0000e8e0       ___local_stdio_printf_options 1000f8e0 f i legacy_stdio.obj
 0001:0000e8f0       __vfprintf_l               1000f8f0 f i legacy_stdio.obj
 0001:0000e920       _vprintf                   1000f920 f i legacy_stdio.obj
 0001:0000e960       _rt_mxCreateCharMatrixFromStrings 1000f960 f   rt_matrx.obj
 0001:0000eac0       _rt_mxCreateDoubleMatrix   1000fac0 f   rt_matrx.obj
 0001:0000eb20       _rt_mxCreateNumericArray   1000fb20 f   rt_matrx.obj
 0001:0000eb90       _rt_mxCreateString         1000fb90 f   rt_matrx.obj
 0001:0000ec20       _rt_mxDuplicateArray       1000fc20 f   rt_matrx.obj
 0001:0000ec80       _rt_mxGetDimensions        1000fc80 f   rt_matrx.obj
 0001:0000ecc0       _rt_mxGetEps               1000fcc0 f   rt_matrx.obj
 0001:0000ecd0       _rt_mxGetString            1000fcd0 f   rt_matrx.obj
 0001:0000ed50       _rtPrintfNoOp              1000fd50 f   rt_printf.obj
 0001:0000ed60       __vsnprintf_l              1000fd60 f i rt_logging.obj
 0001:0000eda0       __vsprintf_l               1000fda0 f i rt_logging.obj
 0001:0000ede0       _fprintf                   1000fde0 f i rt_logging.obj
 0001:0000f2e0       _printf                    100102e0 f i rt_logging.obj
 0001:0000f320       _rt_CreateLogVar           10010320 f   rt_logging.obj
 0001:0000f3b0       _rt_CreateLogVarWithConvert 100103b0 f   rt_logging.obj
 0001:0000fce0       _rt_CreateStructLogVar     10010ce0 f   rt_logging.obj
 0001:00010ae0       _rt_GetMxIdFromDTypeId     10011ae0 f   rt_logging.obj
 0001:00010b10       _rt_GetMxIdFromDTypeIdForRSim 10011b10 f   rt_logging.obj
 0001:000136a0       _rt_StartDataLogging       100146a0 f   rt_logging.obj
 0001:00013b70       _rt_StartDataLoggingWithStartTime 10014b70 f   rt_logging.obj
 0001:00013ff0       _rt_StopDataLogging        10014ff0 f   rt_logging.obj
 0001:00014010       _rt_StopDataLoggingImpl    10015010 f   rt_logging.obj
 0001:00014720       _rt_UpdateLogVar           10015720 f   rt_logging.obj
 0001:000156e0       _rt_UpdateLogVarWithDiscontiguousData 100166e0 f   rt_logging.obj
 0001:000159b0       _rt_UpdateStructLogVar     100169b0 f   rt_logging.obj
 0001:00015a40       _rt_UpdateTXXFYLogVars     10016a40 f   rt_logging.obj
 0001:00015e90       _rt_UpdateTXYLogVars       10016e90 f   rt_logging.obj
 0001:000160d0       _rt_getTempMemory          100170d0 f   rt_logging.obj
 0001:00016120       _rt_preProcessAndLogData   10017120 f   rt_logging.obj
 0001:000161c0       _rt_preProcessAndLogDataWithIndex 100171c0 f   rt_logging.obj
 0001:00016270       _sprintf                   10017270 f i rt_logging.obj
 0001:000162b0       _MdlInitialize             100172b0 f   integrated_3PropControl_6bitCmd_100HzIMU_25HzP.obj
 0001:000162c0       _MdlInitializeSampleTimes  100172c0 f   integrated_3PropControl_6bitCmd_100HzIMU_25HzP.obj
 0001:000162d0       _MdlInitializeSizes        100172d0 f   integrated_3PropControl_6bitCmd_100HzIMU_25HzP.obj
 0001:000162e0       _MdlOutputs                100172e0 f   integrated_3PropControl_6bitCmd_100HzIMU_25HzP.obj
 0001:000162f0       _MdlStart                  100172f0 f   integrated_3PropControl_6bitCmd_100HzIMU_25HzP.obj
 0001:00016300       _MdlTerminate              10017300 f   integrated_3PropControl_6bitCmd_100HzIMU_25HzP.obj
 0001:00016310       _MdlUpdate                 10017310 f   integrated_3PropControl_6bitCmd_100HzIMU_25HzP.obj
 0001:000163d0       _integrated_3PropContr_BitShift1 100173d0 f   integrated_3PropControl_6bitCmd_100HzIMU_25HzP.obj
 0001:000163f0       _integrated_3PropContr_BitShift2 100173f0 f   integrated_3PropControl_6bitCmd_100HzIMU_25HzP.obj
 0001:00016410       _integrated_3PropContr_BitShift3 10017410 f   integrated_3PropControl_6bitCmd_100HzIMU_25HzP.obj
 0001:00016430       _integrated_3PropContr_ISR_Start 10017430 f   integrated_3PropControl_6bitCmd_100HzIMU_25HzP.obj
 0001:00016b90       _integrated_3PropContro_ISR_Term 10017b90 f   integrated_3PropControl_6bitCmd_100HzIMU_25HzP.obj
 0001:00016d60       _integrated_3PropControl_6bi_ISR 10017d60 f   integrated_3PropControl_6bitCmd_100HzIMU_25HzP.obj
 0001:000173e0       _integrated_3PropControl_6bitCmd_100HzIMU_25HzP 100183e0 f   integrated_3PropControl_6bitCmd_100HzIMU_25HzP.obj
 0001:00020070       _rt_roundd_snf             10021070 f   integrated_3PropControl_6bitCmd_100HzIMU_25HzP.obj
 0001:00020170       _xPCISR1                   10021170 f   integrated_3PropControl_6bitCmd_100HzIMU_25HzP.obj
 0001:00020270       _integrated_3PropControl_6bitCmd_100HzIMU_25HzP_GetCAPIStaticMap 10021270 f   integrated_3PropControl_6bitCmd_100HzIMU_25HzP_capi.obj
 0001:00020280       _integrated_3PropControl_6bitCmd_100HzIMU_25HzP_InitializeDataMapInfo 10021280 f   integrated_3PropControl_6bitCmd_100HzIMU_25HzP_capi.obj
 0001:00020350       _mdlXcp_GetMdlXcpInfo      10021350 f   integrated_3PropControl_6bitCmd_100HzIMU_25HzP_xcp.obj
 0001:00020360       _SLRT_update_TET           10021360 f   integrated_3PropControl_6bitCmd_100HzIMU_25HzP_xcp_TET.obj
 0001:00020430       _rtGetInf                  10021430 f   rtGetInf.obj
 0001:00020460       _rtGetInfF                 10021460 f   rtGetInf.obj
 0001:00020470       _rtGetMinusInf             10021470 f   rtGetInf.obj
 0001:000204a0       _rtGetMinusInfF            100214a0 f   rtGetInf.obj
 0001:000204b0       _rtGetNaN                  100214b0 f   rtGetNaN.obj
 0001:000204e0       _rtGetNaNF                 100214e0 f   rtGetNaN.obj
 0001:000204f0       _rtIsInf                   100214f0 f   rt_nonfinite.obj
 0001:00020530       _rtIsInfF                  10021530 f   rt_nonfinite.obj
 0001:00020570       _rtIsNaN                   10021570 f   rt_nonfinite.obj
 0001:000205c0       _rtIsNaNF                  100215c0 f   rt_nonfinite.obj
 0001:00020600       _rt_InitInfAndNaN          10021600 f   rt_nonfinite.obj
 0001:00020660       _fiforead                  10021660 f   fiforeadwrite.obj
 0001:000209d0       _fifowrite                 100219d0 f   fiforeadwrite.obj
 0001:00020c30       _xpcIO5XXintaprehook       10021c30 f   xpcIO5XXintahooks.obj
 0001:00020c70       _xpcIO5XXintastart         10021c70 f   xpcIO5XXintahooks.obj
 0001:00020d10       _xpcIO5XXintastop          10021d10 f   xpcIO5XXintahooks.obj
 0001:00020d90       _rt_CleanUpForStateLogWithMMI 10021d90 f   rt_logging_mmi.obj
 0001:00020ea0       _rt_FillStateSigInfoFromMMI 10021ea0 f   rt_logging_mmi.obj
 0001:000212f0       _rtwCAPI_CountSysRan       100222f0 f   rtw_modelmap_utils.obj
 0001:00021390       _rtwCAPI_EncodePath        10022390 f   rtw_modelmap_utils.obj
 0001:00021430       _rtwCAPI_FillSysRan        10022430 f   rtw_modelmap_utils.obj
 0001:00021520       _rtwCAPI_FreeFullPaths     10022520 f   rtw_modelmap_utils.obj
 0001:00021580       _rtwCAPI_GetFullStateBlockPath 10022580 f   rtw_modelmap_utils.obj
 0001:00021700       _rtwCAPI_GetNumContStateRecords 10022700 f   rtw_modelmap_utils.obj
 0001:00021780       _rtwCAPI_GetNumSigLogRecords 10022780 f   rtw_modelmap_utils.obj
 0001:000217d0       _rtwCAPI_GetNumSigLogRecordsForRTWLogging 100227d0 f   rtw_modelmap_utils.obj
 0001:00021870       _rtwCAPI_GetNumStateRecords 10022870 f   rtw_modelmap_utils.obj
 0001:000218c0       _rtwCAPI_GetNumStateRecordsForRTWLogging 100228c0 f   rtw_modelmap_utils.obj
 0001:00021960       _rtwCAPI_GetSigAddrFromMap 10022960 f   rtw_modelmap_utils.obj
 0001:000219a0       _rtwCAPI_GetSigLogRecordInfo 100229a0 f   rtw_modelmap_utils.obj
 0001:00021d30       _rtwCAPI_GetStateRecordInfo 10022d30 f   rtw_modelmap_utils.obj
 0001:000221c0       _rtwCAPI_GetStateWidth     100231c0 f   rtw_modelmap_utils.obj
 0001:00022210       _rtwCAPI_HasStates         10023210 f   rtw_modelmap_utils.obj
 0001:00022270       _rtwCAPI_UpdateFullPaths   10023270 f   rtw_modelmap_utils.obj
 0001:000223b0       _timestamp_x86             100233b0 f   host_timer_x86.obj
 0001:000223c0       _taskTimeEnd               100233c0 f   xpc_code_profiling_utility_functions.obj
 0001:000223d0       _taskTimeEnd_              100233d0 f   xpc_code_profiling_utility_functions.obj
 0001:000223e0       _taskTimeStart             100233e0 f   xpc_code_profiling_utility_functions.obj
 0001:000223f0       _taskTimeStart_            100233f0 f   xpc_code_profiling_utility_functions.obj
 0001:00022400       _xilProfilingTimerFreeze   10023400 f   xpc_code_profiling_utility_functions.obj
 0001:00022410       _xilProfilingTimerFreezeInternal 10023410 f   xpc_code_profiling_utility_functions.obj
 0001:00022420       _xilProfilingTimerUnFreeze 10023420 f   xpc_code_profiling_utility_functions.obj
 0001:00022430       _xilProfilingTimerUnFreezeInternal 10023430 f   xpc_code_profiling_utility_functions.obj
 0001:00022440       _xilUploadProfilingData    10023440 f   xpc_code_profiling_utility_functions.obj
 0001:00022450       _asciiencode               10023450 f   asciiencode.obj
 0001:00022ce0       _fiforeadbinhdr            10023ce0 f   fiforeadbinhdr.obj
 0001:00023960       _sg_serial_enable_tx_int_s_v3 10024960 f   sg_serial_enable_tx_int_s_v3.obj
 0001:00023d70       _sg_serial_int_source_filter_s_v3 10024d70 f   sg_serial_int_source_filter_s_v3.obj
 0001:000243b0       _sg_serial_read_hw_fifo_s_v3 100253b0 f   sg_serial_read_hw_fifo_s_v3.obj
 0001:000246f0       _sg_serial_read_int_status_s_v3 100256f0 f   sg_serial_read_int_status_s_v3.obj
 0001:00025250       _sg_serial_setup_channel_s_v3 10026250 f   sg_serial_setup_channel_s_v3.obj
 0001:00025840       _sg_serial_write_hw_fifo_s_v3 10026840 f   sg_serial_write_hw_fifo_s_v3.obj
 0001:00025890       _z3ec0d782fc               10026890 f   sg_serial_init.obj
 0001:00025a20       _GetPCIDeviceFull          10026a20 f   xpcruntime:xpcimports.obj
 0001:00025b90       _GetPCIDeviceFunction      10026b90 f   xpcruntime:xpcimports.obj
 0001:00025d00       _ShowPCIDevice             10026d00 f   xpcruntime:xpcimports.obj
 0001:00026330       _slrtGetPciConfigAtFunction 10027330 f   xpcruntime:xpcimports.obj
 0001:000266a0       _xpcGetPciConfigAtSlot     100276a0 f   xpcruntime:xpcimports.obj
 0001:000266c0       _xpcInitProcs              100276c0 f   xpcruntime:xpcimports.obj
 0001:000280f0       _xpceuploadevent           100290f0 f   xpcruntime:xpcimports.obj
 0001:00028100       ??$?6DU?$char_traits@D@std@@V?$allocator@D@1@@std@@YAAAV?$basic_ostream@DU?$char_traits@D@std@@@0@AAV10@ABV?$basic_string@DU?$char_traits@D@std@@V?$allocator@D@2@@0@@Z 10029100 f i libsg_MSVC160_vc:sg_common.obj
 0001:00028130       ??$?6U?$char_traits@D@std@@@std@@YAAAV?$basic_ostream@DU?$char_traits@D@std@@@0@AAV10@PBD@Z 10029130 f i libsg_MSVC160_vc:sg_common.obj
 0001:00028470       ??$_Allocate@$07U_Default_allocate_traits@std@@$0A@@std@@YAPAXI@Z 10029470 f i libsg_MSVC160_vc:sg_common.obj
 0001:000284d0       ??$_Allocate_manually_vector_aligned@U_Default_allocate_traits@std@@@std@@YAPAXI@Z 100294d0 f i libsg_MSVC160_vc:sg_common.obj
 0001:00028510       ??$_Construct_in_place@PADABQAD@std@@YAXAAPADABQAD@Z 10029510 f i libsg_MSVC160_vc:sg_common.obj
 0001:00028530       ??$_Deallocate@$07$0A@@std@@YAXPAXI@Z 10029530 f i libsg_MSVC160_vc:sg_common.obj
 0001:00028580       ??$_Destroy_in_place@PAD@std@@YAXAAPAD@Z 10029580 f i libsg_MSVC160_vc:sg_common.obj
 0001:00028590       ??$_Destroy_range@V?$allocator@V?$basic_string@DU?$char_traits@D@std@@V?$allocator@D@2@@std@@@std@@@std@@YAXPAV?$basic_string@DU?$char_traits@D@std@@V?$allocator@D@2@@0@QAV10@AAV?$allocator@V?$basic_string@DU?$char_traits@D@std@@V?$allocator@D@2@@std@@@0@@Z 10029590 f i libsg_MSVC160_vc:sg_common.obj
 0001:00028610       ??$_Emplace_reallocate@V?$basic_string@DU?$char_traits@D@std@@V?$allocator@D@2@@std@@@?$vector@V?$basic_string@DU?$char_traits@D@std@@V?$allocator@D@2@@std@@V?$allocator@V?$basic_string@DU?$char_traits@D@std@@V?$allocator@D@2@@std@@@2@@std@@QAEPAV?$basic_string@DU?$char_traits@D@std@@V?$allocator@D@2@@1@QAV21@$$QAV21@@Z 10029610 f i libsg_MSVC160_vc:sg_common.obj
 0001:00028850       ??$_Immortalize@V_Iostream_error_category@std@@@std@@YAAAV_Iostream_error_category@0@XZ 10029850 f i libsg_MSVC160_vc:sg_common.obj
 0001:00028880       ??$_Immortalize_impl@V_Iostream_error_category@std@@@std@@YGHPAX0PAPAX@Z 10029880 f i libsg_MSVC160_vc:sg_common.obj
 0001:000288b0       ??$_Insert_string@DU?$char_traits@D@std@@I@std@@YAAAV?$basic_ostream@DU?$char_traits@D@std@@@0@AAV10@QBDI@Z 100298b0 f i libsg_MSVC160_vc:sg_common.obj
 0001:00028ba0       ??$_Integral_to_string@D_J@std@@YA?AV?$basic_string@DU?$char_traits@D@std@@V?$allocator@D@2@@0@_J@Z 10029ba0 f i libsg_MSVC160_vc:sg_common.obj
 0001:00028c50       ??$_Maklocchr@D@std@@YADDPADABU_Cvtvec@@@Z 10029c50 f i libsg_MSVC160_vc:sg_common.obj
 0001:00028c60       ??$_Maklocstr@D@std@@YAPADPBDPADABU_Cvtvec@@@Z 10029c60 f i libsg_MSVC160_vc:sg_common.obj
 0001:00028cc0       ??$_Pocma@V?$allocator@D@std@@@std@@YAXAAV?$allocator@D@0@0@Z 10029cc0 f i libsg_MSVC160_vc:sg_common.obj
 0001:00028cd0       ??$_UIntegral_to_buff@D_K@std@@YAPADPAD_K@Z 10029cd0 f i libsg_MSVC160_vc:sg_common.obj
 0001:00028e50       ??$_Uninitialized_move@PAV?$basic_string@DU?$char_traits@D@std@@V?$allocator@D@2@@std@@V?$allocator@V?$basic_string@DU?$char_traits@D@std@@V?$allocator@D@2@@std@@@2@@std@@YAPAV?$basic_string@DU?$char_traits@D@std@@V?$allocator@D@2@@0@QAV10@0PAV10@AAV?$allocator@V?$basic_string@DU?$char_traits@D@std@@V?$allocator@D@2@@std@@@0@@Z 10029e50 f i libsg_MSVC160_vc:sg_common.obj
 0001:00028ee0       ??$endl@DU?$char_traits@D@std@@@std@@YAAAV?$basic_ostream@DU?$char_traits@D@std@@@0@AAV10@@Z 10029ee0 f i libsg_MSVC160_vc:sg_common.obj
 0001:00028fb0       ??$exchange@PAV_Facet_base@std@@PAV12@@std@@YAPAV_Facet_base@0@AAPAV10@$$QAPAV10@@Z 10029fb0 f i libsg_MSVC160_vc:sg_common.obj
 0001:00028fd0       ??$use_facet@V?$ctype@D@std@@@std@@YAABV?$ctype@D@0@ABVlocale@0@@Z 10029fd0 f i libsg_MSVC160_vc:sg_common.obj
 0001:000291b0       ??$use_facet@V?$num_put@DV?$ostreambuf_iterator@DU?$char_traits@D@std@@@std@@@std@@@std@@YAABV?$num_put@DV?$ostreambuf_iterator@DU?$char_traits@D@std@@@std@@@0@ABVlocale@0@@Z 1002a1b0 f i libsg_MSVC160_vc:sg_common.obj
 0001:00029360       ??$use_facet@V?$numpunct@D@std@@@std@@YAABV?$numpunct@D@0@ABVlocale@0@@Z 1002a360 f i libsg_MSVC160_vc:sg_common.obj
 0001:000295d0       ??0?$basic_string@DU?$char_traits@D@std@@V?$allocator@D@2@@std@@QAE@ID@Z 1002a5d0 f i libsg_MSVC160_vc:sg_common.obj
 0001:000296a0       ??0_Locinfo@std@@QAE@PBD@Z 1002a6a0 f i libsg_MSVC160_vc:sg_common.obj
 0001:00029770       ??0_System_error@std@@IAE@Verror_code@1@ABV?$basic_string@DU?$char_traits@D@std@@V?$allocator@D@2@@1@@Z 1002a770 f i libsg_MSVC160_vc:sg_common.obj
 0001:000299c0       ??0_System_error@std@@QAE@ABV01@@Z 1002a9c0 f i libsg_MSVC160_vc:sg_common.obj
 0001:00029a20       ??0bad_alloc@std@@QAE@ABV01@@Z 1002aa20 f i libsg_MSVC160_vc:sg_common.obj
 0001:00029a60       ??0bad_array_new_length@std@@QAE@ABV01@@Z 1002aa60 f i libsg_MSVC160_vc:sg_common.obj
 0001:00029aa0       ??0bad_array_new_length@std@@QAE@XZ 1002aaa0 f i libsg_MSVC160_vc:sg_common.obj
 0001:00029ac0       ??0bad_cast@std@@QAE@ABV01@@Z 1002aac0 f i libsg_MSVC160_vc:sg_common.obj
 0001:00029b00       ??0exception@std@@QAE@ABV01@@Z 1002ab00 f i libsg_MSVC160_vc:sg_common.obj
 0001:00029b40       ??0failure@ios_base@std@@QAE@ABV012@@Z 1002ab40 f i libsg_MSVC160_vc:sg_common.obj
 0001:00029ba0       ??0failure@ios_base@std@@QAE@PBDABVerror_code@2@@Z 1002aba0 f i libsg_MSVC160_vc:sg_common.obj
 0001:00029cc0       ??0runtime_error@std@@QAE@ABV01@@Z 1002acc0 f i libsg_MSVC160_vc:sg_common.obj
 0001:00029d00       ??0sentry@?$basic_ostream@DU?$char_traits@D@std@@@std@@QAE@AAV12@@Z 1002ad00 f i libsg_MSVC160_vc:sg_common.obj
 0001:00029dc0       ??0system_error@std@@QAE@ABV01@@Z 1002adc0 f i libsg_MSVC160_vc:sg_common.obj
 0001:00029e20       ??1?$_Tidy_guard@V?$numpunct@D@std@@@std@@QAE@XZ 1002ae20 f i libsg_MSVC160_vc:sg_common.obj
 0001:00029e50       ??1?$_Yarn@D@std@@QAE@XZ   1002ae50 f i libsg_MSVC160_vc:sg_common.obj
 0001:00029e70       ??1?$_Yarn@_W@std@@QAE@XZ  1002ae70 f i libsg_MSVC160_vc:sg_common.obj
 0001:00029e90       ??1?$basic_string@DU?$char_traits@D@std@@V?$allocator@D@2@@std@@QAE@XZ 1002ae90 f i libsg_MSVC160_vc:sg_common.obj
 0001:00029ef0       ??1?$ctype@D@std@@MAE@XZ   1002aef0 f i libsg_MSVC160_vc:sg_common.obj
 0001:00029f40       ??1?$num_put@DV?$ostreambuf_iterator@DU?$char_traits@D@std@@@std@@@std@@MAE@XZ 1002af40 f i libsg_MSVC160_vc:sg_common.obj
 0001:00029f50       ??1?$numpunct@D@std@@MAE@XZ 1002af50 f i libsg_MSVC160_vc:sg_common.obj
 0001:00029f90       ??1?$unique_ptr@V_Facet_base@std@@U?$default_delete@V_Facet_base@std@@@2@@std@@QAE@XZ 1002af90 f i libsg_MSVC160_vc:sg_common.obj
 0001:00029fa0       ??1?$vector@V?$basic_string@DU?$char_traits@D@std@@V?$allocator@D@2@@std@@V?$allocator@V?$basic_string@DU?$char_traits@D@std@@V?$allocator@D@2@@std@@@2@@std@@QAE@XZ 1002afa0 f i libsg_MSVC160_vc:sg_common.obj
 0001:0002a040       ??1_Facet_base@std@@UAE@XZ 1002b040 f i libsg_MSVC160_vc:sg_common.obj
 0001:0002a050       ??1_Locinfo@std@@QAE@XZ    1002b050 f i libsg_MSVC160_vc:sg_common.obj
 0001:0002a160       ??1_Sentry_base@?$basic_ostream@DU?$char_traits@D@std@@@std@@QAE@XZ 1002b160 f i libsg_MSVC160_vc:sg_common.obj
 0001:0002a1c0       ??1bad_array_new_length@std@@UAE@XZ 1002b1c0 f i libsg_MSVC160_vc:sg_common.obj
 0001:0002a1e0       ??1bad_cast@std@@UAE@XZ    1002b1e0 f i libsg_MSVC160_vc:sg_common.obj
 0001:0002a200       ??1error_category@std@@UAE@XZ 1002b200 f i libsg_MSVC160_vc:sg_common.obj
 0001:0002a210       ??1exception@std@@UAE@XZ   1002b210 f i libsg_MSVC160_vc:sg_common.obj
 0001:0002a230       ??1facet@locale@std@@MAE@XZ 1002b230 f i libsg_MSVC160_vc:sg_common.obj
 0001:0002a240       ??1failure@ios_base@std@@UAE@XZ 1002b240 f i libsg_MSVC160_vc:sg_common.obj
 0001:0002a260       ??1locale@std@@QAE@XZ      1002b260 f i libsg_MSVC160_vc:sg_common.obj
 0001:0002a280       ??1sentry@?$basic_ostream@DU?$char_traits@D@std@@@std@@QAE@XZ 1002b280 f i libsg_MSVC160_vc:sg_common.obj
 0001:0002a300       ??1system_error@std@@UAE@XZ 1002b300 f i libsg_MSVC160_vc:sg_common.obj
 0001:0002a320       ??_G?$ctype@D@std@@MAEPAXI@Z 1002b320 f i libsg_MSVC160_vc:sg_common.obj
 0001:0002a320       ??_E?$ctype@D@std@@MAEPAXI@Z 1002b320 f i libsg_MSVC160_vc:sg_common.obj
 0001:0002a390       ??_G?$num_put@DV?$ostreambuf_iterator@DU?$char_traits@D@std@@@std@@@std@@MAEPAXI@Z 1002b390 f i libsg_MSVC160_vc:sg_common.obj
 0001:0002a390       ??_E?$num_put@DV?$ostreambuf_iterator@DU?$char_traits@D@std@@@std@@@std@@MAEPAXI@Z 1002b390 f i libsg_MSVC160_vc:sg_common.obj
 0001:0002a3c0       ??_G?$numpunct@D@std@@MAEPAXI@Z 1002b3c0 f i libsg_MSVC160_vc:sg_common.obj
 0001:0002a3c0       ??_E?$numpunct@D@std@@MAEPAXI@Z 1002b3c0 f i libsg_MSVC160_vc:sg_common.obj
 0001:0002a420       ??_G_Facet_base@std@@UAEPAXI@Z 1002b420 f i libsg_MSVC160_vc:sg_common.obj
 0001:0002a420       ??_E_Facet_base@std@@UAEPAXI@Z 1002b420 f i libsg_MSVC160_vc:sg_common.obj
 0001:0002a450       ??_E_Generic_error_category@std@@UAEPAXI@Z 1002b450 f i libsg_MSVC160_vc:sg_common.obj
 0001:0002a450       ??_G_Generic_error_category@std@@UAEPAXI@Z 1002b450 f i libsg_MSVC160_vc:sg_common.obj
 0001:0002a480       ??_G_Iostream_error_category@std@@UAEPAXI@Z 1002b480 f i libsg_MSVC160_vc:sg_common.obj
 0001:0002a480       ??_E_Iostream_error_category@std@@UAEPAXI@Z 1002b480 f i libsg_MSVC160_vc:sg_common.obj
 0001:0002a4b0       ??_E_System_error@std@@UAEPAXI@Z 1002b4b0 f i libsg_MSVC160_vc:sg_common.obj
 0001:0002a4b0       ??_G_System_error@std@@UAEPAXI@Z 1002b4b0 f i libsg_MSVC160_vc:sg_common.obj
 0001:0002a4f0       ??_Gbad_alloc@std@@UAEPAXI@Z 1002b4f0 f i libsg_MSVC160_vc:sg_common.obj
 0001:0002a4f0       ??_Ebad_alloc@std@@UAEPAXI@Z 1002b4f0 f i libsg_MSVC160_vc:sg_common.obj
 0001:0002a530       ??_Gbad_array_new_length@std@@UAEPAXI@Z 1002b530 f i libsg_MSVC160_vc:sg_common.obj
 0001:0002a530       ??_Ebad_array_new_length@std@@UAEPAXI@Z 1002b530 f i libsg_MSVC160_vc:sg_common.obj
 0001:0002a570       ??_Ebad_cast@std@@UAEPAXI@Z 1002b570 f i libsg_MSVC160_vc:sg_common.obj
 0001:0002a570       ??_Gbad_cast@std@@UAEPAXI@Z 1002b570 f i libsg_MSVC160_vc:sg_common.obj
 0001:0002a5b0       ??_Ectype_base@std@@UAEPAXI@Z 1002b5b0 f i libsg_MSVC160_vc:sg_common.obj
 0001:0002a5b0       ??_Gctype_base@std@@UAEPAXI@Z 1002b5b0 f i libsg_MSVC160_vc:sg_common.obj
 0001:0002a5e0       ??_Eexception@std@@UAEPAXI@Z 1002b5e0 f i libsg_MSVC160_vc:sg_common.obj
 0001:0002a5e0       ??_Gexception@std@@UAEPAXI@Z 1002b5e0 f i libsg_MSVC160_vc:sg_common.obj
 0001:0002a620       ??_Gfacet@locale@std@@MAEPAXI@Z 1002b620 f i libsg_MSVC160_vc:sg_common.obj
 0001:0002a620       ??_Efacet@locale@std@@MAEPAXI@Z 1002b620 f i libsg_MSVC160_vc:sg_common.obj
 0001:0002a650       ??_Efailure@ios_base@std@@UAEPAXI@Z 1002b650 f i libsg_MSVC160_vc:sg_common.obj
 0001:0002a650       ??_Gfailure@ios_base@std@@UAEPAXI@Z 1002b650 f i libsg_MSVC160_vc:sg_common.obj
 0001:0002a690       ??_Gruntime_error@std@@UAEPAXI@Z 1002b690 f i libsg_MSVC160_vc:sg_common.obj
 0001:0002a690       ??_Eruntime_error@std@@UAEPAXI@Z 1002b690 f i libsg_MSVC160_vc:sg_common.obj
 0001:0002a6d0       ??_Esystem_error@std@@UAEPAXI@Z 1002b6d0 f i libsg_MSVC160_vc:sg_common.obj
 0001:0002a6d0       ??_Gsystem_error@std@@UAEPAXI@Z 1002b6d0 f i libsg_MSVC160_vc:sg_common.obj
 0001:0002a710       ?_Decref@facet@locale@std@@UAEPAV_Facet_base@3@XZ 1002b710 f i libsg_MSVC160_vc:sg_common.obj
 0001:0002a730       ?_Ffmt@?$num_put@DV?$ostreambuf_iterator@DU?$char_traits@D@std@@@std@@@std@@ABAPADPADDH@Z 1002b730 f i libsg_MSVC160_vc:sg_common.obj
 0001:0002a820       ?_Fput@?$num_put@DV?$ostreambuf_iterator@DU?$char_traits@D@std@@@std@@@std@@ABA?AV?$ostreambuf_iterator@DU?$char_traits@D@std@@@2@V32@AAVios_base@2@DPBDI@Z 1002b820 f i libsg_MSVC160_vc:sg_common.obj
 0001:0002aef0       ?_Incref@facet@locale@std@@UAEXXZ 1002bef0 f i libsg_MSVC160_vc:sg_common.obj
 0001:0002af00       ?_Iput@?$num_put@DV?$ostreambuf_iterator@DU?$char_traits@D@std@@@std@@@std@@ABA?AV?$ostreambuf_iterator@DU?$char_traits@D@std@@@2@V32@AAVios_base@2@DPADI@Z 1002bf00 f i libsg_MSVC160_vc:sg_common.obj
 0001:0002b540       ?_Osfx@?$basic_ostream@DU?$char_traits@D@std@@@std@@QAEXXZ 1002c540 f i libsg_MSVC160_vc:sg_common.obj
 0001:0002b640       ?_Put@?$num_put@DV?$ostreambuf_iterator@DU?$char_traits@D@std@@@std@@@std@@ABA?AV?$ostreambuf_iterator@DU?$char_traits@D@std@@@2@V32@PBDI@Z 1002c640 f i libsg_MSVC160_vc:sg_common.obj
 0001:0002b6d0       ?_Rep@?$num_put@DV?$ostreambuf_iterator@DU?$char_traits@D@std@@@std@@@std@@ABA?AV?$ostreambuf_iterator@DU?$char_traits@D@std@@@2@V32@DI@Z 1002c6d0 f i libsg_MSVC160_vc:sg_common.obj
 0001:0002b760       ?_Throw_bad_array_new_length@std@@YAXXZ 1002c760 f i libsg_MSVC160_vc:sg_common.obj
 0001:0002b790       ?_Xlen@?$basic_string@DU?$char_traits@D@std@@V?$allocator@D@2@@std@@CAXXZ 1002c790 f i libsg_MSVC160_vc:sg_common.obj
 0001:0002b7a0       ?_Xlength@?$vector@V?$basic_string@DU?$char_traits@D@std@@V?$allocator@D@2@@std@@V?$allocator@V?$basic_string@DU?$char_traits@D@std@@V?$allocator@D@2@@std@@@2@@std@@CAXXZ 1002c7a0 f i libsg_MSVC160_vc:sg_common.obj
 0001:0002b7b0       ?_Xran@?$_String_val@U?$_Simple_types@D@std@@@std@@SAXXZ 1002c7b0 f i libsg_MSVC160_vc:sg_common.obj
 0001:0002b7c0       ?allocate@?$allocator@D@std@@QAEPADI@Z 1002c7c0 f i libsg_MSVC160_vc:sg_common.obj
 0001:0002b830       ?append@?$basic_string@DU?$char_traits@D@std@@V?$allocator@D@2@@std@@QAEAAV12@QBDI@Z 1002c830 f i libsg_MSVC160_vc:sg_common.obj
 0001:0002b9e0       ?assign@?$basic_string@DU?$char_traits@D@std@@V?$allocator@D@2@@std@@QAEAAV12@QBDI@Z 1002c9e0 f i libsg_MSVC160_vc:sg_common.obj
 0001:0002bb10       ?clear@ios_base@std@@QAEXH_N@Z 1002cb10 f i libsg_MSVC160_vc:sg_common.obj
 0001:0002bba0       ?dec@std@@YAAAVios_base@1@AAV21@@Z 1002cba0 f i libsg_MSVC160_vc:sg_common.obj
 0001:0002bbc0       ?default_error_condition@error_category@std@@UBE?AVerror_condition@2@H@Z 1002cbc0 f i libsg_MSVC160_vc:sg_common.obj
 0001:0002bbe0       ?do_decimal_point@?$numpunct@D@std@@MBEDXZ 1002cbe0 f i libsg_MSVC160_vc:sg_common.obj
 0001:0002bbf0       ?do_falsename@?$numpunct@D@std@@MBE?AV?$basic_string@DU?$char_traits@D@std@@V?$allocator@D@2@@2@XZ 1002cbf0 f i libsg_MSVC160_vc:sg_common.obj
 0001:0002bc40       ?do_grouping@?$numpunct@D@std@@MBE?AV?$basic_string@DU?$char_traits@D@std@@V?$allocator@D@2@@2@XZ 1002cc40 f i libsg_MSVC160_vc:sg_common.obj
 0001:0002bc90       ?do_narrow@?$ctype@D@std@@MBEDDD@Z 1002cc90 f i libsg_MSVC160_vc:sg_common.obj
 0001:0002bca0       ?do_narrow@?$ctype@D@std@@MBEPBDPBD0DPAD@Z 1002cca0 f i libsg_MSVC160_vc:sg_common.obj
 0001:0002bcd0       ?do_put@?$num_put@DV?$ostreambuf_iterator@DU?$char_traits@D@std@@@std@@@std@@MBE?AV?$ostreambuf_iterator@DU?$char_traits@D@std@@@2@V32@AAVios_base@2@DJ@Z 1002ccd0 f i libsg_MSVC160_vc:sg_common.obj
 0001:0002bdd0       ?do_put@?$num_put@DV?$ostreambuf_iterator@DU?$char_traits@D@std@@@std@@@std@@MBE?AV?$ostreambuf_iterator@DU?$char_traits@D@std@@@2@V32@AAVios_base@2@DK@Z 1002cdd0 f i libsg_MSVC160_vc:sg_common.obj
 0001:0002bed0       ?do_put@?$num_put@DV?$ostreambuf_iterator@DU?$char_traits@D@std@@@std@@@std@@MBE?AV?$ostreambuf_iterator@DU?$char_traits@D@std@@@2@V32@AAVios_base@2@DN@Z 1002ced0 f i libsg_MSVC160_vc:sg_common.obj
 0001:0002c0e0       ?do_put@?$num_put@DV?$ostreambuf_iterator@DU?$char_traits@D@std@@@std@@@std@@MBE?AV?$ostreambuf_iterator@DU?$char_traits@D@std@@@2@V32@AAVios_base@2@DO@Z 1002d0e0 f i libsg_MSVC160_vc:sg_common.obj
 0001:0002c2f0       ?do_put@?$num_put@DV?$ostreambuf_iterator@DU?$char_traits@D@std@@@std@@@std@@MBE?AV?$ostreambuf_iterator@DU?$char_traits@D@std@@@2@V32@AAVios_base@2@DPBX@Z 1002d2f0 f i libsg_MSVC160_vc:sg_common.obj
 0001:0002c370       ?do_put@?$num_put@DV?$ostreambuf_iterator@DU?$char_traits@D@std@@@std@@@std@@MBE?AV?$ostreambuf_iterator@DU?$char_traits@D@std@@@2@V32@AAVios_base@2@D_J@Z 1002d370 f i libsg_MSVC160_vc:sg_common.obj
 0001:0002c480       ?do_put@?$num_put@DV?$ostreambuf_iterator@DU?$char_traits@D@std@@@std@@@std@@MBE?AV?$ostreambuf_iterator@DU?$char_traits@D@std@@@2@V32@AAVios_base@2@D_K@Z 1002d480 f i libsg_MSVC160_vc:sg_common.obj
 0001:0002c590       ?do_put@?$num_put@DV?$ostreambuf_iterator@DU?$char_traits@D@std@@@std@@@std@@MBE?AV?$ostreambuf_iterator@DU?$char_traits@D@std@@@2@V32@AAVios_base@2@D_N@Z 1002d590 f i libsg_MSVC160_vc:sg_common.obj
 0001:0002c800       ?do_thousands_sep@?$numpunct@D@std@@MBEDXZ 1002d800 f i libsg_MSVC160_vc:sg_common.obj
 0001:0002c810       ?do_tolower@?$ctype@D@std@@MBEDD@Z 1002d810 f i libsg_MSVC160_vc:sg_common.obj
 0001:0002c830       ?do_tolower@?$ctype@D@std@@MBEPBDPADPBD@Z 1002d830 f i libsg_MSVC160_vc:sg_common.obj
 0001:0002c870       ?do_toupper@?$ctype@D@std@@MBEDD@Z 1002d870 f i libsg_MSVC160_vc:sg_common.obj
 0001:0002c890       ?do_toupper@?$ctype@D@std@@MBEPBDPADPBD@Z 1002d890 f i libsg_MSVC160_vc:sg_common.obj
 0001:0002c8d0       ?do_truename@?$numpunct@D@std@@MBE?AV?$basic_string@DU?$char_traits@D@std@@V?$allocator@D@2@@2@XZ 1002d8d0 f i libsg_MSVC160_vc:sg_common.obj
 0001:0002c920       ?do_widen@?$ctype@D@std@@MBEDD@Z 1002d920 f i libsg_MSVC160_vc:sg_common.obj
 0001:0002c930       ?do_widen@?$ctype@D@std@@MBEPBDPBD0PAD@Z 1002d930 f i libsg_MSVC160_vc:sg_common.obj
 0001:0002c960       ?equivalent@error_category@std@@UBE_NABVerror_code@2@H@Z 1002d960 f i libsg_MSVC160_vc:sg_common.obj
 0001:0002c990       ?equivalent@error_category@std@@UBE_NHABVerror_condition@2@@Z 1002d990 f i libsg_MSVC160_vc:sg_common.obj
 0001:0002c9e0       ?flush@?$basic_ostream@DU?$char_traits@D@std@@@std@@QAEAAV12@XZ 1002d9e0 f i libsg_MSVC160_vc:sg_common.obj
 0001:0002cb20       ?hex@std@@YAAAVios_base@1@AAV21@@Z 1002db20 f i libsg_MSVC160_vc:sg_common.obj
 0001:0002cb40       ?make_error_code@std@@YA?AVerror_code@1@W4io_errc@1@@Z 1002db40 f i libsg_MSVC160_vc:sg_common.obj
 0001:0002cb80       ?message@_Generic_error_category@std@@UBE?AV?$basic_string@DU?$char_traits@D@std@@V?$allocator@D@2@@2@H@Z 1002db80 f i libsg_MSVC160_vc:sg_common.obj
 0001:0002cbe0       ?message@_Iostream_error_category@std@@UBE?AV?$basic_string@DU?$char_traits@D@std@@V?$allocator@D@2@@2@H@Z 1002dbe0 f i libsg_MSVC160_vc:sg_common.obj
 0001:0002cc80       ?name@_Generic_error_category@std@@UBEPBDXZ 1002dc80 f i libsg_MSVC160_vc:sg_common.obj
 0001:0002cc90       ?name@_Iostream_error_category@std@@UBEPBDXZ 1002dc90 f i libsg_MSVC160_vc:sg_common.obj
 0001:0002cca0       ?put@?$basic_ostream@DU?$char_traits@D@std@@@std@@QAEAAV12@D@Z 1002dca0 f i libsg_MSVC160_vc:sg_common.obj
 0001:0002ce80       ?resize@?$basic_string@DU?$char_traits@D@std@@V?$allocator@D@2@@std@@QAEXID@Z 1002de80 f i libsg_MSVC160_vc:sg_common.obj
 0001:0002d040       ?setstate@?$basic_ios@DU?$char_traits@D@std@@@std@@QAEXH_N@Z 1002e040 f i libsg_MSVC160_vc:sg_common.obj
 0001:0002d0a0       ?to_string@std@@YA?AV?$basic_string@DU?$char_traits@D@std@@V?$allocator@D@2@@1@_J@Z 1002e0a0 f i libsg_MSVC160_vc:sg_common.obj
 0001:0002d150       ?what@exception@std@@UBEPBDXZ 1002e150 f i libsg_MSVC160_vc:sg_common.obj
 0001:0002d170       _createEncryptedMacFile    1002e170 f   libsg_MSVC160_vc:sg_common.obj
 0001:0002d200       _createHashValue           1002e200 f   libsg_MSVC160_vc:sg_common.obj
 0001:0002d230       _getLowestBit              1002e230 f   libsg_MSVC160_vc:sg_common.obj
 0001:0002d260       _getPCIConfigData          1002e260 f   libsg_MSVC160_vc:sg_common.obj
 0001:0002d280       _getTargetAuthentication   1002e280 f   libsg_MSVC160_vc:sg_common.obj
 0001:0002e4d0       _printWarningMessage       1002f4d0 f   libsg_MSVC160_vc:sg_common.obj
 0001:0002e510       _readPciBar                1002f510 f   libsg_MSVC160_vc:sg_common.obj
 0001:0002e650       _setPCIConfigAddress       1002f650 f   libsg_MSVC160_vc:sg_common.obj
 0001:0002e6a0       _setPCIConfigData          1002f6a0 f   libsg_MSVC160_vc:sg_common.obj
 0001:0002e6c0       _sg_checkTargetAuthentication 1002f6c0 f   libsg_MSVC160_vc:sg_common.obj
 0001:0002e6f0       _sg_createMutex            1002f6f0 f   libsg_MSVC160_vc:sg_common.obj
 0001:0002e710       _sg_createSemaphore        1002f710 f   libsg_MSVC160_vc:sg_common.obj
 0001:0002e730       _sg_createThread           1002f730 f   libsg_MSVC160_vc:sg_common.obj
 0001:0002e770       _sg_destroyMutex           1002f770 f   libsg_MSVC160_vc:sg_common.obj
 0001:0002e790       _sg_destroySemaphore       1002f790 f   libsg_MSVC160_vc:sg_common.obj
 0001:0002e7b0       _sg_destroyThread          1002f7b0 f   libsg_MSVC160_vc:sg_common.obj
 0001:0002e7e0       _sg_detectPciDevice        1002f7e0 f   libsg_MSVC160_vc:sg_common.obj
 0001:0002e810       _sg_doesFsNodeExist        1002f810 f   libsg_MSVC160_vc:sg_common.obj
 0001:0002e830       _sg_findPciDevice          1002f830 f   libsg_MSVC160_vc:sg_common.obj
 0001:0002eb60       _sg_fullFile               1002fb60 f   libsg_MSVC160_vc:sg_common.obj
 0001:0002ec30       _sg_getConfigBaseDir       1002fc30 f   libsg_MSVC160_vc:sg_common.obj
 0001:0002ec70       _sg_getElapsedTime         1002fc70 f   libsg_MSVC160_vc:sg_common.obj
 0001:0002ec90       _sg_getModelBaseDir        1002fc90 f   libsg_MSVC160_vc:sg_common.obj
 0001:0002ecd0       _sg_lockMutex              1002fcd0 f   libsg_MSVC160_vc:sg_common.obj
 0001:0002ecf0       _sg_mapIo                  1002fcf0 f   libsg_MSVC160_vc:sg_common.obj
 0001:0002ed10       _sg_mapMemory              1002fd10 f   libsg_MSVC160_vc:sg_common.obj
 0001:0002ed40       _sg_releaseSemaphore       1002fd40 f   libsg_MSVC160_vc:sg_common.obj
 0001:0002ed60       _sg_setAbilities           1002fd60 f   libsg_MSVC160_vc:sg_common.obj
 0001:0002ed70       _sg_setDriveLetter         1002fd70 f   libsg_MSVC160_vc:sg_common.obj
 0001:0002ed80       _sg_showPciDevice          1002fd80 f   libsg_MSVC160_vc:sg_common.obj
 0001:0002ee60       _sg_tryLockMutex           1002fe60 f   libsg_MSVC160_vc:sg_common.obj
 0001:0002ee80       _sg_unlockMutex            1002fe80 f   libsg_MSVC160_vc:sg_common.obj
 0001:0002eea0       _sg_waitForSemaphore       1002fea0 f   libsg_MSVC160_vc:sg_common.obj
 0001:0002eec0       _sg_wait_ns                1002fec0 f   libsg_MSVC160_vc:sg_common.obj
 0001:0002ef20       _sg_wait_s                 1002ff20 f   libsg_MSVC160_vc:sg_common.obj
 0001:0002ef50       _sprintf_s                 1002ff50 f i libsg_MSVC160_vc:sg_common.obj
 0001:0002ef90       _sg_getCpuTemperature      1002ff90 f   libsg_MSVC160_vc:sg_target.obj
 0001:0002efc0       _sg_getTargetMatlabVersion 1002ffc0 f   libsg_MSVC160_vc:sg_target.obj
 0001:0002f250       _sg_target_getHostLinkMac  10030250 f   libsg_MSVC160_vc:sg_target.obj
 0001:0002f290       _sg_target_getTccActivationTemp 10030290 f   libsg_MSVC160_vc:sg_target.obj
 0001:0002f2a0       ?MurmurHash3_x64_128@@YAXPBXHIPAX@Z 100302a0 f   libsg_MSVC160_vc:MurmurHash3.obj
 0001:0002f800       ?MurmurHash3_x86_128@@YAXPBXHIPAX@Z 10030800 f   libsg_MSVC160_vc:MurmurHash3.obj
 0001:0002fbe0       ?MurmurHash3_x86_32@@YAXPBXHIPAX@Z 10030be0 f   libsg_MSVC160_vc:MurmurHash3.obj
 0001:0002fcd0       __ftoui3                   10030cd0 f   LIBCMT:ftol3.obj
 0001:0002fd16       __ftoul3                   10030d16 f   LIBCMT:ftol3.obj
 0001:0002fd88       __ftol3                    10030d88 f   LIBCMT:ftol3.obj
 0001:0002fdf5       __dtoui3                   10030df5 f   LIBCMT:ftol3.obj
 0001:0002fe69       __dtoul3                   10030e69 f   LIBCMT:ftol3.obj
 0001:0002ff0b       __dtol3                    10030f0b f   LIBCMT:ftol3.obj
 0001:0002ffc0       __ultod3                   10030fc0 f   LIBCMT:ftol3.obj
 0001:00030020       __ltod3                    10031020 f   LIBCMT:ftol3.obj
 0001:00030145       ___raise_securityfailure   10031145 f   LIBCMT:gs_report.obj
 0001:00030177       ___report_gsfailure        10031177 f   LIBCMT:gs_report.obj
 0001:000302ae       ___report_rangecheckfailure 100312ae f   LIBCMT:gs_report.obj
 0001:000302bd       ___report_securityfailure  100312bd f   LIBCMT:gs_report.obj
 0001:000303be       ___report_securityfailureEx 100313be f   LIBCMT:gs_report.obj
 0001:00030517       @__security_check_cookie@4 10031517 f   LIBCMT:secchk.obj
 0001:0003052c       ___isa_available_init      1003152c f   LIBCMT:cpu_disp.obj
 0001:00030b7d       __CRT_INIT@12              10031b7d f   LIBCMT:dll_dllmain.obj
 0001:00030b88       __DllMainCRTStartup@12     10031b88 f   LIBCMT:dll_dllmain.obj
 0001:00030bb3       ??2@YAPAXI@Z               10031bb3 f   LIBCMT:new_scalar.obj
 0001:00030bef       ??3@YAXPAXI@Z              10031bef f   LIBCMT:delete_scalar_size.obj
 0001:00030c00       ??_U@YAPAXI@Z              10031c00 f   LIBCMT:new_array.obj
 0001:00030c0b       ??_V@YAXPAX@Z              10031c0b f   LIBCMT:delete_array.obj
 0001:00030c10       ??1type_info@@UAE@XZ       10031c10 f   LIBCMT:std_type_info_static.obj
 0001:00030c17       ??_Gtype_info@@UAEPAXI@Z   10031c17 f i LIBCMT:std_type_info_static.obj
 0001:00030c17       ??_Etype_info@@UAEPAXI@Z   10031c17 f i LIBCMT:std_type_info_static.obj
 0001:00030c50       __allmul                   10031c50 f   LIBCMT:llmul.obj
 0001:00030cf1       ___security_init_cookie    10031cf1 f   LIBCMT:gs_support.obj
 0001:00030d4e       ?__scrt_initialize_type_info@@YAXXZ 10031d4e f   LIBCMT:tncleanup.obj
 0001:00030d5d       ?__scrt_uninitialize_type_info@@YAXXZ 10031d5d f   LIBCMT:tncleanup.obj
 0001:00030d6c       ___local_stdio_scanf_options 10031d6c f i LIBCMT:default_local_stdio_options.obj
 0001:00030d72       ___scrt_initialize_default_local_stdio_options 10031d72 f   LIBCMT:default_local_stdio_options.obj
 0001:00030d96       ?configure_argv@__scrt_narrow_argv_policy@@SAHXZ 10031d96 f i LIBCMT:utility.obj
 0001:00030dfb       ?initialize_environment@__scrt_narrow_environment_policy@@SAHXZ 10031dfb f i LIBCMT:utility.obj
 0001:00030e41       _NtCurrentTeb              10031e41 f i LIBCMT:utility.obj
 0001:00030e48       ___scrt_acquire_startup_lock 10031e48 f   LIBCMT:utility.obj
 0001:00030e86       ___scrt_dllmain_after_initialize_c 10031e86 f   LIBCMT:utility.obj
 0001:00030ebb       ___scrt_dllmain_before_initialize_c 10031ebb f   LIBCMT:utility.obj
 0001:00030ecc       ___scrt_dllmain_crt_thread_attach 10031ecc f   LIBCMT:utility.obj
 0001:00030ef2       ___scrt_dllmain_crt_thread_detach 10031ef2 f   LIBCMT:utility.obj
 0001:00030f02       ___scrt_dllmain_exception_filter 10031f02 f   LIBCMT:utility.obj
 0001:00030f43       ___scrt_dllmain_uninitialize_c 10031f43 f   LIBCMT:utility.obj
 0001:00030f6e       ___scrt_dllmain_uninitialize_critical 10031f6e f   LIBCMT:utility.obj
 0001:00030f7e       ___scrt_initialize_crt     10031f7e f   LIBCMT:utility.obj
 0001:00030fc5       ___scrt_initialize_onexit_tables 10031fc5 f   LIBCMT:utility.obj
 0001:0003106d       ___scrt_is_nonwritable_in_current_image 1003206d f   LIBCMT:utility.obj
 0001:00031126       ___scrt_release_startup_lock 10032126 f   LIBCMT:utility.obj
 0001:0003114a       ___scrt_uninitialize_crt   1003214a f   LIBCMT:utility.obj
 0001:0003117c       __onexit                   1003217c f   LIBCMT:utility.obj
 0001:000311b4       _at_quick_exit             100321b4 f   LIBCMT:utility.obj
 0001:000311df       _atexit                    100321df f   LIBCMT:utility.obj
 0001:000311f9       ___scrt_get_dyn_tls_init_callback 100321f9 f   LIBCMT:dyn_tls_init.obj
 0001:000311ff       ___scrt_fastfail           100321ff f   LIBCMT:utility_desktop.obj
 0001:0003135f       ___scrt_get_show_window_mode 1003235f f   LIBCMT:utility_desktop.obj
 0001:0003139c       ___scrt_initialize_mta     1003239c f   LIBCMT:utility_desktop.obj
 0001:000313a1       ___scrt_initialize_winrt   100323a1 f   LIBCMT:utility_desktop.obj
 0001:000313a4       ___scrt_is_managed_app     100323a4 f   LIBCMT:utility_desktop.obj
 0001:000313f7       ___scrt_set_unhandled_exception_filter 100323f7 f   LIBCMT:utility_desktop.obj
 0001:00031406       ___scrt_stub_for_initialize_mta 10032406 f   LIBCMT:utility_desktop.obj
 0001:00031406       ___scrt_exe_initialize_mta 10032406 f   LIBCMT:utility_desktop.obj
 0001:00031409       ___scrt_unhandled_exception_filter@4 10032409 f   LIBCMT:utility_desktop.obj
 0001:00031474       __crt_debugger_hook        10032474 f   LIBCMT:utility_desktop.obj
 0001:0003147e       __RTC_Initialize           1003247e f   LIBCMT:initsect.obj
 0001:000314b5       __RTC_Terminate            100324b5 f   LIBCMT:initsect.obj
 0001:000314f0       __SEH_prolog4              100324f0 f   LIBCMT:sehprolg4.obj
 0001:00031534       __SEH_epilog4              10032534 f   LIBCMT:sehprolg4.obj
 0001:0003155e       @_guard_check_icall_nop@4  1003255e f i LIBCMT:guard_support.obj
 0001:00031561       _ReadNoFence               10032561 f i LIBCMT:guard_support.obj
 0001:0003156d       _ReadPointerNoFence        1003256d f i LIBCMT:guard_support.obj
 0001:00031579       __guard_icall_checks_enforced 10032579 f i LIBCMT:guard_support.obj
 0001:0003158f       ??0bad_alloc@std@@AAE@QBD@Z 1003258f f i LIBCMT:throw_bad_alloc.obj
 0001:000315b3       ??0bad_alloc@std@@QAE@XZ   100325b3 f i LIBCMT:throw_bad_alloc.obj
 0001:000315d1       ??0exception@std@@QAE@QBDH@Z 100325d1 f i LIBCMT:throw_bad_alloc.obj
 0001:000315f5       ??1bad_alloc@std@@UAE@XZ   100325f5 f i LIBCMT:throw_bad_alloc.obj
 0001:0003160a       ?__scrt_throw_std_bad_alloc@@YAXXZ 1003260a f   LIBCMT:throw_bad_alloc.obj
 0001:0003162e       ?__scrt_throw_std_bad_array_new_length@@YAXXZ 1003262e f   LIBCMT:throw_bad_alloc.obj
 0001:00031652       ??3@YAXPAX@Z               10032652 f   LIBCMT:delete_scalar.obj
 0001:00031657       __get_startup_argv_mode    10032657 f   LIBCMT:argv_mode.obj
 0001:0003165b       ___scrt_is_ucrt_dll_in_use 1003265b f   LIBCMT:ucrt_detection.obj
 0001:0003166a       ??0_Init_locks@std@@QAE@XZ 1003266a f   libcpmt:xlock.obj
 0001:000316a2       ??0_Lockit@std@@QAE@H@Z    100326a2 f   libcpmt:xlock.obj
 0001:000316df       ??0_Lockit@std@@QAE@XZ     100326df f   libcpmt:xlock.obj
 0001:000316f1       ??1_Init_locks@std@@QAE@XZ 100326f1 f   libcpmt:xlock.obj
 0001:00031721       ??1_Lockit@std@@QAE@XZ     10032721 f   libcpmt:xlock.obj
 0001:00031747       ?_Init_locks_ctor@_Init_locks@std@@CAXPAV12@@Z 10032747 f   libcpmt:xlock.obj
 0001:00031777       ?_Init_locks_dtor@_Init_locks@std@@CAXPAV12@@Z 10032777 f   libcpmt:xlock.obj
 0001:000317a7       ?_Lockit_ctor@_Lockit@std@@CAXPAV12@@Z 100327a7 f   libcpmt:xlock.obj
 0001:000317b6       ?_Lockit_ctor@_Lockit@std@@CAXPAV12@H@Z 100327b6 f   libcpmt:xlock.obj
 0001:000317e9       ?_Lockit_ctor@_Lockit@std@@SAXH@Z 100327e9 f   libcpmt:xlock.obj
 0001:00031816       ?_Lockit_dtor@_Lockit@std@@CAXPAV12@@Z 10032816 f   libcpmt:xlock.obj
 0001:00031832       ?_Lockit_dtor@_Lockit@std@@SAXH@Z 10032832 f   libcpmt:xlock.obj
 0001:0003185f       __Lock_at_thread_exit_mutex 1003285f f   libcpmt:xlock.obj
 0001:0003186e       __Unlock_at_thread_exit_mutex 1003286e f   libcpmt:xlock.obj
 0001:0003187d       ?uncaught_exception@std@@YA_NXZ 1003287d f   libcpmt:uncaught_exception.obj
 0001:00031882       ??0bad_function_call@std@@QAE@ABV01@@Z 10032882 f i libcpmt:xthrow.obj
 0001:000318a3       ??0bad_function_call@std@@QAE@XZ 100328a3 f i libcpmt:xthrow.obj
 0001:000318b8       ??0exception@std@@QAE@QBD@Z 100328b8 f i libcpmt:xthrow.obj
 0001:000318fa       ??0exception@std@@QAE@XZ   100328fa f i libcpmt:xthrow.obj
 0001:0003190f       ??0invalid_argument@std@@QAE@ABV01@@Z 1003290f f i libcpmt:xthrow.obj
 0001:00031930       ??0invalid_argument@std@@QAE@PBD@Z 10032930 f i libcpmt:xthrow.obj
 0001:00031956       ??0length_error@std@@QAE@ABV01@@Z 10032956 f i libcpmt:xthrow.obj
 0001:00031977       ??0length_error@std@@QAE@PBD@Z 10032977 f i libcpmt:xthrow.obj
 0001:0003199d       ??0logic_error@std@@QAE@ABV01@@Z 1003299d f i libcpmt:xthrow.obj
 0001:000319be       ??0logic_error@std@@QAE@PBD@Z 100329be f i libcpmt:xthrow.obj
 0001:000319e4       ??0out_of_range@std@@QAE@ABV01@@Z 100329e4 f i libcpmt:xthrow.obj
 0001:00031a05       ??0out_of_range@std@@QAE@PBD@Z 10032a05 f i libcpmt:xthrow.obj
 0001:00031a2b       ??0overflow_error@std@@QAE@ABV01@@Z 10032a2b f i libcpmt:xthrow.obj
 0001:00031a4c       ??0overflow_error@std@@QAE@PBD@Z 10032a4c f i libcpmt:xthrow.obj
 0001:00031a72       ??0regex_error@std@@QAE@ABV01@@Z 10032a72 f i libcpmt:xthrow.obj
 0001:00031a9f       ??0regex_error@std@@QAE@W4error_type@regex_constants@1@@Z 10032a9f f i libcpmt:xthrow.obj
 0001:00031ad8       ??0runtime_error@std@@QAE@PBD@Z 10032ad8 f i libcpmt:xthrow.obj
 0001:00031afe       ??1bad_function_call@std@@UAE@XZ 10032afe f i libcpmt:xthrow.obj
 0001:00031b13       ??1invalid_argument@std@@UAE@XZ 10032b13 f i libcpmt:xthrow.obj
 0001:00031b28       ??1length_error@std@@UAE@XZ 10032b28 f i libcpmt:xthrow.obj
 0001:00031b3d       ??1logic_error@std@@UAE@XZ 10032b3d f i libcpmt:xthrow.obj
 0001:00031b52       ??1out_of_range@std@@UAE@XZ 10032b52 f i libcpmt:xthrow.obj
 0001:00031b67       ??1overflow_error@std@@UAE@XZ 10032b67 f i libcpmt:xthrow.obj
 0001:00031b7c       ??1regex_error@std@@UAE@XZ 10032b7c f i libcpmt:xthrow.obj
 0001:00031b91       ??1runtime_error@std@@UAE@XZ 10032b91 f i libcpmt:xthrow.obj
 0001:00031ba6       ??_Gbad_function_call@std@@UAEPAXI@Z 10032ba6 f i libcpmt:xthrow.obj
 0001:00031ba6       ??_Ebad_function_call@std@@UAEPAXI@Z 10032ba6 f i libcpmt:xthrow.obj
 0001:00031bde       ??_Ginvalid_argument@std@@UAEPAXI@Z 10032bde f i libcpmt:xthrow.obj
 0001:00031bde       ??_Einvalid_argument@std@@UAEPAXI@Z 10032bde f i libcpmt:xthrow.obj
 0001:00031c16       ??_Glength_error@std@@UAEPAXI@Z 10032c16 f i libcpmt:xthrow.obj
 0001:00031c16       ??_Elength_error@std@@UAEPAXI@Z 10032c16 f i libcpmt:xthrow.obj
 0001:00031c4e       ??_Glogic_error@std@@UAEPAXI@Z 10032c4e f i libcpmt:xthrow.obj
 0001:00031c4e       ??_Elogic_error@std@@UAEPAXI@Z 10032c4e f i libcpmt:xthrow.obj
 0001:00031c86       ??_Gout_of_range@std@@UAEPAXI@Z 10032c86 f i libcpmt:xthrow.obj
 0001:00031c86       ??_Eout_of_range@std@@UAEPAXI@Z 10032c86 f i libcpmt:xthrow.obj
 0001:00031cbe       ??_Goverflow_error@std@@UAEPAXI@Z 10032cbe f i libcpmt:xthrow.obj
 0001:00031cbe       ??_Eoverflow_error@std@@UAEPAXI@Z 10032cbe f i libcpmt:xthrow.obj
 0001:00031cf6       ??_Eregex_error@std@@UAEPAXI@Z 10032cf6 f i libcpmt:xthrow.obj
 0001:00031cf6       ??_Gregex_error@std@@UAEPAXI@Z 10032cf6 f i libcpmt:xthrow.obj
 0001:00031d2e       ?_Stringify@regex_error@std@@CAPBDW4error_type@regex_constants@2@@Z 10032d2e f i libcpmt:xthrow.obj
 0001:00031e1e       ?_Xbad_alloc@std@@YAXXZ    10032e1e f   libcpmt:xthrow.obj
 0001:00031e42       ?_Xbad_function_call@std@@YAXXZ 10032e42 f   libcpmt:xthrow.obj
 0001:00031e66       ?_Xinvalid_argument@std@@YAXPBD@Z 10032e66 f   libcpmt:xthrow.obj
 0001:00031e8e       ?_Xlength_error@std@@YAXPBD@Z 10032e8e f   libcpmt:xthrow.obj
 0001:00031eb6       ?_Xout_of_range@std@@YAXPBD@Z 10032eb6 f   libcpmt:xthrow.obj
 0001:00031ede       ?_Xoverflow_error@std@@YAXPBD@Z 10032ede f   libcpmt:xthrow.obj
 0001:00031f06       ?_Xregex_error@std@@YAXW4error_type@regex_constants@1@@Z 10032f06 f   libcpmt:xthrow.obj
 0001:00031f2e       ?_Xruntime_error@std@@YAXPBD@Z 10032f2e f   libcpmt:xthrow.obj
 0001:00031f56       ?what@bad_function_call@std@@UBEPBDXZ 10032f56 f i libcpmt:xthrow.obj
 0001:00031f5c       ??$?0$$V@?$_Compressed_pair@V?$allocator@D@std@@V?$_String_val@U?$_Simple_types@D@std@@@2@$00@std@@QAE@U_Zero_then_variadic_args_t@1@@Z 10032f5c f i libcpmt:xonce.obj
 0001:00031f6c       ??$?0V?$allocator@D@std@@$$V@?$_Compressed_pair@V?$allocator@D@std@@V?$_String_val@U?$_Simple_types@D@std@@@2@$00@std@@QAE@U_One_then_variadic_args_t@1@$$QAV?$allocator@D@1@@Z 10032f6c f i libcpmt:xonce.obj
 0001:00031f7c       ??$_Atomic_address_as@$$CBJ$$CBU?$_Atomic_padded@I@std@@@std@@YAPDJABU?$_Atomic_padded@I@0@@Z 10032f7c f i libcpmt:xonce.obj
 0001:00031f86       ??$_Atomic_address_as@JU?$_Atomic_padded@I@std@@@std@@YAPCJAAU?$_Atomic_padded@I@0@@Z 10032f86 f i libcpmt:xonce.obj
 0001:00031f90       ??$_Atomic_reinterpret_as@HI@std@@YAHABI@Z 10032f90 f i libcpmt:xonce.obj
 0001:00031f9c       ??$_Atomic_reinterpret_as@JI@std@@YAJABI@Z 10032f9c f i libcpmt:xonce.obj
 0001:00031fa8       ??$_Convert_size@I@std@@YAII@Z 10032fa8 f i libcpmt:xonce.obj
 0001:00031fb2       ??$_Get_size_of_n@$00@std@@YAII@Z 10032fb2 f i libcpmt:xonce.obj
 0001:00031fbc       ??$_Immortalize_memcpy_image@V_Generic_error_category@std@@@std@@YAABV_Generic_error_category@0@XZ 10032fbc f i libcpmt:xonce.obj
 0001:00031fe7       ??$_Immortalize_memcpy_image@V_System_error_category@std@@@std@@YAABV_System_error_category@0@XZ 10032fe7 f i libcpmt:xonce.obj
 0001:00032012       ??$_Reallocate_for@V<lambda_1>@?1??assign@?$basic_string@DU?$char_traits@D@std@@V?$allocator@D@2@@std@@QAEAAV34@QBDI@Z@PBD@?$basic_string@DU?$char_traits@D@std@@V?$allocator@D@2@@std@@AAEAAV01@IV<lambda_1>@?1??assign@01@QAEAAV01@QBDI@Z@PBD@Z 10033012 f i libcpmt:xonce.obj
 0001:0003209e       ??$_Reallocate_grow_by@V<lambda_1>@?1??append@?$basic_string@DU?$char_traits@D@std@@V?$allocator@D@2@@std@@QAEAAV34@QBDI@Z@PBDI@?$basic_string@DU?$char_traits@D@std@@V?$allocator@D@2@@std@@AAEAAV01@IV<lambda_1>@?1??append@01@QAEAAV01@QBDI@Z@PBDI@Z 1003309e f i libcpmt:xonce.obj
 0001:00032180       ??$_Unfancy@D@std@@YAPADPAD@Z 10033180 f i libcpmt:xonce.obj
 0001:0003218a       ??$addressof@$$CBV?$_String_val@U?$_Simple_types@D@std@@@std@@@std@@YAPBV?$_String_val@U?$_Simple_types@D@std@@@0@ABV10@@Z 1003318a f i libcpmt:xonce.obj
 0001:00032194       ??$addressof@$$CBV_Generic_error_category@std@@@std@@YAPBV_Generic_error_category@0@ABV10@@Z 10033194 f i libcpmt:xonce.obj
 0001:0003219e       ??$addressof@$$CBV_System_error_category@std@@@std@@YAPBV_System_error_category@0@ABV10@@Z 1003319e f i libcpmt:xonce.obj
 0001:000321a8       ??$addressof@PAD@std@@YAPAPADAAPAD@Z 100331a8 f i libcpmt:xonce.obj
 0001:000321b2       ??$addressof@V?$_String_val@U?$_Simple_types@D@std@@@std@@@std@@YAPAV?$_String_val@U?$_Simple_types@D@std@@@0@AAV10@@Z 100331b2 f i libcpmt:xonce.obj
 0001:000321bc       ??$forward@ABQAD@std@@YAABQADABQAD@Z 100331bc f i libcpmt:xonce.obj
 0001:000321c6       ??$forward@V?$allocator@D@std@@@std@@YA$$QAV?$allocator@D@0@AAV10@@Z 100331c6 f i libcpmt:xonce.obj
 0001:000321d0       ??$max@I@std@@YAABIABI0@Z  100331d0 f i libcpmt:xonce.obj
 0001:000321ea       ??$min@I@std@@YAABIABI0@Z  100331ea f i libcpmt:xonce.obj
 0001:00032204       ??$move@AAV?$allocator@D@std@@@std@@YA$$QAV?$allocator@D@0@AAV10@@Z 10033204 f i libcpmt:xonce.obj
 0001:0003220e       ??0?$_String_val@U?$_Simple_types@D@std@@@std@@QAE@XZ 1003320e f i libcpmt:xonce.obj
 0001:0003221b       ??0?$allocator@D@std@@QAE@XZ 1003321b f i libcpmt:xonce.obj
 0001:0003221e       ??0?$basic_string@DU?$char_traits@D@std@@V?$allocator@D@2@@std@@QAE@$$QAV01@@Z 1003321e f i libcpmt:xonce.obj
 0001:0003225b       ??0?$basic_string@DU?$char_traits@D@std@@V?$allocator@D@2@@std@@QAE@ABV01@@Z 1003325b f i libcpmt:xonce.obj
 0001:0003227f       ??0?$basic_string@DU?$char_traits@D@std@@V?$allocator@D@2@@std@@QAE@QBD@Z 1003327f f i libcpmt:xonce.obj
 0001:000322aa       ??0?$basic_string@DU?$char_traits@D@std@@V?$allocator@D@2@@std@@QAE@QBDI@Z 100332aa f i libcpmt:xonce.obj
 0001:000322d9       ??0_Bxty@?$_String_val@U?$_Simple_types@D@std@@@std@@QAE@XZ 100332d9 f i libcpmt:xonce.obj
 0001:000322dc       ??0_Fake_proxy_ptr_impl@std@@QAE@ABU_Fake_allocator@1@ABU_Container_base0@1@@Z 100332dc f i libcpmt:xonce.obj
 0001:000322e1       ??0_Generic_error_category@std@@QAE@XZ 100332e1 f i libcpmt:xonce.obj
 0001:000322f5       ??0_System_error_category@std@@QAE@XZ 100332f5 f i libcpmt:xonce.obj
 0001:00032309       ??0_System_error_message@std@@QAE@K@Z 10033309 f i libcpmt:xonce.obj
 0001:0003232c       ??0error_category@std@@IAE@I@Z 1003332c f i libcpmt:xonce.obj
 0001:0003233e       ??0error_code@std@@QAE@HABVerror_category@1@@Z 1003333e f i libcpmt:xonce.obj
 0001:00032357       ??0error_condition@std@@QAE@HABVerror_category@1@@Z 10033357 f i libcpmt:xonce.obj
 0001:00032370       ??0runtime_error@std@@QAE@ABV?$basic_string@DU?$char_traits@D@std@@V?$allocator@D@2@@1@@Z 10033370 f i libcpmt:xonce.obj
 0001:000323a2       ??0system_error@std@@QAE@Verror_code@1@@Z 100333a2 f i libcpmt:xonce.obj
 0001:00032451       ??1?$_Compressed_pair@V?$allocator@D@std@@V?$_String_val@U?$_Simple_types@D@std@@@2@$00@std@@QAE@XZ 10033451 f i libcpmt:xonce.obj
 0001:00032454       ??1?$_String_val@U?$_Simple_types@D@std@@@std@@QAE@XZ 10033454 f i libcpmt:xonce.obj
 0001:00032457       ??1_Bxty@?$_String_val@U?$_Simple_types@D@std@@@std@@QAE@XZ 10033457 f i libcpmt:xonce.obj
 0001:0003245a       ??1_Generic_error_category@std@@UAE@XZ 1003345a f i libcpmt:xonce.obj
 0001:0003245d       ??1_System_error@std@@UAE@XZ 1003345d f i libcpmt:xonce.obj
 0001:00032472       ??1_System_error_category@std@@UAE@XZ 10033472 f i libcpmt:xonce.obj
 0001:00032475       ??1_System_error_message@std@@QAE@XZ 10033475 f i libcpmt:xonce.obj
 0001:0003247f       ??2@YAPAXIPAX@Z            1003347f f i libcpmt:xonce.obj
 0001:00032489       ??8error_category@std@@QBE_NABV01@@Z 10033489 f i libcpmt:xonce.obj
 0001:000324a0       ??8std@@YA_NABVerror_condition@0@0@Z 100334a0 f i libcpmt:xonce.obj
 0001:000324d0       ??R<lambda_1>@?1??append@?$basic_string@DU?$char_traits@D@std@@V?$allocator@D@2@@std@@QAEAAV23@QBDI@Z@QBEXQAD0I0I@Z 100334d0 f i libcpmt:xonce.obj
 0001:0003250d       ??R<lambda_1>@?1??assign@?$basic_string@DU?$char_traits@D@std@@V?$allocator@D@2@@std@@QAEAAV23@QBDI@Z@QBEXQADI0@Z 1003350d f i libcpmt:xonce.obj
 0001:00032537       ??_G_System_error_category@std@@UAEPAXI@Z 10033537 f i libcpmt:xonce.obj
 0001:00032537       ??_E_System_error_category@std@@UAEPAXI@Z 10033537 f i libcpmt:xonce.obj
 0001:0003255b       ?_Adjust_manually_vector_aligned@std@@YAXAAPAXAAI@Z 1003355b f i libcpmt:xonce.obj
 0001:00032588       ?_Alloc_proxy@_Container_base0@std@@QAEXABU_Fake_allocator@2@@Z 10033588 f i libcpmt:xonce.obj
 0001:0003258b       ?_Allocate@_Default_allocate_traits@std@@SAPAXI@Z 1003358b f i libcpmt:xonce.obj
 0001:00032596       ?_Calculate_growth@?$basic_string@DU?$char_traits@D@std@@V?$allocator@D@2@@std@@ABEII@Z 10033596 f i libcpmt:xonce.obj
 0001:000325b6       ?_Calculate_growth@?$basic_string@DU?$char_traits@D@std@@V?$allocator@D@2@@std@@CAIIII@Z 100335b6 f i libcpmt:xonce.obj
 0001:000325f2       ?_Construct_lv_contents@?$basic_string@DU?$char_traits@D@std@@V?$allocator@D@2@@std@@AAEXABV12@@Z 100335f2 f i libcpmt:xonce.obj
 0001:00032674       ?_Execute_once@std@@YAHAAUonce_flag@1@P6GHPAX1PAPAX@Z1@Z 10033674 f   libcpmt:xonce.obj
 0001:00032692       ?_Get_first@?$_Compressed_pair@V?$allocator@D@std@@V?$_String_val@U?$_Simple_types@D@std@@@2@$00@std@@QAEAAV?$allocator@D@2@XZ 10033692 f i libcpmt:xonce.obj
 0001:00032695       ?_Get_first@?$_Compressed_pair@V?$allocator@D@std@@V?$_String_val@U?$_Simple_types@D@std@@@2@$00@std@@QBEABV?$allocator@D@2@XZ 10033695 f i libcpmt:xonce.obj
 0001:00032698       ?_Getal@?$basic_string@DU?$char_traits@D@std@@V?$allocator@D@2@@std@@AAEAAV?$allocator@D@2@XZ 10033698 f i libcpmt:xonce.obj
 0001:0003269b       ?_Getal@?$basic_string@DU?$char_traits@D@std@@V?$allocator@D@2@@std@@ABEABV?$allocator@D@2@XZ 1003369b f i libcpmt:xonce.obj
 0001:0003269e       ?_Large_string_engaged@?$_String_val@U?$_Simple_types@D@std@@@std@@QBE_NXZ 1003369e f i libcpmt:xonce.obj
 0001:000326a9       ?_Load_barrier@std@@YAXW4memory_order@1@@Z 100336a9 f i libcpmt:xonce.obj
 0001:000326b6       ?_Makestr@_System_error@std@@CA?AV?$basic_string@DU?$char_traits@D@std@@V?$allocator@D@2@@2@Verror_code@2@V32@@Z 100336b6 f i libcpmt:xonce.obj
 0001:00032745       ?_Memcpy_val_from@?$basic_string@DU?$char_traits@D@std@@V?$allocator@D@2@@std@@AAEXABV12@@Z 10033745 f i libcpmt:xonce.obj
 0001:0003275f       ?_Myptr@?$_String_val@U?$_Simple_types@D@std@@@std@@QAEPADXZ 1003375f f i libcpmt:xonce.obj
 0001:0003276c       ?_Myptr@?$_String_val@U?$_Simple_types@D@std@@@std@@QBEPBDXZ 1003376c f i libcpmt:xonce.obj
 0001:00032779       ?_Orphan_all@_Container_base0@std@@QAEXXZ 10033779 f i libcpmt:xonce.obj
 0001:0003277c       ?_Release@_Fake_proxy_ptr_impl@std@@QAEXXZ 1003377c f i libcpmt:xonce.obj
 0001:0003277f       ?_Take_contents@?$basic_string@DU?$char_traits@D@std@@V?$allocator@D@2@@std@@AAEXAAV12@U?$integral_constant@_N$00@2@@Z 1003377f f i libcpmt:xonce.obj
 0001:000327ad       ?_Tidy_deallocate@?$basic_string@DU?$char_traits@D@std@@V?$allocator@D@2@@std@@AAEXXZ 100337ad f i libcpmt:xonce.obj
 0001:000327dc       ?_Tidy_init@?$basic_string@DU?$char_traits@D@std@@V?$allocator@D@2@@std@@AAEXXZ 100337dc f i libcpmt:xonce.obj
 0001:000327ee       ?_XGetLastError@std@@YAXXZ 100337ee f   libcpmt:xonce.obj
 0001:00032837       ?_Xlen_string@std@@YAXXZ   10033837 f i libcpmt:xonce.obj
 0001:00032844       ?append@?$basic_string@DU?$char_traits@D@std@@V?$allocator@D@2@@std@@QAEAAV12@ABV12@@Z 10033844 f i libcpmt:xonce.obj
 0001:00032867       ?append@?$basic_string@DU?$char_traits@D@std@@V?$allocator@D@2@@std@@QAEAAV12@QBD@Z 10033867 f i libcpmt:xonce.obj
 0001:00032890       ?assign@?$_Narrow_char_traits@DH@std@@SAXAADABD@Z 10033890 f i libcpmt:xonce.obj
 0001:000328a2       ?assign@?$basic_string@DU?$char_traits@D@std@@V?$allocator@D@2@@std@@QAEAAV12@QBD@Z 100338a2 f i libcpmt:xonce.obj
 0001:000328cb       ?c_str@?$basic_string@DU?$char_traits@D@std@@V?$allocator@D@2@@std@@QBEPBDXZ 100338cb f i libcpmt:xonce.obj
 0001:000328d8       ?category@error_code@std@@QBEABVerror_category@2@XZ 100338d8 f i libcpmt:xonce.obj
 0001:000328dc       ?category@error_condition@std@@QBEABVerror_category@2@XZ 100338dc f i libcpmt:xonce.obj
 0001:000328e0       ?copy@?$_Narrow_char_traits@DH@std@@SAPADQADQBDI@Z 100338e0 f i libcpmt:xonce.obj
 0001:000328eb       ?deallocate@?$allocator@D@std@@QAEXQADI@Z 100338eb f i libcpmt:xonce.obj
 0001:00032904       ?default_error_condition@_System_error_category@std@@UBE?AVerror_condition@2@H@Z 10033904 f i libcpmt:xonce.obj
 0001:00032981       ?empty@?$basic_string@DU?$char_traits@D@std@@V?$allocator@D@2@@std@@QBE_NXZ 10033981 f i libcpmt:xonce.obj
 0001:0003298b       ?generic_category@std@@YAABVerror_category@1@XZ 1003398b f i libcpmt:xonce.obj
 0001:00032990       ?length@?$_Narrow_char_traits@DH@std@@SAIQBD@Z 10033990 f i libcpmt:xonce.obj
 0001:000329a9       ?load@?$_Atomic_storage@I$03@std@@QBEIW4memory_order@2@@Z 100339a9 f i libcpmt:xonce.obj
 0001:000329bb       ?max@?$numeric_limits@H@std@@SAHXZ 100339bb f i libcpmt:xonce.obj
 0001:000329c1       ?max_size@?$_Default_allocator_traits@V?$allocator@D@std@@@std@@SAIABV?$allocator@D@2@@Z 100339c1 f i libcpmt:xonce.obj
 0001:000329c5       ?max_size@?$basic_string@DU?$char_traits@D@std@@V?$allocator@D@2@@std@@QBEIXZ 100339c5 f i libcpmt:xonce.obj
 0001:000329cb       ?message@_System_error_category@std@@UBE?AV?$basic_string@DU?$char_traits@D@std@@V?$allocator@D@2@@2@H@Z 100339cb f i libcpmt:xonce.obj
 0001:00032a55       ?message@error_code@std@@QBE?AV?$basic_string@DU?$char_traits@D@std@@V?$allocator@D@2@@2@XZ 10033a55 f i libcpmt:xonce.obj
 0001:00032a85       ?move@?$_Narrow_char_traits@DH@std@@SAPADQADQBDI@Z 10033a85 f i libcpmt:xonce.obj
 0001:00032a90       ?name@_System_error_category@std@@UBEPBDXZ 10033a90 f i libcpmt:xonce.obj
 0001:00032a96       ?select_on_container_copy_construction@?$_Default_allocator_traits@V?$allocator@D@std@@@std@@SA?AV?$allocator@D@2@ABV32@@Z 10033a96 f i libcpmt:xonce.obj
 0001:00032aa0       ?size@?$basic_string@DU?$char_traits@D@std@@V?$allocator@D@2@@std@@QBEIXZ 10033aa0 f i libcpmt:xonce.obj
 0001:00032aa4       ?store@?$_Atomic_storage@I$03@std@@QAEXI@Z 10033aa4 f i libcpmt:xonce.obj
 0001:00032ab3       ?store@?$_Atomic_storage@I$03@std@@QAEXIW4memory_order@2@@Z 10033ab3 f i libcpmt:xonce.obj
 0001:00032adb       ?system_category@std@@YAABVerror_category@1@XZ 10033adb f i libcpmt:xonce.obj
 0001:00032ae0       ?value@error_code@std@@QBEHXZ 10033ae0 f i libcpmt:xonce.obj
 0001:00032ae3       ?value@error_condition@std@@QBEHXZ 10033ae3 f i libcpmt:xonce.obj
 0001:00032ae6       ?_Syserror_map@std@@YAPBDH@Z 10033ae6 f   libcpmt:syserror.obj
 0001:00032b14       ?_Winerror_map@std@@YAHH@Z 10033b14 f   libcpmt:syserror.obj
 0001:00032b3e       ?_Winerror_message@std@@YAKKPADK@Z 10033b3e f   libcpmt:syserror.obj
 0001:00032b6e       ??0?$_Yarn@D@std@@QAE@PBD@Z 10033b6e f i libcpmt:locale0.obj
 0001:00032b91       ??0_Fac_node@std@@QAE@PAU01@PAV_Facet_base@1@@Z 10033b91 f i libcpmt:locale0.obj
 0001:00032baa       ??0_Facet_base@std@@QAE@XZ 10033baa f i libcpmt:locale0.obj
 0001:00032bb5       ??0_Locimp@locale@std@@AAE@ABV012@@Z 10033bb5 f i libcpmt:locale0.obj
 0001:00032c39       ??0_Locimp@locale@std@@AAE@_N@Z 10033c39 f i libcpmt:locale0.obj
 0001:00032c8a       ??0facet@locale@std@@IAE@I@Z 10033c8a f i libcpmt:locale0.obj
 0001:00032ca9       ??0id@locale@std@@QAE@I@Z  10033ca9 f i libcpmt:locale0.obj
 0001:00032cba       ??0locale@std@@AAE@PAV_Locimp@01@@Z 10033cba f i libcpmt:locale0.obj
 0001:00032ccc       ??0locale@std@@QAE@W4_Uninitialized@1@@Z 10033ccc f i libcpmt:locale0.obj
 0001:00032cd1       ??1_Fac_node@std@@QAE@XZ   10033cd1 f i libcpmt:locale0.obj
 0001:00032d0e       ??1_Fac_tidy_reg_t@std@@QAE@XZ 10033d0e f i libcpmt:locale0.obj
 0001:00032d3e       ??1_Locimp@locale@std@@MAE@XZ 10033d3e f i libcpmt:locale0.obj
 0001:00032d73       ??4?$_Yarn@D@std@@QAEAAV01@PBD@Z 10033d73 f i libcpmt:locale0.obj
 0001:00032ddc       ??_G_Fac_node@std@@QAEPAXI@Z 10033ddc f i libcpmt:locale0.obj
 0001:00032e06       ??_E_Locimp@locale@std@@MAEPAXI@Z 10033e06 f i libcpmt:locale0.obj
 0001:00032e06       ??_G_Locimp@locale@std@@MAEPAXI@Z 10033e06 f i libcpmt:locale0.obj
 0001:00032e30       ?_C_str@?$_Yarn@D@std@@QBEPBDXZ 10033e30 f i libcpmt:locale0.obj
 0001:00032e3c       ?_Empty@?$_Yarn@D@std@@QBE_NXZ 10033e3c f i libcpmt:locale0.obj
 0001:00032e43       ?_Facet_Register@std@@YAXPAV_Facet_base@1@@Z 10033e43 f   libcpmt:locale0.obj
 0001:00032e7a       ?_Getgloballocale@locale@std@@CAPAV_Locimp@12@XZ 10033e7a f   libcpmt:locale0.obj
 0001:00032e80       ?_Init@locale@std@@CAPAV_Locimp@12@_N@Z 10033e80 f   libcpmt:locale0.obj
 0001:00032f34       ?_Locimp_dtor@_Locimp@locale@std@@CAXPAV123@@Z 10033f34 f   libcpmt:locale0.obj
 0001:00032fc0       ?_Locinfo_ctor@_Locinfo@std@@SAXPAV12@PBD@Z 10033fc0 f   libcpmt:locale0.obj
 0001:0003301d       ?_Locinfo_dtor@_Locinfo@std@@SAXPAV12@@Z 1003401d f   libcpmt:locale0.obj
 0001:0003303d       ?_New_Locimp@_Locimp@locale@std@@CAPAV123@ABV123@@Z 1003403d f   libcpmt:locale0.obj
 0001:00033079       ?_New_Locimp@_Locimp@locale@std@@CAPAV123@_N@Z 10034079 f   libcpmt:locale0.obj
 0001:000330a4       ?_Setgloballocale@locale@std@@CAXPAX@Z 100340a4 f   libcpmt:locale0.obj
 0001:000330d6       ?_Tidy@?$_Yarn@D@std@@AAEXXZ 100340d6 f i libcpmt:locale0.obj
 0001:000330f0       ?c_str@?$_Yarn@D@std@@QBEPBDXZ 100340f0 f i libcpmt:locale0.obj
 0001:000330fc       ?classic@locale@std@@SAABV12@XZ 100340fc f   libcpmt:locale0.obj
 0001:0003310d       ?empty@locale@std@@SA?AV12@XZ 1003410d f   libcpmt:locale0.obj
 0001:00033131       __Deletegloballocale       10034131 f   libcpmt:locale0.obj
 0001:000331ae       __Getctype                 100341ae f   libcpmt:_tolower.obj
 0001:00033233       __Tolower                  10034233 f   libcpmt:_tolower.obj
 0001:00033370       __Getcvt                   10034370 f   libcpmt:xwctomb.obj
 0001:000333ff       __Wcrtomb                  100343ff f   libcpmt:xwctomb.obj
 0001:00033472       ___Wcrtomb_lk              10034472 f   libcpmt:xwctomb.obj
 0001:0003347d       __Toupper                  1003447d f   libcpmt:_toupper.obj
 0001:000335ba       __Mtxdst                   100345ba f   libcpmt:xmtx.obj
 0001:000335cb       __Mtxinit                  100345cb f   libcpmt:xmtx.obj
 0001:000335e7       __Mtxlock                  100345e7 f   libcpmt:xmtx.obj
 0001:000335f8       __Mtxunlock                100345f8 f   libcpmt:xmtx.obj
 0001:00033971       ___crtAcquireSRWLockExclusive 10034971 f   libcpmt:winapisupp.obj
 0001:00033991       ___crtCloseThreadpoolTimer 10034991 f   libcpmt:winapisupp.obj
 0001:000339b6       ___crtCloseThreadpoolWait  100349b6 f   libcpmt:winapisupp.obj
 0001:000339db       ___crtCloseThreadpoolWork  100349db f   libcpmt:winapisupp.obj
 0001:000339fb       ___crtCreateEventExW       100349fb f   libcpmt:winapisupp.obj
 0001:00033a4d       ___crtCreateSemaphoreExW   10034a4d f   libcpmt:winapisupp.obj
 0001:00033ab4       ___crtCreateSymbolicLinkW  10034ab4 f   libcpmt:winapisupp.obj
 0001:00033af0       ___crtCreateThreadpoolTimer 10034af0 f   libcpmt:winapisupp.obj
 0001:00033b22       ___crtCreateThreadpoolWait 10034b22 f   libcpmt:winapisupp.obj
 0001:00033b54       ___crtCreateThreadpoolWork 10034b54 f   libcpmt:winapisupp.obj
 0001:00033b7c       ___crtFlsAlloc             10034b7c f   libcpmt:winapisupp.obj
 0001:00033bab       ___crtFlsFree              10034bab f   libcpmt:winapisupp.obj
 0001:00033bda       ___crtFlsGetValue          10034bda f   libcpmt:winapisupp.obj
 0001:00033c09       ___crtFlsSetValue          10034c09 f   libcpmt:winapisupp.obj
 0001:00033c3c       ___crtFlushProcessWriteBuffers 10034c3c f   libcpmt:winapisupp.obj
 0001:00033c58       ___crtFreeLibraryWhenCallbackReturns 10034c58 f   libcpmt:winapisupp.obj
 0001:00033c81       ___crtGetCurrentProcessorNumber 10034c81 f   libcpmt:winapisupp.obj
 0001:00033ca2       ___crtGetFileInformationByHandleEx 10034ca2 f   libcpmt:winapisupp.obj
 0001:00033ce1       ___crtGetSystemTimePreciseAsFileTime 10034ce1 f   libcpmt:winapisupp.obj
 0001:00033d10       ___crtGetTickCount64       10034d10 f   libcpmt:winapisupp.obj
 0001:00033d39       ___crtInitOnceExecuteOnce  10034d39 f   libcpmt:winapisupp.obj
 0001:00033de5       ___crtInitializeConditionVariable 10034de5 f   libcpmt:winapisupp.obj
 0001:00033e05       ___crtInitializeCriticalSectionEx 10034e05 f   libcpmt:winapisupp.obj
 0001:00033e47       ___crtInitializeSRWLock    10034e47 f   libcpmt:winapisupp.obj
 0001:00033e67       ___crtIsPackagedApp        10034e67 f   libcpmt:winapisupp.obj
 0001:00033e8d       ___crtReleaseSRWLockExclusive 10034e8d f   libcpmt:winapisupp.obj
 0001:00033ead       ___crtSetFileInformationByHandle 10034ead f   libcpmt:winapisupp.obj
 0001:00033eec       ___crtSetThreadpoolTimer   10034eec f   libcpmt:winapisupp.obj
 0001:00033f1c       ___crtSetThreadpoolWait    10034f1c f   libcpmt:winapisupp.obj
 0001:00033f49       ___crtSleepConditionVariableCS 10034f49 f   libcpmt:winapisupp.obj
 0001:00033f71       ___crtSleepConditionVariableSRW 10034f71 f   libcpmt:winapisupp.obj
 0001:00033f9c       ___crtSubmitThreadpoolWork 10034f9c f   libcpmt:winapisupp.obj
 0001:00033fbc       ___crtTryAcquireSRWLockExclusive 10034fbc f   libcpmt:winapisupp.obj
 0001:00033fdc       ___crtWaitForThreadpoolTimerCallbacks 10034fdc f   libcpmt:winapisupp.obj
 0001:00034005       ___crtWakeAllConditionVariable 10035005 f   libcpmt:winapisupp.obj
 0001:00034025       ___crtWakeConditionVariable 10035025 f   libcpmt:winapisupp.obj
 0001:00034045       ___crt_IsPackagedAppHelper 10035045 f   libcpmt:winapisupp.obj
 0001:00034094       ___std_get_string_size_without_trailing_whitespace@8 10035094 f   libcpmt:syserror_import_lib.obj
 0001:000340c1       ___std_system_error_allocate_message@8 100350c1 f   libcpmt:syserror_import_lib.obj
 0001:000340f4       ___std_system_error_deallocate_message@4 100350f4 f   libcpmt:syserror_import_lib.obj
 0001:000340fa       ??$?0AAPAV_Facet_base@std@@@?$_Compressed_pair@U?$default_delete@V_Facet_base@std@@@std@@PAV_Facet_base@2@$00@std@@QAE@U_Zero_then_variadic_args_t@1@AAPAV_Facet_base@1@@Z 100350fa f i libcpmt:locale.obj
 0001:0003410e       ??$?0U?$default_delete@V_Facet_base@std@@@std@@$0A@@?$unique_ptr@V_Facet_base@std@@U?$default_delete@V_Facet_base@std@@@2@@std@@QAE@PAV_Facet_base@1@@Z 1003510e f i libcpmt:locale.obj
 0001:0003411f       ??$?0U?$integral_constant@_N$00@std@@@_Unused_parameter@std@@QAE@$$QAU?$integral_constant@_N$00@1@@Z 1003511f f i libcpmt:locale.obj
 0001:00034124       ??$?8DU?$char_traits@D@std@@@std@@YA_NABV?$istreambuf_iterator@DU?$char_traits@D@std@@@0@0@Z 10035124 f i libcpmt:locale.obj
 0001:00034138       ??$?9DU?$char_traits@D@std@@@std@@YA_NABV?$istreambuf_iterator@DU?$char_traits@D@std@@@0@0@Z 10035138 f i libcpmt:locale.obj
 0001:00034153       ??$_Adl_verify_range@PADPBD@std@@YAXABQADABQBD@Z 10035153 f i libcpmt:locale.obj
 0001:00034156       ??$_Adl_verify_range@PBDPBD@std@@YAXABQBD0@Z 10035156 f i libcpmt:locale.obj
 0001:00034159       ??$_Adl_verify_range@V?$istreambuf_iterator@DU?$char_traits@D@std@@@std@@V12@@std@@YAXABV?$istreambuf_iterator@DU?$char_traits@D@std@@@0@0@Z 10035159 f i libcpmt:locale.obj
 0001:0003415c       ??$_Find_elem@D$0BL@@std@@YAIAAY0BL@$$CBDD@Z 1003515c f i libcpmt:locale.obj
 0001:0003418a       ??$_Find_elem@D$0BN@@std@@YAIAAY0BN@$$CBDD@Z 1003518a f i libcpmt:locale.obj
 0001:000341b8       ??$_Find_elem@D$0P@@std@@YAIAAY0P@$$CBDD@Z 100351b8 f i libcpmt:locale.obj
 0001:000341e6       ??$_Find_unchecked1@PBDD@std@@YAPBDPBDQBDABDU?$integral_constant@_N$00@0@@Z 100351e6 f i libcpmt:locale.obj
 0001:00034214       ??$_Find_unchecked1@PBDD@std@@YAPBDPBDQBDABDU?$integral_constant@_N$0A@@0@@Z 10035214 f i libcpmt:locale.obj
 0001:00034239       ??$_Find_unchecked@PBDD@std@@YAPBDQBD0ABD@Z 10035239 f i libcpmt:locale.obj
 0001:0003425e       ??$_Getloctxt@DV?$istreambuf_iterator@DU?$char_traits@D@std@@@std@@@std@@YAHAAV?$istreambuf_iterator@DU?$char_traits@D@std@@@0@0IPBD@Z 1003525e f i libcpmt:locale.obj
 0001:00034485       ??$_Getvals@D@?$numpunct@D@std@@IAEXDPBUlconv@@U_Cvtvec@@@Z 10035485 f i libcpmt:locale.obj
 0001:000344a4       ??$_Reallocate_for@V<lambda_1>@?1??assign@?$basic_string@DU?$char_traits@D@std@@V?$allocator@D@2@@std@@QAEAAV34@ID@Z@D@?$basic_string@DU?$char_traits@D@std@@V?$allocator@D@2@@std@@AAEAAV01@IV<lambda_1>@?1??assign@01@QAEAAV01@ID@Z@D@Z 100354a4 f i libcpmt:locale.obj
 0001:00034532       ??$_Reallocate_grow_by@V<lambda_1>@?1??append@?$basic_string@DU?$char_traits@D@std@@V?$allocator@D@2@@std@@QAEAAV34@ID@Z@ID@?$basic_string@DU?$char_traits@D@std@@V?$allocator@D@2@@std@@AAEAAV01@IV<lambda_1>@?1??append@01@QAEAAV01@ID@Z@ID@Z 10035532 f i libcpmt:locale.obj
 0001:0003461d       ??$_Reallocate_grow_by@V<lambda_1>@?1??insert@?$basic_string@DU?$char_traits@D@std@@V?$allocator@D@2@@std@@QAEAAV34@IID@Z@IID@?$basic_string@DU?$char_traits@D@std@@V?$allocator@D@2@@std@@AAEAAV01@IV<lambda_1>@?1??insert@01@QAEAAV01@IID@Z@IID@Z 1003561d f i libcpmt:locale.obj
 0001:000346d3       ??$_Reallocate_grow_by@V<lambda_1>@?1??push_back@?$basic_string@DU?$char_traits@D@std@@V?$allocator@D@2@@std@@QAEXD@Z@D@?$basic_string@DU?$char_traits@D@std@@V?$allocator@D@2@@std@@AAEAAV01@IV<lambda_1>@?1??push_back@01@QAEXD@Z@D@Z 100356d3 f i libcpmt:locale.obj
 0001:000347a7       ??$_Within_limits@D@std@@YA_NABDU?$integral_constant@_N$00@0@1U_Unused_parameter@0@@Z 100357a7 f i libcpmt:locale.obj
 0001:000347aa       ??$_Within_limits@PBDD@std@@YA_NPBDABD@Z 100357aa f i libcpmt:locale.obj
 0001:000347ad       ??$addressof@V?$basic_string@DU?$char_traits@D@std@@V?$allocator@D@2@@std@@@std@@YAPAV?$basic_string@DU?$char_traits@D@std@@V?$allocator@D@2@@0@AAV10@@Z 100357ad f i libcpmt:locale.obj
 0001:000347b7       ??$begin@$$CBD$0BL@@std@@YAPBDAAY0BL@$$CBD@Z 100357b7 f i libcpmt:locale.obj
 0001:000347c1       ??$begin@$$CBD$0BN@@std@@YAPBDAAY0BN@$$CBD@Z 100357c1 f i libcpmt:locale.obj
 0001:000347cb       ??$begin@$$CBD$0P@@std@@YAPBDAAY0P@$$CBD@Z 100357cb f i libcpmt:locale.obj
 0001:000347d5       ??$end@$$CBD$0BL@@std@@YAPBDAAY0BL@$$CBD@Z 100357d5 f i libcpmt:locale.obj
 0001:000347e2       ??$end@$$CBD$0BN@@std@@YAPBDAAY0BN@$$CBD@Z 100357e2 f i libcpmt:locale.obj
 0001:000347ef       ??$end@$$CBD$0P@@std@@YAPBDAAY0P@$$CBD@Z 100357ef f i libcpmt:locale.obj
 0001:000347fc       ??$forward@AAPAV_Facet_base@std@@@std@@YAAAPAV_Facet_base@0@AAPAV10@@Z 100357fc f i libcpmt:locale.obj
 0001:00034806       ??$min@H@std@@YAABHABH0@Z  10035806 f i libcpmt:locale.obj
 0001:00034820       ??$move@AAV?$basic_string@DU?$char_traits@D@std@@V?$allocator@D@2@@std@@@std@@YA$$QAV?$basic_string@DU?$char_traits@D@std@@V?$allocator@D@2@@0@AAV10@@Z 10035820 f i libcpmt:locale.obj
 0001:0003482a       ??$use_facet@V?$codecvt@DDU_Mbstatet@@@std@@@std@@YAABV?$codecvt@DDU_Mbstatet@@@0@ABVlocale@0@@Z 1003582a f i libcpmt:locale.obj
 0001:000348e4       ??$use_facet@V?$num_get@DV?$istreambuf_iterator@DU?$char_traits@D@std@@@std@@@std@@@std@@YAABV?$num_get@DV?$istreambuf_iterator@DU?$char_traits@D@std@@@std@@@0@ABVlocale@0@@Z 100358e4 f i libcpmt:locale.obj
 0001:0003499e       ??0?$_Yarn@D@std@@QAE@XZ   1003599e f i libcpmt:locale.obj
 0001:000349aa       ??0?$_Yarn@_W@std@@QAE@XZ  100359aa f i libcpmt:locale.obj
 0001:000349b9       ??0?$basic_string@DU?$char_traits@D@std@@V?$allocator@D@2@@std@@QAE@XZ 100359b9 f i libcpmt:locale.obj
 0001:000349ce       ??0?$codecvt@DDU_Mbstatet@@@std@@QAE@ABV_Locinfo@1@I@Z 100359ce f i libcpmt:locale.obj
 0001:000349ed       ??0?$ctype@D@std@@QAE@ABV_Locinfo@1@I@Z 100359ed f i libcpmt:locale.obj
 0001:00034a30       ??0?$num_get@DV?$istreambuf_iterator@DU?$char_traits@D@std@@@std@@@std@@QAE@ABV_Locinfo@1@I@Z 10035a30 f i libcpmt:locale.obj
 0001:00034a4f       ??0?$num_put@DV?$ostreambuf_iterator@DU?$char_traits@D@std@@@std@@@std@@QAE@ABV_Locinfo@1@I@Z 10035a4f f i libcpmt:locale.obj
 0001:00034a6e       ??0?$numpunct@D@std@@QAE@ABV_Locinfo@1@I_N@Z 10035a6e f i libcpmt:locale.obj
 0001:00034ab1       ??0bad_cast@std@@QAE@XZ    10035ab1 f i libcpmt:locale.obj
 0001:00034acf       ??0codecvt_base@std@@QAE@I@Z 10035acf f i libcpmt:locale.obj
 0001:00034aee       ??0ctype_base@std@@QAE@I@Z 10035aee f i libcpmt:locale.obj
 0001:00034b0d       ??0locale@std@@QAE@ABV01@@Z 10035b0d f i libcpmt:locale.obj
 0001:00034b42       ??0locale@std@@QAE@XZ      10035b42 f i libcpmt:locale.obj
 0001:00034b98       ??1?$codecvt@DDU_Mbstatet@@@std@@MAE@XZ 10035b98 f i libcpmt:locale.obj
 0001:00034b9f       ??1?$num_get@DV?$istreambuf_iterator@DU?$char_traits@D@std@@@std@@@std@@MAE@XZ 10035b9f f i libcpmt:locale.obj
 0001:00034ba6       ??1codecvt_base@std@@UAE@XZ 10035ba6 f i libcpmt:locale.obj
 0001:00034bad       ??1ctype_base@std@@UAE@XZ  10035bad f i libcpmt:locale.obj
 0001:00034bb4       ??4?$basic_string@DU?$char_traits@D@std@@V?$allocator@D@2@@std@@QAEAAV01@$$QAV01@@Z 10035bb4 f i libcpmt:locale.obj
 0001:00034bde       ??4?$ostreambuf_iterator@DU?$char_traits@D@std@@@std@@QAEAAV01@D@Z 10035bde f i libcpmt:locale.obj
 0001:00034c0b       ??A?$basic_string@DU?$char_traits@D@std@@V?$allocator@D@2@@std@@QAEAADI@Z 10035c0b f i libcpmt:locale.obj
 0001:00034c24       ??A?$basic_string@DU?$char_traits@D@std@@V?$allocator@D@2@@std@@QBEABDI@Z 10035c24 f i libcpmt:locale.obj
 0001:00034c3d       ??Bid@locale@std@@QAEIXZ   10035c3d f i libcpmt:locale.obj
 0001:00034c7f       ??D?$istreambuf_iterator@DU?$char_traits@D@std@@@std@@QBEDXZ 10035c7f f i libcpmt:locale.obj
 0001:00034c96       ??D?$ostreambuf_iterator@DU?$char_traits@D@std@@@std@@QAEAAV01@XZ 10035c96 f i libcpmt:locale.obj
 0001:00034c99       ??E?$istreambuf_iterator@DU?$char_traits@D@std@@@std@@QAEAAV01@XZ 10035c99 f i libcpmt:locale.obj
 0001:00034ca8       ??E?$ostreambuf_iterator@DU?$char_traits@D@std@@@std@@QAEAAV01@XZ 10035ca8 f i libcpmt:locale.obj
 0001:00034cab       ??R<lambda_1>@?1??append@?$basic_string@DU?$char_traits@D@std@@V?$allocator@D@2@@std@@QAEAAV23@ID@Z@QBEXQADQBDIID@Z 10035cab f i libcpmt:locale.obj
 0001:00034cea       ??R<lambda_1>@?1??assign@?$basic_string@DU?$char_traits@D@std@@V?$allocator@D@2@@std@@QAEAAV23@ID@Z@QBEXQADID@Z 10035cea f i libcpmt:locale.obj
 0001:00034d17       ??R<lambda_1>@?1??insert@?$basic_string@DU?$char_traits@D@std@@V?$allocator@D@2@@std@@QAEAAV23@IID@Z@QBEXQADQBDIIID@Z 10035d17 f i libcpmt:locale.obj
 0001:00034d72       ??R<lambda_1>@?1??push_back@?$basic_string@DU?$char_traits@D@std@@V?$allocator@D@2@@std@@QAEXD@Z@QBEXQADQBDID@Z 10035d72 f i libcpmt:locale.obj
 0001:00034da5       ??R?$default_delete@V_Facet_base@std@@@std@@QBEXPAV_Facet_base@1@@Z 10035da5 f i libcpmt:locale.obj
 0001:00034dd2       ??Y?$basic_string@DU?$char_traits@D@std@@V?$allocator@D@2@@std@@QAEAAV01@ABV01@@Z 10035dd2 f i libcpmt:locale.obj
 0001:00034ddd       ??_E?$codecvt@DDU_Mbstatet@@@std@@MAEPAXI@Z 10035ddd f i libcpmt:locale.obj
 0001:00034ddd       ??_G?$codecvt@DDU_Mbstatet@@@std@@MAEPAXI@Z 10035ddd f i libcpmt:locale.obj
 0001:00034e08       ??_G?$num_get@DV?$istreambuf_iterator@DU?$char_traits@D@std@@@std@@@std@@MAEPAXI@Z 10035e08 f i libcpmt:locale.obj
 0001:00034e08       ??_E?$num_get@DV?$istreambuf_iterator@DU?$char_traits@D@std@@@std@@@std@@MAEPAXI@Z 10035e08 f i libcpmt:locale.obj
 0001:00034e33       ??_Gcodecvt_base@std@@UAEPAXI@Z 10035e33 f i libcpmt:locale.obj
 0001:00034e33       ??_Ecodecvt_base@std@@UAEPAXI@Z 10035e33 f i libcpmt:locale.obj
 0001:00034e5e       ?_Addfac@_Locimp@locale@std@@AAEXPAVfacet@23@I@Z 10035e5e f i libcpmt:locale.obj
 0001:00034e79       ?_Check_offset@?$_String_val@U?$_Simple_types@D@std@@@std@@QBEXI@Z 10035e79 f i libcpmt:locale.obj
 0001:00034e93       ?_Eos@?$basic_string@DU?$char_traits@D@std@@V?$allocator@D@2@@std@@AAEXI@Z 10035e93 f i libcpmt:locale.obj
 0001:00034eb4       ?_Get_first@?$_Compressed_pair@U?$default_delete@V_Facet_base@std@@@std@@PAV_Facet_base@2@$00@std@@QAEAAU?$default_delete@V_Facet_base@std@@@2@XZ 10035eb4 f i libcpmt:locale.obj
 0001:00034eb7       ?_Getcat@?$codecvt@DDU_Mbstatet@@@std@@SAIPAPBVfacet@locale@2@PBV42@@Z 10035eb7 f i libcpmt:locale.obj
 0001:00034f39       ?_Getcat@?$ctype@D@std@@SAIPAPBVfacet@locale@2@PBV42@@Z 10035f39 f i libcpmt:locale.obj
 0001:00034fb8       ?_Getcat@?$num_get@DV?$istreambuf_iterator@DU?$char_traits@D@std@@@std@@@std@@SAIPAPBVfacet@locale@2@PBV42@@Z 10035fb8 f i libcpmt:locale.obj
 0001:0003503a       ?_Getcat@?$num_put@DV?$ostreambuf_iterator@DU?$char_traits@D@std@@@std@@@std@@SAIPAPBVfacet@locale@2@PBV42@@Z 1003603a f i libcpmt:locale.obj
 0001:000350bc       ?_Getcat@?$numpunct@D@std@@SAIPAPBVfacet@locale@2@PBV42@@Z 100360bc f i libcpmt:locale.obj
 0001:00035155       ?_Getctype@_Locinfo@std@@QBE?AU_Ctypevec@@XZ 10036155 f i libcpmt:locale.obj
 0001:00035180       ?_Getcvt@_Locinfo@std@@QBE?AU_Cvtvec@@XZ 10036180 f i libcpmt:locale.obj
 0001:000351ad       ?_Getfacet@locale@std@@QBEPBVfacet@12@I@Z 100361ad f i libcpmt:locale.obj
 0001:000351f8       ?_Getfalse@_Locinfo@std@@QBEPBDXZ 100361f8 f i libcpmt:locale.obj
 0001:000351fe       ?_Getffld@?$num_get@DV?$istreambuf_iterator@DU?$char_traits@D@std@@@std@@@std@@ABAHPADAAV?$istreambuf_iterator@DU?$char_traits@D@std@@@2@1AAVios_base@2@PAH@Z 100361fe f i libcpmt:locale.obj
 0001:00035a57       ?_Getffldx@?$num_get@DV?$istreambuf_iterator@DU?$char_traits@D@std@@@std@@@std@@ABAHPADAAV?$istreambuf_iterator@DU?$char_traits@D@std@@@2@1AAVios_base@2@PAH@Z 10036a57 f i libcpmt:locale.obj
 0001:000362d4       ?_Getifld@?$num_get@DV?$istreambuf_iterator@DU?$char_traits@D@std@@@std@@@std@@ABAHPADAAV?$istreambuf_iterator@DU?$char_traits@D@std@@@2@1HABVlocale@2@@Z 100372d4 f i libcpmt:locale.obj
 0001:00036782       ?_Getlconv@_Locinfo@std@@QBEPBUlconv@@XZ 10037782 f i libcpmt:locale.obj
 0001:00036787       ?_Getname@_Locinfo@std@@QBEPBDXZ 10037787 f i libcpmt:locale.obj
 0001:00036794       ?_Gettrue@_Locinfo@std@@QBEPBDXZ 10037794 f i libcpmt:locale.obj
 0001:0003679a       ?_Gnavail@?$basic_streambuf@DU?$char_traits@D@std@@@std@@IBE_JXZ 1003779a f i libcpmt:locale.obj
 0001:000367b0       ?_Gninc@?$basic_streambuf@DU?$char_traits@D@std@@@std@@IAEPADXZ 100377b0 f i libcpmt:locale.obj
 0001:000367c4       ?_Ifmt@?$num_put@DV?$ostreambuf_iterator@DU?$char_traits@D@std@@@std@@@std@@ABAPADPADPBDH@Z 100377c4 f i libcpmt:locale.obj
 0001:00036856       ?_Inc@?$istreambuf_iterator@DU?$char_traits@D@std@@@std@@AAEXXZ 10037856 f i libcpmt:locale.obj
 0001:0003687f       ?_Init@?$codecvt@DDU_Mbstatet@@@std@@IAEXABV_Locinfo@2@@Z 1003787f f i libcpmt:locale.obj
 0001:00036882       ?_Init@?$ctype@D@std@@IAEXABV_Locinfo@2@@Z 10037882 f i libcpmt:locale.obj
 0001:000368ad       ?_Init@?$num_get@DV?$istreambuf_iterator@DU?$char_traits@D@std@@@std@@@std@@IAEXABV_Locinfo@2@@Z 100378ad f i libcpmt:locale.obj
 0001:000368b0       ?_Init@?$num_put@DV?$ostreambuf_iterator@DU?$char_traits@D@std@@@std@@@std@@IAEXABV_Locinfo@2@@Z 100378b0 f i libcpmt:locale.obj
 0001:000368b3       ?_Init@?$numpunct@D@std@@IAEXABV_Locinfo@2@_N@Z 100378b3 f i libcpmt:locale.obj
 0001:00036980       ?_Locimp_Addfac@_Locimp@locale@std@@CAXPAV123@PAVfacet@23@I@Z 10037980 f   libcpmt:locale.obj
 0001:00036a77       ?_Locimp_ctor@_Locimp@locale@std@@CAXPAV123@ABV123@@Z 10037a77 f   libcpmt:locale.obj
 0001:00036b5b       ?_Locinfo_Addcats@_Locinfo@std@@SAAAV12@PAV12@HPBD@Z 10037b5b f   libcpmt:locale.obj
 0001:00036c29       ?_Locinfo_ctor@_Locinfo@std@@SAXPAV12@HPBD@Z 10037c29 f   libcpmt:locale.obj
 0001:00036c6c       ?_Makeloc@_Locimp@locale@std@@CAPAV123@ABV_Locinfo@3@HPAV123@PBV23@@Z 10037c6c f   libcpmt:locale.obj
 0001:00036f0b       ?_Move_assign@?$basic_string@DU?$char_traits@D@std@@V?$allocator@D@2@@std@@AAEXAAV12@U_Equal_allocators@2@@Z 10037f0b f i libcpmt:locale.obj
 0001:00036f3f       ?_Peek@?$istreambuf_iterator@DU?$char_traits@D@std@@@std@@ABEDXZ 10037f3f f i libcpmt:locale.obj
 0001:00036f6c       ?_Pnavail@?$basic_streambuf@DU?$char_traits@D@std@@@std@@IBE_JXZ 10037f6c f i libcpmt:locale.obj
 0001:00036f82       ?_Pninc@?$basic_streambuf@DU?$char_traits@D@std@@@std@@IAEPADXZ 10037f82 f i libcpmt:locale.obj
 0001:00036f96       ?_Stodx_v2@std@@YANPBDPAPADHPAH@Z 10037f96 f i libcpmt:locale.obj
 0001:00036ffb       ?_Stofx_v2@std@@YAMPBDPAPADHPAH@Z 10037ffb f i libcpmt:locale.obj
 0001:0003706a       ?_Throw_bad_cast@std@@YAXXZ 1003806a f i libcpmt:locale.obj
 0001:0003708e       ?_Tidy@?$_Yarn@_W@std@@AAEXXZ 1003808e f i libcpmt:locale.obj
 0001:000370a8       ?_Tidy@?$ctype@D@std@@IAEXXZ 100380a8 f i libcpmt:locale.obj
 0001:000370dc       ?_Tidy@?$numpunct@D@std@@AAEXXZ 100380dc f i libcpmt:locale.obj
 0001:00037104       ?append@?$basic_string@DU?$char_traits@D@std@@V?$allocator@D@2@@std@@QAEAAV12@ID@Z 10038104 f i libcpmt:locale.obj
 0001:00037172       ?assign@?$_Narrow_char_traits@DH@std@@SAPADQADID@Z 10038172 f i libcpmt:locale.obj
 0001:00037190       ?assign@?$basic_string@DU?$char_traits@D@std@@V?$allocator@D@2@@std@@QAEAAV12@$$QAV12@@Z 10038190 f i libcpmt:locale.obj
 0001:000371aa       ?assign@?$basic_string@DU?$char_traits@D@std@@V?$allocator@D@2@@std@@QAEAAV12@ID@Z 100381aa f i libcpmt:locale.obj
 0001:00037204       ?c_str@locale@std@@QBEPBDXZ 10038204 f i libcpmt:locale.obj
 0001:00037222       ?decimal_point@?$numpunct@D@std@@QBEDXZ 10038222 f i libcpmt:locale.obj
 0001:00037240       ?do_always_noconv@?$codecvt@DDU_Mbstatet@@@std@@MBE_NXZ 10038240 f i libcpmt:locale.obj
 0001:00037243       ?do_always_noconv@codecvt_base@std@@MBE_NXZ 10038243 f i libcpmt:locale.obj
 0001:00037246       ?do_encoding@codecvt_base@std@@MBEHXZ 10038246 f i libcpmt:locale.obj
 0001:0003724a       ?do_get@?$num_get@DV?$istreambuf_iterator@DU?$char_traits@D@std@@@std@@@std@@MBE?AV?$istreambuf_iterator@DU?$char_traits@D@std@@@2@V32@0AAVios_base@2@AAHAAG@Z 1003824a f i libcpmt:locale.obj
 0001:00037373       ?do_get@?$num_get@DV?$istreambuf_iterator@DU?$char_traits@D@std@@@std@@@std@@MBE?AV?$istreambuf_iterator@DU?$char_traits@D@std@@@2@V32@0AAVios_base@2@AAHAAI@Z 10038373 f i libcpmt:locale.obj
 0001:000373c6       ?do_get@?$num_get@DV?$istreambuf_iterator@DU?$char_traits@D@std@@@std@@@std@@MBE?AV?$istreambuf_iterator@DU?$char_traits@D@std@@@2@V32@0AAVios_base@2@AAHAAJ@Z 100383c6 f i libcpmt:locale.obj
 0001:000374bb       ?do_get@?$num_get@DV?$istreambuf_iterator@DU?$char_traits@D@std@@@std@@@std@@MBE?AV?$istreambuf_iterator@DU?$char_traits@D@std@@@2@V32@0AAVios_base@2@AAHAAK@Z 100384bb f i libcpmt:locale.obj
 0001:000375b0       ?do_get@?$num_get@DV?$istreambuf_iterator@DU?$char_traits@D@std@@@std@@@std@@MBE?AV?$istreambuf_iterator@DU?$char_traits@D@std@@@2@V32@0AAVios_base@2@AAHAAM@Z 100385b0 f i libcpmt:locale.obj
 0001:000376e9       ?do_get@?$num_get@DV?$istreambuf_iterator@DU?$char_traits@D@std@@@std@@@std@@MBE?AV?$istreambuf_iterator@DU?$char_traits@D@std@@@2@V32@0AAVios_base@2@AAHAAN@Z 100386e9 f i libcpmt:locale.obj
 0001:00037816       ?do_get@?$num_get@DV?$istreambuf_iterator@DU?$char_traits@D@std@@@std@@@std@@MBE?AV?$istreambuf_iterator@DU?$char_traits@D@std@@@2@V32@0AAVios_base@2@AAHAAO@Z 10038816 f i libcpmt:locale.obj
 0001:00037867       ?do_get@?$num_get@DV?$istreambuf_iterator@DU?$char_traits@D@std@@@std@@@std@@MBE?AV?$istreambuf_iterator@DU?$char_traits@D@std@@@2@V32@0AAVios_base@2@AAHAAPAX@Z 10038867 f i libcpmt:locale.obj
 0001:00037952       ?do_get@?$num_get@DV?$istreambuf_iterator@DU?$char_traits@D@std@@@std@@@std@@MBE?AV?$istreambuf_iterator@DU?$char_traits@D@std@@@2@V32@0AAVios_base@2@AAHAA_J@Z 10038952 f i libcpmt:locale.obj
 0001:00037a4f       ?do_get@?$num_get@DV?$istreambuf_iterator@DU?$char_traits@D@std@@@std@@@std@@MBE?AV?$istreambuf_iterator@DU?$char_traits@D@std@@@2@V32@0AAVios_base@2@AAHAA_K@Z 10038a4f f i libcpmt:locale.obj
 0001:00037b4c       ?do_get@?$num_get@DV?$istreambuf_iterator@DU?$char_traits@D@std@@@std@@@std@@MBE?AV?$istreambuf_iterator@DU?$char_traits@D@std@@@2@V32@0AAVios_base@2@AAHAA_N@Z 10038b4c f i libcpmt:locale.obj
 0001:00037e0e       ?do_in@?$codecvt@DDU_Mbstatet@@@std@@MBEHAAU_Mbstatet@@PBD1AAPBDPAD3AAPAD@Z 10038e0e f i libcpmt:locale.obj
 0001:00037e2e       ?do_length@?$codecvt@DDU_Mbstatet@@@std@@MBEHAAU_Mbstatet@@PBD1I@Z 10038e2e f i libcpmt:locale.obj
 0001:00037e48       ?do_max_length@codecvt_base@std@@MBEHXZ 10038e48 f i libcpmt:locale.obj
 0001:00037e4c       ?do_out@?$codecvt@DDU_Mbstatet@@@std@@MBEHAAU_Mbstatet@@PBD1AAPBDPAD3AAPAD@Z 10038e4c f i libcpmt:locale.obj
 0001:00037e6c       ?do_unshift@?$codecvt@DDU_Mbstatet@@@std@@MBEHAAU_Mbstatet@@PAD1AAPAD@Z 10038e6c f i libcpmt:locale.obj
 0001:00037e82       ?eof@?$_Narrow_char_traits@DH@std@@SAHXZ 10038e82 f i libcpmt:locale.obj
 0001:00037e86       ?eq_int_type@?$_Narrow_char_traits@DH@std@@SA_NABH0@Z 10038e86 f i libcpmt:locale.obj
 0001:00037e9c       ?equal@?$istreambuf_iterator@DU?$char_traits@D@std@@@std@@QBE_NABV12@@Z 10038e9c f i libcpmt:locale.obj
 0001:00037ee4       ?falsename@?$numpunct@D@std@@QBE?AV?$basic_string@DU?$char_traits@D@std@@V?$allocator@D@2@@2@XZ 10038ee4 f i libcpmt:locale.obj
 0001:00037f11       ?flags@ios_base@std@@QBEHXZ 10038f11 f i libcpmt:locale.obj
 0001:00037f15       ?getloc@ios_base@std@@QBE?AVlocale@2@XZ 10038f15 f i libcpmt:locale.obj
 0001:00037f2f       ?global@locale@std@@SA?AV12@ABV12@@Z 10038f2f f   libcpmt:locale.obj
 0001:00038051       ?gptr@?$basic_streambuf@DU?$char_traits@D@std@@@std@@IBEPADXZ 10039051 f i libcpmt:locale.obj
 0001:00038057       ?grouping@?$numpunct@D@std@@QBE?AV?$basic_string@DU?$char_traits@D@std@@V?$allocator@D@2@@2@XZ 10039057 f i libcpmt:locale.obj
 0001:00038084       ?insert@?$basic_string@DU?$char_traits@D@std@@V?$allocator@D@2@@std@@QAEAAV12@IID@Z 10039084 f i libcpmt:locale.obj
 0001:00038111       ?is_constant_evaluated@std@@YA_NXZ 10039111 f i libcpmt:locale.obj
 0001:00038114       ?precision@ios_base@std@@QBE_JXZ 10039114 f i libcpmt:locale.obj
 0001:0003811b       ?push_back@?$basic_string@DU?$char_traits@D@std@@V?$allocator@D@2@@std@@QAEXD@Z 1003911b f i libcpmt:locale.obj
 0001:00038161       ?release@?$unique_ptr@V_Facet_base@std@@U?$default_delete@V_Facet_base@std@@@2@@std@@QAEPAV_Facet_base@2@XZ 10039161 f i libcpmt:locale.obj
 0001:00038167       ?sbumpc@?$basic_streambuf@DU?$char_traits@D@std@@@std@@QAEHXZ 10039167 f i libcpmt:locale.obj
 0001:000381ae       ?sgetc@?$basic_streambuf@DU?$char_traits@D@std@@@std@@QAEHXZ 100391ae f i libcpmt:locale.obj
 0001:000381e7       ?sputc@?$basic_streambuf@DU?$char_traits@D@std@@@std@@QAEHD@Z 100391e7 f i libcpmt:locale.obj
 0001:00038246       ?thousands_sep@?$numpunct@D@std@@QBEDXZ 10039246 f i libcpmt:locale.obj
 0001:00038264       ?to_char_type@?$_Narrow_char_traits@DH@std@@SADABH@Z 10039264 f i libcpmt:locale.obj
 0001:00038270       ?to_int_type@?$_Narrow_char_traits@DH@std@@SAHABD@Z 10039270 f i libcpmt:locale.obj
 0001:0003827d       ?truename@?$numpunct@D@std@@QBE?AV?$basic_string@DU?$char_traits@D@std@@V?$allocator@D@2@@2@XZ 1003927d f i libcpmt:locale.obj
 0001:000382aa       ?widen@?$ctype@D@std@@QBEPBDPBD0PAD@Z 100392aa f i libcpmt:locale.obj
 0001:000382da       ?width@ios_base@std@@QAE_J_J@Z 100392da f i libcpmt:locale.obj
 0001:000382fb       ?width@ios_base@std@@QBE_JXZ 100392fb f i libcpmt:locale.obj
 0001:00038302       __vsprintf_s_l             10039302 f i libcpmt:locale.obj
 0001:0003833a       _fabsl                     1003933a f i libcpmt:locale.obj
 0001:00038346       _frexpl                    10039346 f i libcpmt:locale.obj
 0001:00038364       _ldexpf                    10039364 f i libcpmt:locale.obj
 0001:0003838a       _powf                      1003938a f i libcpmt:locale.obj
 0001:000383a6       ??1_Init_atexit@@QAE@XZ    100393a6 f i libcpmt:iosptrs.obj
 0001:00038428       ?_Atexit@@YAXP6AXXZ@Z      10039428 f   libcpmt:iosptrs.obj
 0001:00038462       ??0?$__crt_scoped_stack_ptr@_W@@QAE@U?$__crt_scoped_stack_ptr_tag@_W@@@Z 10039462 f i libcpmt:StlLCMapStringA.obj
 0001:00038473       ??0?$__crt_scoped_stack_ptr_tag@_W@@QAE@QA_W@Z 10039473 f i libcpmt:StlLCMapStringA.obj
 0001:00038484       ??1?$__crt_scoped_stack_ptr@_W@@QAE@XZ 10039484 f i libcpmt:StlLCMapStringA.obj
 0001:000384a3       ??B?$__crt_scoped_stack_ptr@_W@@QBE_NXZ 100394a3 f i libcpmt:StlLCMapStringA.obj
 0001:000384aa       ?get@?$__crt_scoped_stack_ptr@_W@@QBEPA_WXZ 100394aa f i libcpmt:StlLCMapStringA.obj
 0001:000384ad       __MallocaComputeSize       100394ad f i libcpmt:StlLCMapStringA.obj
 0001:000384c2       __MarkAllocaS              100394c2 f i libcpmt:StlLCMapStringA.obj
 0001:000384db       ___crtLCMapStringA         100394db f   libcpmt:StlLCMapStringA.obj
 0001:0003870e       __freea_crt                1003970e f i libcpmt:StlLCMapStringA.obj
 0001:00038733       ??$?0$$V@?$_Compressed_pair@V?$allocator@G@std@@V?$_String_val@U?$_Simple_types@G@std@@@2@$00@std@@QAE@U_Zero_then_variadic_args_t@1@@Z 10039733 f i libcpmt:wlocale.obj
 0001:00038743       ??$?0$$V@?$_Compressed_pair@V?$allocator@_W@std@@V?$_String_val@U?$_Simple_types@_W@std@@@2@$00@std@@QAE@U_Zero_then_variadic_args_t@1@@Z 10039743 f i libcpmt:wlocale.obj
 0001:00038753       ??$?0V?$allocator@G@std@@$$V@?$_Compressed_pair@V?$allocator@G@std@@V?$_String_val@U?$_Simple_types@G@std@@@2@$00@std@@QAE@U_One_then_variadic_args_t@1@$$QAV?$allocator@G@1@@Z 10039753 f i libcpmt:wlocale.obj
 0001:00038763       ??$?0V?$allocator@_W@std@@$$V@?$_Compressed_pair@V?$allocator@_W@std@@V?$_String_val@U?$_Simple_types@_W@std@@@2@$00@std@@QAE@U_One_then_variadic_args_t@1@$$QAV?$allocator@_W@1@@Z 10039763 f i libcpmt:wlocale.obj
 0001:00038773       ??$?8GU?$char_traits@G@std@@@std@@YA_NABV?$istreambuf_iterator@GU?$char_traits@G@std@@@0@0@Z 10039773 f i libcpmt:wlocale.obj
 0001:00038787       ??$?8_WU?$char_traits@_W@std@@@std@@YA_NABV?$istreambuf_iterator@_WU?$char_traits@_W@std@@@0@0@Z 10039787 f i libcpmt:wlocale.obj
 0001:0003879b       ??$?9GU?$char_traits@G@std@@@std@@YA_NABV?$istreambuf_iterator@GU?$char_traits@G@std@@@0@0@Z 1003979b f i libcpmt:wlocale.obj
 0001:000387b6       ??$?9_WU?$char_traits@_W@std@@@std@@YA_NABV?$istreambuf_iterator@_WU?$char_traits@_W@std@@@0@0@Z 100397b6 f i libcpmt:wlocale.obj
 0001:000387d1       ??$_Adl_verify_range@PADPAD@std@@YAXABQAD0@Z 100397d1 f i libcpmt:wlocale.obj
 0001:000387d4       ??$_Adl_verify_range@PAGPAG@std@@YAXABQAG0@Z 100397d4 f i libcpmt:wlocale.obj
 0001:000387d7       ??$_Adl_verify_range@PAGPBG@std@@YAXABQAGABQBG@Z 100397d7 f i libcpmt:wlocale.obj
 0001:000387da       ??$_Adl_verify_range@PA_WPA_W@std@@YAXABQA_W0@Z 100397da f i libcpmt:wlocale.obj
 0001:000387dd       ??$_Adl_verify_range@PA_WPB_W@std@@YAXABQA_WABQB_W@Z 100397dd f i libcpmt:wlocale.obj
 0001:000387e0       ??$_Adl_verify_range@PBGPBG@std@@YAXABQBG0@Z 100397e0 f i libcpmt:wlocale.obj
 0001:000387e3       ??$_Adl_verify_range@PB_WPB_W@std@@YAXABQB_W0@Z 100397e3 f i libcpmt:wlocale.obj
 0001:000387e6       ??$_Adl_verify_range@V?$istreambuf_iterator@GU?$char_traits@G@std@@@std@@V12@@std@@YAXABV?$istreambuf_iterator@GU?$char_traits@G@std@@@0@0@Z 100397e6 f i libcpmt:wlocale.obj
 0001:000387e9       ??$_Adl_verify_range@V?$istreambuf_iterator@_WU?$char_traits@_W@std@@@std@@V12@@std@@YAXABV?$istreambuf_iterator@_WU?$char_traits@_W@std@@@0@0@Z 100397e9 f i libcpmt:wlocale.obj
 0001:000387ec       ??$_Construct_in_place@PAGABQAG@std@@YAXAAPAGABQAG@Z 100397ec f i libcpmt:wlocale.obj
 0001:000387fe       ??$_Construct_in_place@PA_WABQA_W@std@@YAXAAPA_WABQA_W@Z 100397fe f i libcpmt:wlocale.obj
 0001:00038810       ??$_Copy_unchecked@PA_WV?$ostreambuf_iterator@GU?$char_traits@G@std@@@std@@@std@@YA?AV?$ostreambuf_iterator@GU?$char_traits@G@std@@@0@PA_W0V10@@Z 10039810 f i libcpmt:wlocale.obj
 0001:00038849       ??$_Copy_unchecked@PA_WV?$ostreambuf_iterator@_WU?$char_traits@_W@std@@@std@@@std@@YA?AV?$ostreambuf_iterator@_WU?$char_traits@_W@std@@@0@PA_W0V10@@Z 10039849 f i libcpmt:wlocale.obj
 0001:00038882       ??$_Destroy_in_place@PAG@std@@YAXAAPAG@Z 10039882 f i libcpmt:wlocale.obj
 0001:00038885       ??$_Destroy_in_place@PA_W@std@@YAXAAPA_W@Z 10039885 f i libcpmt:wlocale.obj
 0001:00038888       ??$_Find_elem@G$0BL@@std@@YAIAAY0BL@$$CBGG@Z 10039888 f i libcpmt:wlocale.obj
 0001:000388b8       ??$_Find_elem@G$0BN@@std@@YAIAAY0BN@$$CBGG@Z 100398b8 f i libcpmt:wlocale.obj
 0001:000388e8       ??$_Find_elem@G$0M@@std@@YAIAAY0M@$$CBGG@Z 100398e8 f i libcpmt:wlocale.obj
 0001:00038918       ??$_Find_elem@G$0P@@std@@YAIAAY0P@$$CBGG@Z 10039918 f i libcpmt:wlocale.obj
 0001:00038948       ??$_Find_elem@_W$0BL@@std@@YAIAAY0BL@$$CB_W_W@Z 10039948 f i libcpmt:wlocale.obj
 0001:00038978       ??$_Find_elem@_W$0BN@@std@@YAIAAY0BN@$$CB_W_W@Z 10039978 f i libcpmt:wlocale.obj
 0001:000389a8       ??$_Find_elem@_W$0M@@std@@YAIAAY0M@$$CB_W_W@Z 100399a8 f i libcpmt:wlocale.obj
 0001:000389d8       ??$_Find_elem@_W$0P@@std@@YAIAAY0P@$$CB_W_W@Z 100399d8 f i libcpmt:wlocale.obj
 0001:00038a08       ??$_Find_unchecked1@PBGG@std@@YAPBGPBGQBGABGU?$integral_constant@_N$0A@@0@@Z 10039a08 f i libcpmt:wlocale.obj
 0001:00038a32       ??$_Find_unchecked1@PB_W_W@std@@YAPB_WPB_WQB_WAB_WU?$integral_constant@_N$0A@@0@@Z 10039a32 f i libcpmt:wlocale.obj
 0001:00038a5c       ??$_Find_unchecked@PBGG@std@@YAPBGQBG0ABG@Z 10039a5c f i libcpmt:wlocale.obj
 0001:00038a81       ??$_Find_unchecked@PB_W_W@std@@YAPB_WQB_W0AB_W@Z 10039a81 f i libcpmt:wlocale.obj
 0001:00038aa6       ??$_Get_size_of_n@$01@std@@YAII@Z 10039aa6 f i libcpmt:wlocale.obj
 0001:00038ac0       ??$_Get_unwrapped@AAPA_W@std@@YAPA_WAAPA_W@Z 10039ac0 f i libcpmt:wlocale.obj
 0001:00038acc       ??$_Get_unwrapped_n@AAV?$ostreambuf_iterator@GU?$char_traits@G@std@@@std@@H@std@@YAAAV?$ostreambuf_iterator@GU?$char_traits@G@std@@@0@AAV10@H@Z 10039acc f i libcpmt:wlocale.obj
 0001:00038ad6       ??$_Get_unwrapped_n@AAV?$ostreambuf_iterator@_WU?$char_traits@_W@std@@@std@@H@std@@YAAAV?$ostreambuf_iterator@_WU?$char_traits@_W@std@@@0@AAV10@H@Z 10039ad6 f i libcpmt:wlocale.obj
 0001:00038ae0       ??$_Getloctxt@DV?$istreambuf_iterator@GU?$char_traits@G@std@@@std@@@std@@YAHAAV?$istreambuf_iterator@GU?$char_traits@G@std@@@0@0IPBD@Z 10039ae0 f i libcpmt:wlocale.obj
 0001:00038d0c       ??$_Getloctxt@DV?$istreambuf_iterator@_WU?$char_traits@_W@std@@@std@@@std@@YAHAAV?$istreambuf_iterator@_WU?$char_traits@_W@std@@@0@0IPBD@Z 10039d0c f i libcpmt:wlocale.obj
 0001:00038f38       ??$_Getloctxt@GV?$istreambuf_iterator@GU?$char_traits@G@std@@@std@@@std@@YAHAAV?$istreambuf_iterator@GU?$char_traits@G@std@@@0@0IPBG@Z 10039f38 f i libcpmt:wlocale.obj
 0001:00039174       ??$_Getloctxt@_WV?$istreambuf_iterator@_WU?$char_traits@_W@std@@@std@@@std@@YAHAAV?$istreambuf_iterator@_WU?$char_traits@_W@std@@@0@0IPB_W@Z 1003a174 f i libcpmt:wlocale.obj
 0001:000393b0       ??$_Getvals@G@?$_Mpunct@G@std@@IAEXGPBUlconv@@@Z 1003a3b0 f i libcpmt:wlocale.obj
 0001:00039466       ??$_Getvals@G@?$numpunct@G@std@@IAEXGPBUlconv@@U_Cvtvec@@@Z 1003a466 f i libcpmt:wlocale.obj
 0001:000394e0       ??$_Getvals@G@?$time_get@GV?$istreambuf_iterator@GU?$char_traits@G@std@@@std@@@std@@IAEXGABV_Locinfo@1@@Z 1003a4e0 f i libcpmt:wlocale.obj
 0001:00039565       ??$_Getvals@_W@?$time_get@_WV?$istreambuf_iterator@_WU?$char_traits@_W@std@@@std@@@std@@IAEX_WABV_Locinfo@1@@Z 1003a565 f i libcpmt:wlocale.obj
 0001:000395d4       ??$_Hash_array_representation@G@std@@YAIQBGI@Z 1003a5d4 f i libcpmt:wlocale.obj
 0001:000395f5       ??$_Hash_array_representation@_W@std@@YAIQB_WI@Z 1003a5f5 f i libcpmt:wlocale.obj
 0001:00039616       ??$_Idl_distance@PA_WPA_W@std@@YAHABQA_W0@Z 1003a616 f i libcpmt:wlocale.obj
 0001:0003962b       ??$_LStrcoll@G@std@@YAHPBG000PBU_Collvec@@@Z 1003a62b f i libcpmt:wlocale.obj
 0001:00039687       ??$_LStrcoll@_W@std@@YAHPB_W000PBU_Collvec@@@Z 1003a687 f i libcpmt:wlocale.obj
 0001:00039692       ??$_LStrxfrm@G@std@@YAIPAG0PBG1PBU_Collvec@@@Z 1003a692 f i libcpmt:wlocale.obj
 0001:000396cc       ??$_LStrxfrm@_W@std@@YAIPA_W0PB_W1PBU_Collvec@@@Z 1003a6cc f i libcpmt:wlocale.obj
 0001:000396d7       ??$_Maklocchr@G@std@@YAGDPAGABU_Cvtvec@@@Z 1003a6d7 f i libcpmt:wlocale.obj
 0001:00039714       ??$_Maklocchr@_W@std@@YA_WDPA_WABU_Cvtvec@@@Z 1003a714 f i libcpmt:wlocale.obj
 0001:00039751       ??$_Maklocstr@G@std@@YAPAGPBDPAGABU_Cvtvec@@@Z 1003a751 f i libcpmt:wlocale.obj
 0001:00039823       ??$_Maklocstr@_W@std@@YAPA_WPBDPA_WABU_Cvtvec@@@Z 1003a823 f i libcpmt:wlocale.obj
 0001:000398f5       ??$_Pocma@V?$allocator@G@std@@@std@@YAXAAV?$allocator@G@0@0@Z 1003a8f5 f i libcpmt:wlocale.obj
 0001:000398f8       ??$_Pocma@V?$allocator@_W@std@@@std@@YAXAAV?$allocator@_W@0@0@Z 1003a8f8 f i libcpmt:wlocale.obj
 0001:000398fb       ??$_Reallocate_for@V<lambda_1>@?1??assign@?$basic_string@GU?$char_traits@G@std@@V?$allocator@G@2@@std@@QAEAAV34@IG@Z@G@?$basic_string@GU?$char_traits@G@std@@V?$allocator@G@2@@std@@AAEAAV01@IV<lambda_1>@?1??assign@01@QAEAAV01@IG@Z@G@Z 1003a8fb f i libcpmt:wlocale.obj
 0001:00039997       ??$_Reallocate_for@V<lambda_1>@?1??assign@?$basic_string@GU?$char_traits@G@std@@V?$allocator@G@2@@std@@QAEAAV34@QBGI@Z@PBG@?$basic_string@GU?$char_traits@G@std@@V?$allocator@G@2@@std@@AAEAAV01@IV<lambda_1>@?1??assign@01@QAEAAV01@QBGI@Z@PBG@Z 1003a997 f i libcpmt:wlocale.obj
 0001:00039a37       ??$_Reallocate_for@V<lambda_1>@?1??assign@?$basic_string@_WU?$char_traits@_W@std@@V?$allocator@_W@2@@std@@QAEAAV34@I_W@Z@_W@?$basic_string@_WU?$char_traits@_W@std@@V?$allocator@_W@2@@std@@AAEAAV01@IV<lambda_1>@?1??assign@01@QAEAAV01@I_W@Z@_W@Z 1003aa37 f i libcpmt:wlocale.obj
 0001:00039ad3       ??$_Reallocate_for@V<lambda_1>@?1??assign@?$basic_string@_WU?$char_traits@_W@std@@V?$allocator@_W@2@@std@@QAEAAV34@QB_WI@Z@PB_W@?$basic_string@_WU?$char_traits@_W@std@@V?$allocator@_W@2@@std@@AAEAAV01@IV<lambda_1>@?1??assign@01@QAEAAV01@QB_WI@Z@PB_W@Z 1003aad3 f i libcpmt:wlocale.obj
 0001:00039b73       ??$_Reallocate_grow_by@V<lambda_1>@?1??append@?$basic_string@GU?$char_traits@G@std@@V?$allocator@G@2@@std@@QAEAAV34@IG@Z@IG@?$basic_string@GU?$char_traits@G@std@@V?$allocator@G@2@@std@@AAEAAV01@IV<lambda_1>@?1??append@01@QAEAAV01@IG@Z@IG@Z 1003ab73 f i libcpmt:wlocale.obj
 0001:00039c2d       ??$_Reallocate_grow_by@V<lambda_1>@?1??append@?$basic_string@GU?$char_traits@G@std@@V?$allocator@G@2@@std@@QAEAAV34@QBGI@Z@PBGI@?$basic_string@GU?$char_traits@G@std@@V?$allocator@G@2@@std@@AAEAAV01@IV<lambda_1>@?1??append@01@QAEAAV01@QBGI@Z@PBGI@Z 1003ac2d f i libcpmt:wlocale.obj
 0001:00039ce7       ??$_Reallocate_grow_by@V<lambda_1>@?1??append@?$basic_string@_WU?$char_traits@_W@std@@V?$allocator@_W@2@@std@@QAEAAV34@I_W@Z@I_W@?$basic_string@_WU?$char_traits@_W@std@@V?$allocator@_W@2@@std@@AAEAAV01@IV<lambda_1>@?1??append@01@QAEAAV01@I_W@Z@I_W@Z 1003ace7 f i libcpmt:wlocale.obj
 0001:00039da1       ??$_Reallocate_grow_by@V<lambda_1>@?1??append@?$basic_string@_WU?$char_traits@_W@std@@V?$allocator@_W@2@@std@@QAEAAV34@QB_WI@Z@PB_WI@?$basic_string@_WU?$char_traits@_W@std@@V?$allocator@_W@2@@std@@AAEAAV01@IV<lambda_1>@?1??append@01@QAEAAV01@QB_WI@Z@PB_WI@Z 1003ada1 f i libcpmt:wlocale.obj
 0001:00039e5b       ??$_Reallocate_grow_by@V<lambda_1>@?1??insert@?$basic_string@GU?$char_traits@G@std@@V?$allocator@G@2@@std@@QAEAAV34@IIG@Z@IIG@?$basic_string@GU?$char_traits@G@std@@V?$allocator@G@2@@std@@AAEAAV01@IV<lambda_1>@?1??insert@01@QAEAAV01@IIG@Z@IIG@Z 1003ae5b f i libcpmt:wlocale.obj
 0001:00039f19       ??$_Reallocate_grow_by@V<lambda_1>@?1??insert@?$basic_string@_WU?$char_traits@_W@std@@V?$allocator@_W@2@@std@@QAEAAV34@II_W@Z@II_W@?$basic_string@_WU?$char_traits@_W@std@@V?$allocator@_W@2@@std@@AAEAAV01@IV<lambda_1>@?1??insert@01@QAEAAV01@II_W@Z@II_W@Z 1003af19 f i libcpmt:wlocale.obj
 0001:00039fd7       ??$_Reallocate_grow_by@V<lambda_1>@?1??push_back@?$basic_string@GU?$char_traits@G@std@@V?$allocator@G@2@@std@@QAEXG@Z@G@?$basic_string@GU?$char_traits@G@std@@V?$allocator@G@2@@std@@AAEAAV01@IV<lambda_1>@?1??push_back@01@QAEXG@Z@G@Z 1003afd7 f i libcpmt:wlocale.obj
 0001:0003a0ca       ??$_Reallocate_grow_by@V<lambda_1>@?1??push_back@?$basic_string@_WU?$char_traits@_W@std@@V?$allocator@_W@2@@std@@QAEX_W@Z@_W@?$basic_string@_WU?$char_traits@_W@std@@V?$allocator@_W@2@@std@@AAEAAV01@IV<lambda_1>@?1??push_back@01@QAEX_W@Z@_W@Z 1003b0ca f i libcpmt:wlocale.obj
 0001:0003a1bd       ??$_Refancy@PAG$0A@@std@@YAPAGPAG@Z 1003b1bd f i libcpmt:wlocale.obj
 0001:0003a1c7       ??$_Refancy@PA_W$0A@@std@@YAPA_WPA_W@Z 1003b1c7 f i libcpmt:wlocale.obj
 0001:0003a1d1       ??$_Seek_wrapped@V?$ostreambuf_iterator@GU?$char_traits@G@std@@@std@@V12@@std@@YAXAAV?$ostreambuf_iterator@GU?$char_traits@G@std@@@0@$$QAV10@@Z 1003b1d1 f i libcpmt:wlocale.obj
 0001:0003a1eb       ??$_Seek_wrapped@V?$ostreambuf_iterator@_WU?$char_traits@_W@std@@@std@@V12@@std@@YAXAAV?$ostreambuf_iterator@_WU?$char_traits@_W@std@@@0@$$QAV10@@Z 1003b1eb f i libcpmt:wlocale.obj
 0001:0003a205       ??$_Unfancy@G@std@@YAPAGPAG@Z 1003b205 f i libcpmt:wlocale.obj
 0001:0003a20f       ??$_Unfancy@_W@std@@YAPA_WPA_W@Z 1003b20f f i libcpmt:wlocale.obj
 0001:0003a219       ??$addressof@$$CBV?$_String_val@U?$_Simple_types@G@std@@@std@@@std@@YAPBV?$_String_val@U?$_Simple_types@G@std@@@0@ABV10@@Z 1003b219 f i libcpmt:wlocale.obj
 0001:0003a223       ??$addressof@$$CBV?$_String_val@U?$_Simple_types@_W@std@@@std@@@std@@YAPBV?$_String_val@U?$_Simple_types@_W@std@@@0@ABV10@@Z 1003b223 f i libcpmt:wlocale.obj
 0001:0003a22d       ??$addressof@$$CBV?$moneypunct@G$00@std@@@std@@YAPBV?$moneypunct@G$00@0@ABV10@@Z 1003b22d f i libcpmt:wlocale.obj
 0001:0003a237       ??$addressof@$$CBV?$moneypunct@G$0A@@std@@@std@@YAPBV?$moneypunct@G$0A@@0@ABV10@@Z 1003b237 f i libcpmt:wlocale.obj
 0001:0003a241       ??$addressof@$$CBV?$moneypunct@_W$00@std@@@std@@YAPBV?$moneypunct@_W$00@0@ABV10@@Z 1003b241 f i libcpmt:wlocale.obj
 0001:0003a24b       ??$addressof@$$CBV?$moneypunct@_W$0A@@std@@@std@@YAPBV?$moneypunct@_W$0A@@0@ABV10@@Z 1003b24b f i libcpmt:wlocale.obj
 0001:0003a255       ??$addressof@PAG@std@@YAPAPAGAAPAG@Z 1003b255 f i libcpmt:wlocale.obj
 0001:0003a25f       ??$addressof@PA_W@std@@YAPAPA_WAAPA_W@Z 1003b25f f i libcpmt:wlocale.obj
 0001:0003a269       ??$addressof@V?$_String_val@U?$_Simple_types@G@std@@@std@@@std@@YAPAV?$_String_val@U?$_Simple_types@G@std@@@0@AAV10@@Z 1003b269 f i libcpmt:wlocale.obj
 0001:0003a273       ??$addressof@V?$_String_val@U?$_Simple_types@_W@std@@@std@@@std@@YAPAV?$_String_val@U?$_Simple_types@_W@std@@@0@AAV10@@Z 1003b273 f i libcpmt:wlocale.obj
 0001:0003a27d       ??$addressof@V?$basic_string@GU?$char_traits@G@std@@V?$allocator@G@2@@std@@@std@@YAPAV?$basic_string@GU?$char_traits@G@std@@V?$allocator@G@2@@0@AAV10@@Z 1003b27d f i libcpmt:wlocale.obj
 0001:0003a287       ??$addressof@V?$basic_string@_WU?$char_traits@_W@std@@V?$allocator@_W@2@@std@@@std@@YAPAV?$basic_string@_WU?$char_traits@_W@std@@V?$allocator@_W@2@@0@AAV10@@Z 1003b287 f i libcpmt:wlocale.obj
 0001:0003a291       ??$begin@$$CBD$0M@@std@@YAPBDAAY0M@$$CBD@Z 1003b291 f i libcpmt:wlocale.obj
 0001:0003a29b       ??$copy@PA_WV?$ostreambuf_iterator@GU?$char_traits@G@std@@@std@@@std@@YA?AV?$ostreambuf_iterator@GU?$char_traits@G@std@@@0@PA_W0V10@@Z 1003b29b f i libcpmt:wlocale.obj
 0001:0003a2d4       ??$copy@PA_WV?$ostreambuf_iterator@_WU?$char_traits@_W@std@@@std@@@std@@YA?AV?$ostreambuf_iterator@_WU?$char_traits@_W@std@@@0@PA_W0V10@@Z 1003b2d4 f i libcpmt:wlocale.obj
 0001:0003a30d       ??$end@$$CBD$0M@@std@@YAPBDAAY0M@$$CBD@Z 1003b30d f i libcpmt:wlocale.obj
 0001:0003a31a       ??$forward@ABQAG@std@@YAABQAGABQAG@Z 1003b31a f i libcpmt:wlocale.obj
 0001:0003a324       ??$forward@ABQA_W@std@@YAABQA_WABQA_W@Z 1003b324 f i libcpmt:wlocale.obj
 0001:0003a32e       ??$forward@V?$allocator@G@std@@@std@@YA$$QAV?$allocator@G@0@AAV10@@Z 1003b32e f i libcpmt:wlocale.obj
 0001:0003a338       ??$forward@V?$allocator@_W@std@@@std@@YA$$QAV?$allocator@_W@0@AAV10@@Z 1003b338 f i libcpmt:wlocale.obj
 0001:0003a342       ??$move@AAV?$allocator@G@std@@@std@@YA$$QAV?$allocator@G@0@AAV10@@Z 1003b342 f i libcpmt:wlocale.obj
 0001:0003a34c       ??$move@AAV?$allocator@_W@std@@@std@@YA$$QAV?$allocator@_W@0@AAV10@@Z 1003b34c f i libcpmt:wlocale.obj
 0001:0003a356       ??$move@AAV?$basic_string@GU?$char_traits@G@std@@V?$allocator@G@2@@std@@@std@@YA$$QAV?$basic_string@GU?$char_traits@G@std@@V?$allocator@G@2@@0@AAV10@@Z 1003b356 f i libcpmt:wlocale.obj
 0001:0003a360       ??$move@AAV?$basic_string@_WU?$char_traits@_W@std@@V?$allocator@_W@2@@std@@@std@@YA$$QAV?$basic_string@_WU?$char_traits@_W@std@@V?$allocator@_W@2@@0@AAV10@@Z 1003b360 f i libcpmt:wlocale.obj
 0001:0003a36a       ??$use_facet@V?$codecvt@GDU_Mbstatet@@@std@@@std@@YAABV?$codecvt@GDU_Mbstatet@@@0@ABVlocale@0@@Z 1003b36a f i libcpmt:wlocale.obj
 0001:0003a424       ??$use_facet@V?$codecvt@_WDU_Mbstatet@@@std@@@std@@YAABV?$codecvt@_WDU_Mbstatet@@@0@ABVlocale@0@@Z 1003b424 f i libcpmt:wlocale.obj
 0001:0003a4de       ??$use_facet@V?$collate@G@std@@@std@@YAABV?$collate@G@0@ABVlocale@0@@Z 1003b4de f i libcpmt:wlocale.obj
 0001:0003a598       ??$use_facet@V?$collate@_W@std@@@std@@YAABV?$collate@_W@0@ABVlocale@0@@Z 1003b598 f i libcpmt:wlocale.obj
 0001:0003a652       ??$use_facet@V?$ctype@G@std@@@std@@YAABV?$ctype@G@0@ABVlocale@0@@Z 1003b652 f i libcpmt:wlocale.obj
 0001:0003a70c       ??$use_facet@V?$ctype@_W@std@@@std@@YAABV?$ctype@_W@0@ABVlocale@0@@Z 1003b70c f i libcpmt:wlocale.obj
 0001:0003a7c6       ??$use_facet@V?$messages@G@std@@@std@@YAABV?$messages@G@0@ABVlocale@0@@Z 1003b7c6 f i libcpmt:wlocale.obj
 0001:0003a880       ??$use_facet@V?$messages@_W@std@@@std@@YAABV?$messages@_W@0@ABVlocale@0@@Z 1003b880 f i libcpmt:wlocale.obj
 0001:0003a93a       ??$use_facet@V?$money_get@GV?$istreambuf_iterator@GU?$char_traits@G@std@@@std@@@std@@@std@@YAABV?$money_get@GV?$istreambuf_iterator@GU?$char_traits@G@std@@@std@@@0@ABVlocale@0@@Z 1003b93a f i libcpmt:wlocale.obj
 0001:0003a9f4       ??$use_facet@V?$money_get@_WV?$istreambuf_iterator@_WU?$char_traits@_W@std@@@std@@@std@@@std@@YAABV?$money_get@_WV?$istreambuf_iterator@_WU?$char_traits@_W@std@@@std@@@0@ABVlocale@0@@Z 1003b9f4 f i libcpmt:wlocale.obj
 0001:0003aaae       ??$use_facet@V?$money_put@GV?$ostreambuf_iterator@GU?$char_traits@G@std@@@std@@@std@@@std@@YAABV?$money_put@GV?$ostreambuf_iterator@GU?$char_traits@G@std@@@std@@@0@ABVlocale@0@@Z 1003baae f i libcpmt:wlocale.obj
 0001:0003ab68       ??$use_facet@V?$money_put@_WV?$ostreambuf_iterator@_WU?$char_traits@_W@std@@@std@@@std@@@std@@YAABV?$money_put@_WV?$ostreambuf_iterator@_WU?$char_traits@_W@std@@@std@@@0@ABVlocale@0@@Z 1003bb68 f i libcpmt:wlocale.obj
 0001:0003ac22       ??$use_facet@V?$moneypunct@G$00@std@@@std@@YAABV?$moneypunct@G$00@0@ABVlocale@0@@Z 1003bc22 f i libcpmt:wlocale.obj
 0001:0003acdc       ??$use_facet@V?$moneypunct@G$0A@@std@@@std@@YAABV?$moneypunct@G$0A@@0@ABVlocale@0@@Z 1003bcdc f i libcpmt:wlocale.obj
 0001:0003ad96       ??$use_facet@V?$moneypunct@_W$00@std@@@std@@YAABV?$moneypunct@_W$00@0@ABVlocale@0@@Z 1003bd96 f i libcpmt:wlocale.obj
 0001:0003ae50       ??$use_facet@V?$moneypunct@_W$0A@@std@@@std@@YAABV?$moneypunct@_W$0A@@0@ABVlocale@0@@Z 1003be50 f i libcpmt:wlocale.obj
 0001:0003af0a       ??$use_facet@V?$num_get@GV?$istreambuf_iterator@GU?$char_traits@G@std@@@std@@@std@@@std@@YAABV?$num_get@GV?$istreambuf_iterator@GU?$char_traits@G@std@@@std@@@0@ABVlocale@0@@Z 1003bf0a f i libcpmt:wlocale.obj
 0001:0003afc4       ??$use_facet@V?$num_get@_WV?$istreambuf_iterator@_WU?$char_traits@_W@std@@@std@@@std@@@std@@YAABV?$num_get@_WV?$istreambuf_iterator@_WU?$char_traits@_W@std@@@std@@@0@ABVlocale@0@@Z 1003bfc4 f i libcpmt:wlocale.obj
 0001:0003b07e       ??$use_facet@V?$num_put@GV?$ostreambuf_iterator@GU?$char_traits@G@std@@@std@@@std@@@std@@YAABV?$num_put@GV?$ostreambuf_iterator@GU?$char_traits@G@std@@@std@@@0@ABVlocale@0@@Z 1003c07e f i libcpmt:wlocale.obj
 0001:0003b138       ??$use_facet@V?$num_put@_WV?$ostreambuf_iterator@_WU?$char_traits@_W@std@@@std@@@std@@@std@@YAABV?$num_put@_WV?$ostreambuf_iterator@_WU?$char_traits@_W@std@@@std@@@0@ABVlocale@0@@Z 1003c138 f i libcpmt:wlocale.obj
 0001:0003b1f2       ??$use_facet@V?$numpunct@G@std@@@std@@YAABV?$numpunct@G@0@ABVlocale@0@@Z 1003c1f2 f i libcpmt:wlocale.obj
 0001:0003b2ac       ??$use_facet@V?$numpunct@_W@std@@@std@@YAABV?$numpunct@_W@0@ABVlocale@0@@Z 1003c2ac f i libcpmt:wlocale.obj
 0001:0003b366       ??$use_facet@V?$time_get@GV?$istreambuf_iterator@GU?$char_traits@G@std@@@std@@@std@@@std@@YAABV?$time_get@GV?$istreambuf_iterator@GU?$char_traits@G@std@@@std@@@0@ABVlocale@0@@Z 1003c366 f i libcpmt:wlocale.obj
 0001:0003b420       ??$use_facet@V?$time_get@_WV?$istreambuf_iterator@_WU?$char_traits@_W@std@@@std@@@std@@@std@@YAABV?$time_get@_WV?$istreambuf_iterator@_WU?$char_traits@_W@std@@@std@@@0@ABVlocale@0@@Z 1003c420 f i libcpmt:wlocale.obj
 0001:0003b4da       ??$use_facet@V?$time_put@GV?$ostreambuf_iterator@GU?$char_traits@G@std@@@std@@@std@@@std@@YAABV?$time_put@GV?$ostreambuf_iterator@GU?$char_traits@G@std@@@std@@@0@ABVlocale@0@@Z 1003c4da f i libcpmt:wlocale.obj
 0001:0003b594       ??$use_facet@V?$time_put@_WV?$ostreambuf_iterator@_WU?$char_traits@_W@std@@@std@@@std@@@std@@YAABV?$time_put@_WV?$ostreambuf_iterator@_WU?$char_traits@_W@std@@@std@@@0@ABVlocale@0@@Z 1003c594 f i libcpmt:wlocale.obj
 0001:0003b64e       ??0?$_Mpunct@G@std@@QAE@ABV_Locinfo@1@I_N1@Z 1003c64e f i libcpmt:wlocale.obj
 0001:0003b699       ??0?$_Mpunct@_W@std@@QAE@ABV_Locinfo@1@I_N1@Z 1003c699 f i libcpmt:wlocale.obj
 0001:0003b6e4       ??0?$_String_const_iterator@V?$_String_val@U?$_Simple_types@G@std@@@std@@@std@@QAE@PBGPBU_Container_base0@1@@Z 1003c6e4 f i libcpmt:wlocale.obj
 0001:0003b6f5       ??0?$_String_const_iterator@V?$_String_val@U?$_Simple_types@G@std@@@std@@@std@@QAE@XZ 1003c6f5 f i libcpmt:wlocale.obj
 0001:0003b6fb       ??0?$_String_const_iterator@V?$_String_val@U?$_Simple_types@_W@std@@@std@@@std@@QAE@PB_WPBU_Container_base0@1@@Z 1003c6fb f i libcpmt:wlocale.obj
 0001:0003b70c       ??0?$_String_const_iterator@V?$_String_val@U?$_Simple_types@_W@std@@@std@@@std@@QAE@XZ 1003c70c f i libcpmt:wlocale.obj
 0001:0003b712       ??0?$_String_iterator@V?$_String_val@U?$_Simple_types@G@std@@@std@@@std@@QAE@PBGPBU_Container_base0@1@@Z 1003c712 f i libcpmt:wlocale.obj
 0001:0003b723       ??0?$_String_iterator@V?$_String_val@U?$_Simple_types@_W@std@@@std@@@std@@QAE@PB_WPBU_Container_base0@1@@Z 1003c723 f i libcpmt:wlocale.obj
 0001:0003b734       ??0?$_String_val@U?$_Simple_types@G@std@@@std@@QAE@XZ 1003c734 f i libcpmt:wlocale.obj
 0001:0003b741       ??0?$_String_val@U?$_Simple_types@_W@std@@@std@@QAE@XZ 1003c741 f i libcpmt:wlocale.obj
 0001:0003b74e       ??0?$allocator@G@std@@QAE@XZ 1003c74e f i libcpmt:wlocale.obj
 0001:0003b751       ??0?$allocator@_W@std@@QAE@XZ 1003c751 f i libcpmt:wlocale.obj
 0001:0003b754       ??0?$basic_string@GU?$char_traits@G@std@@V?$allocator@G@2@@std@@QAE@$$QAV01@@Z 1003c754 f i libcpmt:wlocale.obj
 0001:0003b793       ??0?$basic_string@GU?$char_traits@G@std@@V?$allocator@G@2@@std@@QAE@ABV01@@Z 1003c793 f i libcpmt:wlocale.obj
 0001:0003b7b7       ??0?$basic_string@GU?$char_traits@G@std@@V?$allocator@G@2@@std@@QAE@IG@Z 1003c7b7 f i libcpmt:wlocale.obj
 0001:0003b7e9       ??0?$basic_string@GU?$char_traits@G@std@@V?$allocator@G@2@@std@@QAE@QBG@Z 1003c7e9 f i libcpmt:wlocale.obj
 0001:0003b817       ??0?$basic_string@GU?$char_traits@G@std@@V?$allocator@G@2@@std@@QAE@QBGI@Z 1003c817 f i libcpmt:wlocale.obj
 0001:0003b849       ??0?$basic_string@GU?$char_traits@G@std@@V?$allocator@G@2@@std@@QAE@XZ 1003c849 f i libcpmt:wlocale.obj
 0001:0003b860       ??0?$basic_string@_WU?$char_traits@_W@std@@V?$allocator@_W@2@@std@@QAE@$$QAV01@@Z 1003c860 f i libcpmt:wlocale.obj
 0001:0003b89f       ??0?$basic_string@_WU?$char_traits@_W@std@@V?$allocator@_W@2@@std@@QAE@ABV01@@Z 1003c89f f i libcpmt:wlocale.obj
 0001:0003b8c3       ??0?$basic_string@_WU?$char_traits@_W@std@@V?$allocator@_W@2@@std@@QAE@I_W@Z 1003c8c3 f i libcpmt:wlocale.obj
 0001:0003b8f5       ??0?$basic_string@_WU?$char_traits@_W@std@@V?$allocator@_W@2@@std@@QAE@QB_W@Z 1003c8f5 f i libcpmt:wlocale.obj
 0001:0003b923       ??0?$basic_string@_WU?$char_traits@_W@std@@V?$allocator@_W@2@@std@@QAE@QB_WI@Z 1003c923 f i libcpmt:wlocale.obj
 0001:0003b955       ??0?$basic_string@_WU?$char_traits@_W@std@@V?$allocator@_W@2@@std@@QAE@XZ 1003c955 f i libcpmt:wlocale.obj
 0001:0003b96c       ??0?$codecvt@GDU_Mbstatet@@@std@@QAE@ABV_Locinfo@1@I@Z 1003c96c f i libcpmt:wlocale.obj
 0001:0003b9b0       ??0?$codecvt@_WDU_Mbstatet@@@std@@QAE@ABV_Locinfo@1@I@Z 1003c9b0 f i libcpmt:wlocale.obj
 0001:0003b9f4       ??0?$collate@G@std@@QAE@ABV_Locinfo@1@I@Z 1003c9f4 f i libcpmt:wlocale.obj
 0001:0003ba26       ??0?$collate@_W@std@@QAE@ABV_Locinfo@1@I@Z 1003ca26 f i libcpmt:wlocale.obj
 0001:0003ba58       ??0?$ctype@G@std@@QAE@ABV_Locinfo@1@I@Z 1003ca58 f i libcpmt:wlocale.obj
 0001:0003ba86       ??0?$ctype@_W@std@@QAE@ABV_Locinfo@1@I@Z 1003ca86 f i libcpmt:wlocale.obj
 0001:0003bab4       ??0?$messages@G@std@@QAE@ABV_Locinfo@1@I@Z 1003cab4 f i libcpmt:wlocale.obj
 0001:0003bad3       ??0?$messages@_W@std@@QAE@ABV_Locinfo@1@I@Z 1003cad3 f i libcpmt:wlocale.obj
 0001:0003baf2       ??0?$money_get@GV?$istreambuf_iterator@GU?$char_traits@G@std@@@std@@@std@@QAE@ABV_Locinfo@1@I@Z 1003caf2 f i libcpmt:wlocale.obj
 0001:0003bb11       ??0?$money_get@_WV?$istreambuf_iterator@_WU?$char_traits@_W@std@@@std@@@std@@QAE@ABV_Locinfo@1@I@Z 1003cb11 f i libcpmt:wlocale.obj
 0001:0003bb30       ??0?$money_put@GV?$ostreambuf_iterator@GU?$char_traits@G@std@@@std@@@std@@QAE@ABV_Locinfo@1@I@Z 1003cb30 f i libcpmt:wlocale.obj
 0001:0003bb4f       ??0?$money_put@_WV?$ostreambuf_iterator@_WU?$char_traits@_W@std@@@std@@@std@@QAE@ABV_Locinfo@1@I@Z 1003cb4f f i libcpmt:wlocale.obj
 0001:0003bb6e       ??0?$moneypunct@G$00@std@@QAE@ABV_Locinfo@1@I_N@Z 1003cb6e f i libcpmt:wlocale.obj
 0001:0003bb9e       ??0?$moneypunct@G$0A@@std@@QAE@ABV_Locinfo@1@I_N@Z 1003cb9e f i libcpmt:wlocale.obj
 0001:0003bbce       ??0?$moneypunct@_W$00@std@@QAE@ABV_Locinfo@1@I_N@Z 1003cbce f i libcpmt:wlocale.obj
 0001:0003bbfe       ??0?$moneypunct@_W$0A@@std@@QAE@ABV_Locinfo@1@I_N@Z 1003cbfe f i libcpmt:wlocale.obj
 0001:0003bc2e       ??0?$num_get@GV?$istreambuf_iterator@GU?$char_traits@G@std@@@std@@@std@@QAE@ABV_Locinfo@1@I@Z 1003cc2e f i libcpmt:wlocale.obj
 0001:0003bc4d       ??0?$num_get@_WV?$istreambuf_iterator@_WU?$char_traits@_W@std@@@std@@@std@@QAE@ABV_Locinfo@1@I@Z 1003cc4d f i libcpmt:wlocale.obj
 0001:0003bc6c       ??0?$num_put@GV?$ostreambuf_iterator@GU?$char_traits@G@std@@@std@@@std@@QAE@ABV_Locinfo@1@I@Z 1003cc6c f i libcpmt:wlocale.obj
 0001:0003bc8b       ??0?$num_put@_WV?$ostreambuf_iterator@_WU?$char_traits@_W@std@@@std@@@std@@QAE@ABV_Locinfo@1@I@Z 1003cc8b f i libcpmt:wlocale.obj
 0001:0003bcaa       ??0?$numpunct@G@std@@QAE@ABV_Locinfo@1@I_N@Z 1003ccaa f i libcpmt:wlocale.obj
 0001:0003bced       ??0?$numpunct@_W@std@@QAE@ABV_Locinfo@1@I_N@Z 1003cced f i libcpmt:wlocale.obj
 0001:0003bd30       ??0?$time_get@GV?$istreambuf_iterator@GU?$char_traits@G@std@@@std@@@std@@QAE@ABV_Locinfo@1@I@Z 1003cd30 f i libcpmt:wlocale.obj
 0001:0003bd6f       ??0?$time_get@_WV?$istreambuf_iterator@_WU?$char_traits@_W@std@@@std@@@std@@QAE@ABV_Locinfo@1@I@Z 1003cd6f f i libcpmt:wlocale.obj
 0001:0003bdae       ??0?$time_put@GV?$ostreambuf_iterator@GU?$char_traits@G@std@@@std@@@std@@QAE@ABV_Locinfo@1@I@Z 1003cdae f i libcpmt:wlocale.obj
 0001:0003bde1       ??0?$time_put@_WV?$ostreambuf_iterator@_WU?$char_traits@_W@std@@@std@@@std@@QAE@ABV_Locinfo@1@I@Z 1003cde1 f i libcpmt:wlocale.obj
 0001:0003be14       ??0_Bxty@?$_String_val@U?$_Simple_types@G@std@@@std@@QAE@XZ 1003ce14 f i libcpmt:wlocale.obj
 0001:0003be17       ??0_Bxty@?$_String_val@U?$_Simple_types@_W@std@@@std@@QAE@XZ 1003ce17 f i libcpmt:wlocale.obj
 0001:0003be1a       ??0_Timevec@std@@QAE@PAX@Z 1003ce1a f i libcpmt:wlocale.obj
 0001:0003be2b       ??0messages_base@std@@QAE@I@Z 1003ce2b f i libcpmt:wlocale.obj
 0001:0003be4a       ??0money_base@std@@QAE@I@Z 1003ce4a f i libcpmt:wlocale.obj
 0001:0003be69       ??0time_base@std@@QAE@I@Z  1003ce69 f i libcpmt:wlocale.obj
 0001:0003be88       ??1?$_Compressed_pair@V?$allocator@G@std@@V?$_String_val@U?$_Simple_types@G@std@@@2@$00@std@@QAE@XZ 1003ce88 f i libcpmt:wlocale.obj
 0001:0003be8b       ??1?$_Compressed_pair@V?$allocator@_W@std@@V?$_String_val@U?$_Simple_types@_W@std@@@2@$00@std@@QAE@XZ 1003ce8b f i libcpmt:wlocale.obj
 0001:0003be8e       ??1?$_Mpunct@G@std@@MAE@XZ 1003ce8e f i libcpmt:wlocale.obj
 0001:0003bea9       ??1?$_Mpunct@_W@std@@MAE@XZ 1003cea9 f i libcpmt:wlocale.obj
 0001:0003bec4       ??1?$_String_val@U?$_Simple_types@G@std@@@std@@QAE@XZ 1003cec4 f i libcpmt:wlocale.obj
 0001:0003bec7       ??1?$_String_val@U?$_Simple_types@_W@std@@@std@@QAE@XZ 1003cec7 f i libcpmt:wlocale.obj
 0001:0003beca       ??1?$_Tidy_guard@V?$_Mpunct@G@std@@@std@@QAE@XZ 1003ceca f i libcpmt:wlocale.obj
 0001:0003bed7       ??1?$_Tidy_guard@V?$_Mpunct@_W@std@@@std@@QAE@XZ 1003ced7 f i libcpmt:wlocale.obj
 0001:0003bee4       ??1?$_Tidy_guard@V?$numpunct@G@std@@@std@@QAE@XZ 1003cee4 f i libcpmt:wlocale.obj
 0001:0003bef1       ??1?$_Tidy_guard@V?$numpunct@_W@std@@@std@@QAE@XZ 1003cef1 f i libcpmt:wlocale.obj
 0001:0003befe       ??1?$_Tidy_guard@V?$time_get@GV?$istreambuf_iterator@GU?$char_traits@G@std@@@std@@@std@@@std@@QAE@XZ 1003cefe f i libcpmt:wlocale.obj
 0001:0003bf0b       ??1?$_Tidy_guard@V?$time_get@_WV?$istreambuf_iterator@_WU?$char_traits@_W@std@@@std@@@std@@@std@@QAE@XZ 1003cf0b f i libcpmt:wlocale.obj
 0001:0003bf18       ??1?$basic_string@GU?$char_traits@G@std@@V?$allocator@G@2@@std@@QAE@XZ 1003cf18 f i libcpmt:wlocale.obj
 0001:0003bf1d       ??1?$basic_string@_WU?$char_traits@_W@std@@V?$allocator@_W@2@@std@@QAE@XZ 1003cf1d f i libcpmt:wlocale.obj
 0001:0003bf22       ??1?$codecvt@GDU_Mbstatet@@@std@@MAE@XZ 1003cf22 f i libcpmt:wlocale.obj
 0001:0003bf29       ??1?$codecvt@_WDU_Mbstatet@@@std@@MAE@XZ 1003cf29 f i libcpmt:wlocale.obj
 0001:0003bf30       ??1?$collate@G@std@@MAE@XZ 1003cf30 f i libcpmt:wlocale.obj
 0001:0003bf50       ??1?$collate@_W@std@@MAE@XZ 1003cf50 f i libcpmt:wlocale.obj
 0001:0003bf70       ??1?$ctype@G@std@@MAE@XZ   1003cf70 f i libcpmt:wlocale.obj
 0001:0003bfa3       ??1?$ctype@_W@std@@MAE@XZ  1003cfa3 f i libcpmt:wlocale.obj
 0001:0003bfd6       ??1?$messages@G@std@@MAE@XZ 1003cfd6 f i libcpmt:wlocale.obj
 0001:0003bfdd       ??1?$messages@_W@std@@MAE@XZ 1003cfdd f i libcpmt:wlocale.obj
 0001:0003bfe4       ??1?$money_get@GV?$istreambuf_iterator@GU?$char_traits@G@std@@@std@@@std@@MAE@XZ 1003cfe4 f i libcpmt:wlocale.obj
 0001:0003bfeb       ??1?$money_get@_WV?$istreambuf_iterator@_WU?$char_traits@_W@std@@@std@@@std@@MAE@XZ 1003cfeb f i libcpmt:wlocale.obj
 0001:0003bff2       ??1?$money_put@GV?$ostreambuf_iterator@GU?$char_traits@G@std@@@std@@@std@@MAE@XZ 1003cff2 f i libcpmt:wlocale.obj
 0001:0003bff9       ??1?$money_put@_WV?$ostreambuf_iterator@_WU?$char_traits@_W@std@@@std@@@std@@MAE@XZ 1003cff9 f i libcpmt:wlocale.obj
 0001:0003c000       ??1?$moneypunct@G$00@std@@MAE@XZ 1003d000 f i libcpmt:wlocale.obj
 0001:0003c01b       ??1?$moneypunct@G$0A@@std@@MAE@XZ 1003d01b f i libcpmt:wlocale.obj
 0001:0003c036       ??1?$moneypunct@_W$00@std@@MAE@XZ 1003d036 f i libcpmt:wlocale.obj
 0001:0003c051       ??1?$moneypunct@_W$0A@@std@@MAE@XZ 1003d051 f i libcpmt:wlocale.obj
 0001:0003c06c       ??1?$num_get@GV?$istreambuf_iterator@GU?$char_traits@G@std@@@std@@@std@@MAE@XZ 1003d06c f i libcpmt:wlocale.obj
 0001:0003c073       ??1?$num_get@_WV?$istreambuf_iterator@_WU?$char_traits@_W@std@@@std@@@std@@MAE@XZ 1003d073 f i libcpmt:wlocale.obj
 0001:0003c07a       ??1?$num_put@GV?$ostreambuf_iterator@GU?$char_traits@G@std@@@std@@@std@@MAE@XZ 1003d07a f i libcpmt:wlocale.obj
 0001:0003c081       ??1?$num_put@_WV?$ostreambuf_iterator@_WU?$char_traits@_W@std@@@std@@@std@@MAE@XZ 1003d081 f i libcpmt:wlocale.obj
 0001:0003c088       ??1?$numpunct@G@std@@MAE@XZ 1003d088 f i libcpmt:wlocale.obj
 0001:0003c0a3       ??1?$numpunct@_W@std@@MAE@XZ 1003d0a3 f i libcpmt:wlocale.obj
 0001:0003c0be       ??1?$time_get@GV?$istreambuf_iterator@GU?$char_traits@G@std@@@std@@@std@@MAE@XZ 1003d0be f i libcpmt:wlocale.obj
 0001:0003c0d9       ??1?$time_get@_WV?$istreambuf_iterator@_WU?$char_traits@_W@std@@@std@@@std@@MAE@XZ 1003d0d9 f i libcpmt:wlocale.obj
 0001:0003c0f4       ??1?$time_put@GV?$ostreambuf_iterator@GU?$char_traits@G@std@@@std@@@std@@MAE@XZ 1003d0f4 f i libcpmt:wlocale.obj
 0001:0003c114       ??1?$time_put@_WV?$ostreambuf_iterator@_WU?$char_traits@_W@std@@@std@@@std@@MAE@XZ 1003d114 f i libcpmt:wlocale.obj
 0001:0003c134       ??1_Bxty@?$_String_val@U?$_Simple_types@G@std@@@std@@QAE@XZ 1003d134 f i libcpmt:wlocale.obj
 0001:0003c137       ??1_Bxty@?$_String_val@U?$_Simple_types@_W@std@@@std@@QAE@XZ 1003d137 f i libcpmt:wlocale.obj
 0001:0003c13a       ??1_Timevec@std@@QAE@XZ    1003d13a f i libcpmt:wlocale.obj
 0001:0003c145       ??1messages_base@std@@UAE@XZ 1003d145 f i libcpmt:wlocale.obj
 0001:0003c14c       ??1money_base@std@@UAE@XZ  1003d14c f i libcpmt:wlocale.obj
 0001:0003c153       ??1time_base@std@@UAE@XZ   1003d153 f i libcpmt:wlocale.obj
 0001:0003c15a       ??4?$_Yarn@_W@std@@QAEAAV01@PB_W@Z 1003d15a f i libcpmt:wlocale.obj
 0001:0003c1cd       ??4?$basic_string@GU?$char_traits@G@std@@V?$allocator@G@2@@std@@QAEAAV01@$$QAV01@@Z 1003d1cd f i libcpmt:wlocale.obj
 0001:0003c1f7       ??4?$basic_string@_WU?$char_traits@_W@std@@V?$allocator@_W@2@@std@@QAEAAV01@$$QAV01@@Z 1003d1f7 f i libcpmt:wlocale.obj
 0001:0003c221       ??4?$ostreambuf_iterator@GU?$char_traits@G@std@@@std@@QAEAAV01@G@Z 1003d221 f i libcpmt:wlocale.obj
 0001:0003c254       ??4?$ostreambuf_iterator@_WU?$char_traits@_W@std@@@std@@QAEAAV01@_W@Z 1003d254 f i libcpmt:wlocale.obj
 0001:0003c287       ??4_Timevec@std@@QAEAAV01@ABV01@@Z 1003d287 f i libcpmt:wlocale.obj
 0001:0003c2b5       ??8?$_String_const_iterator@V?$_String_val@U?$_Simple_types@G@std@@@std@@@std@@QBE_NABV01@@Z 1003d2b5 f i libcpmt:wlocale.obj
 0001:0003c2ca       ??8?$_String_const_iterator@V?$_String_val@U?$_Simple_types@_W@std@@@std@@@std@@QBE_NABV01@@Z 1003d2ca f i libcpmt:wlocale.obj
 0001:0003c2df       ??9?$_String_const_iterator@V?$_String_val@U?$_Simple_types@G@std@@@std@@@std@@QBE_NABV01@@Z 1003d2df f i libcpmt:wlocale.obj
 0001:0003c2f4       ??9?$_String_const_iterator@V?$_String_val@U?$_Simple_types@_W@std@@@std@@@std@@QBE_NABV01@@Z 1003d2f4 f i libcpmt:wlocale.obj
 0001:0003c309       ??A?$basic_string@GU?$char_traits@G@std@@V?$allocator@G@2@@std@@QAEAAGI@Z 1003d309 f i libcpmt:wlocale.obj
 0001:0003c323       ??A?$basic_string@GU?$char_traits@G@std@@V?$allocator@G@2@@std@@QBEABGI@Z 1003d323 f i libcpmt:wlocale.obj
 0001:0003c33d       ??A?$basic_string@_WU?$char_traits@_W@std@@V?$allocator@_W@2@@std@@QAEAA_WI@Z 1003d33d f i libcpmt:wlocale.obj
 0001:0003c357       ??A?$basic_string@_WU?$char_traits@_W@std@@V?$allocator@_W@2@@std@@QBEAB_WI@Z 1003d357 f i libcpmt:wlocale.obj
 0001:0003c371       ??D?$_String_const_iterator@V?$_String_val@U?$_Simple_types@G@std@@@std@@@std@@QBEABGXZ 1003d371 f i libcpmt:wlocale.obj
 0001:0003c374       ??D?$_String_const_iterator@V?$_String_val@U?$_Simple_types@_W@std@@@std@@@std@@QBEAB_WXZ 1003d374 f i libcpmt:wlocale.obj
 0001:0003c377       ??D?$_String_iterator@V?$_String_val@U?$_Simple_types@G@std@@@std@@@std@@QBEAAGXZ 1003d377 f i libcpmt:wlocale.obj
 0001:0003c37a       ??D?$_String_iterator@V?$_String_val@U?$_Simple_types@_W@std@@@std@@@std@@QBEAA_WXZ 1003d37a f i libcpmt:wlocale.obj
 0001:0003c37d       ??D?$istreambuf_iterator@GU?$char_traits@G@std@@@std@@QBEGXZ 1003d37d f i libcpmt:wlocale.obj
 0001:0003c396       ??D?$istreambuf_iterator@_WU?$char_traits@_W@std@@@std@@QBE_WXZ 1003d396 f i libcpmt:wlocale.obj
 0001:0003c3af       ??D?$ostreambuf_iterator@GU?$char_traits@G@std@@@std@@QAEAAV01@XZ 1003d3af f i libcpmt:wlocale.obj
 0001:0003c3b2       ??D?$ostreambuf_iterator@_WU?$char_traits@_W@std@@@std@@QAEAAV01@XZ 1003d3b2 f i libcpmt:wlocale.obj
 0001:0003c3b5       ??E?$_String_const_iterator@V?$_String_val@U?$_Simple_types@G@std@@@std@@@std@@QAEAAV01@XZ 1003d3b5 f i libcpmt:wlocale.obj
 0001:0003c3bb       ??E?$_String_const_iterator@V?$_String_val@U?$_Simple_types@_W@std@@@std@@@std@@QAEAAV01@XZ 1003d3bb f i libcpmt:wlocale.obj
 0001:0003c3c1       ??E?$_String_iterator@V?$_String_val@U?$_Simple_types@G@std@@@std@@@std@@QAEAAV01@XZ 1003d3c1 f i libcpmt:wlocale.obj
 0001:0003c3c7       ??E?$_String_iterator@V?$_String_val@U?$_Simple_types@_W@std@@@std@@@std@@QAEAAV01@XZ 1003d3c7 f i libcpmt:wlocale.obj
 0001:0003c3cd       ??E?$istreambuf_iterator@GU?$char_traits@G@std@@@std@@QAEAAV01@XZ 1003d3cd f i libcpmt:wlocale.obj
 0001:0003c3dc       ??E?$istreambuf_iterator@_WU?$char_traits@_W@std@@@std@@QAEAAV01@XZ 1003d3dc f i libcpmt:wlocale.obj
 0001:0003c3eb       ??E?$ostreambuf_iterator@GU?$char_traits@G@std@@@std@@QAEAAV01@H@Z 1003d3eb f i libcpmt:wlocale.obj
 0001:0003c3f0       ??E?$ostreambuf_iterator@GU?$char_traits@G@std@@@std@@QAEAAV01@XZ 1003d3f0 f i libcpmt:wlocale.obj
 0001:0003c3f3       ??E?$ostreambuf_iterator@_WU?$char_traits@_W@std@@@std@@QAEAAV01@H@Z 1003d3f3 f i libcpmt:wlocale.obj
 0001:0003c3f8       ??E?$ostreambuf_iterator@_WU?$char_traits@_W@std@@@std@@QAEAAV01@XZ 1003d3f8 f i libcpmt:wlocale.obj
 0001:0003c3fb       ??G?$_String_iterator@V?$_String_val@U?$_Simple_types@G@std@@@std@@@std@@QBE?AV01@H@Z 1003d3fb f i libcpmt:wlocale.obj
 0001:0003c415       ??G?$_String_iterator@V?$_String_val@U?$_Simple_types@_W@std@@@std@@@std@@QBE?AV01@H@Z 1003d415 f i libcpmt:wlocale.obj
 0001:0003c42f       ??H?$_String_iterator@V?$_String_val@U?$_Simple_types@G@std@@@std@@@std@@QBE?AV01@H@Z 1003d42f f i libcpmt:wlocale.obj
 0001:0003c448       ??H?$_String_iterator@V?$_String_val@U?$_Simple_types@_W@std@@@std@@@std@@QBE?AV01@H@Z 1003d448 f i libcpmt:wlocale.obj
 0001:0003c461       ??R<lambda_1>@?1??append@?$basic_string@GU?$char_traits@G@std@@V?$allocator@G@2@@std@@QAEAAV23@IG@Z@QBEXQAGQBGIIG@Z 1003d461 f i libcpmt:wlocale.obj
 0001:0003c4ad       ??R<lambda_1>@?1??append@?$basic_string@GU?$char_traits@G@std@@V?$allocator@G@2@@std@@QAEAAV23@QBGI@Z@QBEXQAG0I0I@Z 1003d4ad f i libcpmt:wlocale.obj
 0001:0003c4fd       ??R<lambda_1>@?1??append@?$basic_string@_WU?$char_traits@_W@std@@V?$allocator@_W@2@@std@@QAEAAV23@I_W@Z@QBEXQA_WQB_WII0@Z 1003d4fd f i libcpmt:wlocale.obj
 0001:0003c549       ??R<lambda_1>@?1??append@?$basic_string@_WU?$char_traits@_W@std@@V?$allocator@_W@2@@std@@QAEAAV23@QB_WI@Z@QBEXQA_W0I0I@Z 1003d549 f i libcpmt:wlocale.obj
 0001:0003c599       ??R<lambda_1>@?1??assign@?$basic_string@GU?$char_traits@G@std@@V?$allocator@G@2@@std@@QAEAAV23@IG@Z@QBEXQAGIG@Z 1003d599 f i libcpmt:wlocale.obj
 0001:0003c5c6       ??R<lambda_1>@?1??assign@?$basic_string@GU?$char_traits@G@std@@V?$allocator@G@2@@std@@QAEAAV23@QBGI@Z@QBEXQAGI0@Z 1003d5c6 f i libcpmt:wlocale.obj
 0001:0003c5f6       ??R<lambda_1>@?1??assign@?$basic_string@_WU?$char_traits@_W@std@@V?$allocator@_W@2@@std@@QAEAAV23@I_W@Z@QBEXQA_WI0@Z 1003d5f6 f i libcpmt:wlocale.obj
 0001:0003c623       ??R<lambda_1>@?1??assign@?$basic_string@_WU?$char_traits@_W@std@@V?$allocator@_W@2@@std@@QAEAAV23@QB_WI@Z@QBEXQA_WI0@Z 1003d623 f i libcpmt:wlocale.obj
 0001:0003c653       ??R<lambda_1>@?1??insert@?$basic_string@GU?$char_traits@G@std@@V?$allocator@G@2@@std@@QAEAAV23@IIG@Z@QBEXQAGQBGIIIG@Z 1003d653 f i libcpmt:wlocale.obj
 0001:0003c6be       ??R<lambda_1>@?1??insert@?$basic_string@_WU?$char_traits@_W@std@@V?$allocator@_W@2@@std@@QAEAAV23@II_W@Z@QBEXQA_WQB_WIII0@Z 1003d6be f i libcpmt:wlocale.obj
 0001:0003c729       ??R<lambda_1>@?1??push_back@?$basic_string@GU?$char_traits@G@std@@V?$allocator@G@2@@std@@QAEXG@Z@QBEXQAGQBGIG@Z 1003d729 f i libcpmt:wlocale.obj
 0001:0003c765       ??R<lambda_1>@?1??push_back@?$basic_string@_WU?$char_traits@_W@std@@V?$allocator@_W@2@@std@@QAEX_W@Z@QBEXQA_WQB_WI0@Z 1003d765 f i libcpmt:wlocale.obj
 0001:0003c7a1       ??Y?$_String_const_iterator@V?$_String_val@U?$_Simple_types@G@std@@@std@@@std@@QAEAAV01@H@Z 1003d7a1 f i libcpmt:wlocale.obj
 0001:0003c7b5       ??Y?$_String_const_iterator@V?$_String_val@U?$_Simple_types@_W@std@@@std@@@std@@QAEAAV01@H@Z 1003d7b5 f i libcpmt:wlocale.obj
 0001:0003c7c9       ??Y?$_String_iterator@V?$_String_val@U?$_Simple_types@G@std@@@std@@@std@@QAEAAV01@H@Z 1003d7c9 f i libcpmt:wlocale.obj
 0001:0003c7dd       ??Y?$_String_iterator@V?$_String_val@U?$_Simple_types@_W@std@@@std@@@std@@QAEAAV01@H@Z 1003d7dd f i libcpmt:wlocale.obj
 0001:0003c7f1       ??Y?$basic_string@DU?$char_traits@D@std@@V?$allocator@D@2@@std@@QAEAAV01@D@Z 1003d7f1 f i libcpmt:wlocale.obj
 0001:0003c80b       ??Y?$basic_string@GU?$char_traits@G@std@@V?$allocator@G@2@@std@@QAEAAV01@ABV01@@Z 1003d80b f i libcpmt:wlocale.obj
 0001:0003c816       ??Y?$basic_string@_WU?$char_traits@_W@std@@V?$allocator@_W@2@@std@@QAEAAV01@ABV01@@Z 1003d816 f i libcpmt:wlocale.obj
 0001:0003c821       ??Z?$_String_const_iterator@V?$_String_val@U?$_Simple_types@G@std@@@std@@@std@@QAEAAV01@H@Z 1003d821 f i libcpmt:wlocale.obj
 0001:0003c837       ??Z?$_String_const_iterator@V?$_String_val@U?$_Simple_types@_W@std@@@std@@@std@@QAEAAV01@H@Z 1003d837 f i libcpmt:wlocale.obj
 0001:0003c84d       ??Z?$_String_iterator@V?$_String_val@U?$_Simple_types@G@std@@@std@@@std@@QAEAAV01@H@Z 1003d84d f i libcpmt:wlocale.obj
 0001:0003c863       ??Z?$_String_iterator@V?$_String_val@U?$_Simple_types@_W@std@@@std@@@std@@QAEAAV01@H@Z 1003d863 f i libcpmt:wlocale.obj
 0001:0003c879       ??_G?$_Mpunct@G@std@@MAEPAXI@Z 1003d879 f i libcpmt:wlocale.obj
 0001:0003c879       ??_E?$_Mpunct@G@std@@MAEPAXI@Z 1003d879 f i libcpmt:wlocale.obj
 0001:0003c8b2       ??_G?$_Mpunct@_W@std@@MAEPAXI@Z 1003d8b2 f i libcpmt:wlocale.obj
 0001:0003c8b2       ??_E?$_Mpunct@_W@std@@MAEPAXI@Z 1003d8b2 f i libcpmt:wlocale.obj
 0001:0003c8eb       ??_E?$codecvt@GDU_Mbstatet@@@std@@MAEPAXI@Z 1003d8eb f i libcpmt:wlocale.obj
 0001:0003c8eb       ??_G?$codecvt@GDU_Mbstatet@@@std@@MAEPAXI@Z 1003d8eb f i libcpmt:wlocale.obj
 0001:0003c916       ??_G?$codecvt@_WDU_Mbstatet@@@std@@MAEPAXI@Z 1003d916 f i libcpmt:wlocale.obj
 0001:0003c916       ??_E?$codecvt@_WDU_Mbstatet@@@std@@MAEPAXI@Z 1003d916 f i libcpmt:wlocale.obj
 0001:0003c941       ??_E?$collate@G@std@@MAEPAXI@Z 1003d941 f i libcpmt:wlocale.obj
 0001:0003c941       ??_G?$collate@G@std@@MAEPAXI@Z 1003d941 f i libcpmt:wlocale.obj
 0001:0003c96b       ??_G?$collate@_W@std@@MAEPAXI@Z 1003d96b f i libcpmt:wlocale.obj
 0001:0003c96b       ??_E?$collate@_W@std@@MAEPAXI@Z 1003d96b f i libcpmt:wlocale.obj
 0001:0003c995       ??_G?$ctype@G@std@@MAEPAXI@Z 1003d995 f i libcpmt:wlocale.obj
 0001:0003c995       ??_E?$ctype@G@std@@MAEPAXI@Z 1003d995 f i libcpmt:wlocale.obj
 0001:0003c9bf       ??_E?$ctype@_W@std@@MAEPAXI@Z 1003d9bf f i libcpmt:wlocale.obj
 0001:0003c9bf       ??_G?$ctype@_W@std@@MAEPAXI@Z 1003d9bf f i libcpmt:wlocale.obj
 0001:0003c9e9       ??_E?$messages@G@std@@MAEPAXI@Z 1003d9e9 f i libcpmt:wlocale.obj
 0001:0003c9e9       ??_G?$messages@G@std@@MAEPAXI@Z 1003d9e9 f i libcpmt:wlocale.obj
 0001:0003ca14       ??_G?$messages@_W@std@@MAEPAXI@Z 1003da14 f i libcpmt:wlocale.obj
 0001:0003ca14       ??_E?$messages@_W@std@@MAEPAXI@Z 1003da14 f i libcpmt:wlocale.obj
 0001:0003ca3f       ??_G?$money_get@GV?$istreambuf_iterator@GU?$char_traits@G@std@@@std@@@std@@MAEPAXI@Z 1003da3f f i libcpmt:wlocale.obj
 0001:0003ca3f       ??_E?$money_get@GV?$istreambuf_iterator@GU?$char_traits@G@std@@@std@@@std@@MAEPAXI@Z 1003da3f f i libcpmt:wlocale.obj
 0001:0003ca6a       ??_G?$money_get@_WV?$istreambuf_iterator@_WU?$char_traits@_W@std@@@std@@@std@@MAEPAXI@Z 1003da6a f i libcpmt:wlocale.obj
 0001:0003ca6a       ??_E?$money_get@_WV?$istreambuf_iterator@_WU?$char_traits@_W@std@@@std@@@std@@MAEPAXI@Z 1003da6a f i libcpmt:wlocale.obj
 0001:0003ca95       ??_G?$money_put@GV?$ostreambuf_iterator@GU?$char_traits@G@std@@@std@@@std@@MAEPAXI@Z 1003da95 f i libcpmt:wlocale.obj
 0001:0003ca95       ??_E?$money_put@GV?$ostreambuf_iterator@GU?$char_traits@G@std@@@std@@@std@@MAEPAXI@Z 1003da95 f i libcpmt:wlocale.obj
 0001:0003cac0       ??_G?$money_put@_WV?$ostreambuf_iterator@_WU?$char_traits@_W@std@@@std@@@std@@MAEPAXI@Z 1003dac0 f i libcpmt:wlocale.obj
 0001:0003cac0       ??_E?$money_put@_WV?$ostreambuf_iterator@_WU?$char_traits@_W@std@@@std@@@std@@MAEPAXI@Z 1003dac0 f i libcpmt:wlocale.obj
 0001:0003caeb       ??_E?$moneypunct@G$00@std@@MAEPAXI@Z 1003daeb f i libcpmt:wlocale.obj
 0001:0003caeb       ??_G?$moneypunct@G$00@std@@MAEPAXI@Z 1003daeb f i libcpmt:wlocale.obj
 0001:0003cb24       ??_G?$moneypunct@G$0A@@std@@MAEPAXI@Z 1003db24 f i libcpmt:wlocale.obj
 0001:0003cb24       ??_E?$moneypunct@G$0A@@std@@MAEPAXI@Z 1003db24 f i libcpmt:wlocale.obj
 0001:0003cb5d       ??_G?$moneypunct@_W$00@std@@MAEPAXI@Z 1003db5d f i libcpmt:wlocale.obj
 0001:0003cb5d       ??_E?$moneypunct@_W$00@std@@MAEPAXI@Z 1003db5d f i libcpmt:wlocale.obj
 0001:0003cb96       ??_E?$moneypunct@_W$0A@@std@@MAEPAXI@Z 1003db96 f i libcpmt:wlocale.obj
 0001:0003cb96       ??_G?$moneypunct@_W$0A@@std@@MAEPAXI@Z 1003db96 f i libcpmt:wlocale.obj
 0001:0003cbcf       ??_G?$num_get@GV?$istreambuf_iterator@GU?$char_traits@G@std@@@std@@@std@@MAEPAXI@Z 1003dbcf f i libcpmt:wlocale.obj
 0001:0003cbcf       ??_E?$num_get@GV?$istreambuf_iterator@GU?$char_traits@G@std@@@std@@@std@@MAEPAXI@Z 1003dbcf f i libcpmt:wlocale.obj
 0001:0003cbfa       ??_G?$num_get@_WV?$istreambuf_iterator@_WU?$char_traits@_W@std@@@std@@@std@@MAEPAXI@Z 1003dbfa f i libcpmt:wlocale.obj
 0001:0003cbfa       ??_E?$num_get@_WV?$istreambuf_iterator@_WU?$char_traits@_W@std@@@std@@@std@@MAEPAXI@Z 1003dbfa f i libcpmt:wlocale.obj
 0001:0003cc25       ??_E?$num_put@GV?$ostreambuf_iterator@GU?$char_traits@G@std@@@std@@@std@@MAEPAXI@Z 1003dc25 f i libcpmt:wlocale.obj
 0001:0003cc25       ??_G?$num_put@GV?$ostreambuf_iterator@GU?$char_traits@G@std@@@std@@@std@@MAEPAXI@Z 1003dc25 f i libcpmt:wlocale.obj
 0001:0003cc50       ??_G?$num_put@_WV?$ostreambuf_iterator@_WU?$char_traits@_W@std@@@std@@@std@@MAEPAXI@Z 1003dc50 f i libcpmt:wlocale.obj
 0001:0003cc50       ??_E?$num_put@_WV?$ostreambuf_iterator@_WU?$char_traits@_W@std@@@std@@@std@@MAEPAXI@Z 1003dc50 f i libcpmt:wlocale.obj
 0001:0003cc7b       ??_E?$numpunct@G@std@@MAEPAXI@Z 1003dc7b f i libcpmt:wlocale.obj
 0001:0003cc7b       ??_G?$numpunct@G@std@@MAEPAXI@Z 1003dc7b f i libcpmt:wlocale.obj
 0001:0003ccb4       ??_G?$numpunct@_W@std@@MAEPAXI@Z 1003dcb4 f i libcpmt:wlocale.obj
 0001:0003ccb4       ??_E?$numpunct@_W@std@@MAEPAXI@Z 1003dcb4 f i libcpmt:wlocale.obj
 0001:0003cced       ??_E?$time_get@GV?$istreambuf_iterator@GU?$char_traits@G@std@@@std@@@std@@MAEPAXI@Z 1003dced f i libcpmt:wlocale.obj
 0001:0003cced       ??_G?$time_get@GV?$istreambuf_iterator@GU?$char_traits@G@std@@@std@@@std@@MAEPAXI@Z 1003dced f i libcpmt:wlocale.obj
 0001:0003cd26       ??_E?$time_get@_WV?$istreambuf_iterator@_WU?$char_traits@_W@std@@@std@@@std@@MAEPAXI@Z 1003dd26 f i libcpmt:wlocale.obj
 0001:0003cd26       ??_G?$time_get@_WV?$istreambuf_iterator@_WU?$char_traits@_W@std@@@std@@@std@@MAEPAXI@Z 1003dd26 f i libcpmt:wlocale.obj
 0001:0003cd5f       ??_G?$time_put@GV?$ostreambuf_iterator@GU?$char_traits@G@std@@@std@@@std@@MAEPAXI@Z 1003dd5f f i libcpmt:wlocale.obj
 0001:0003cd5f       ??_E?$time_put@GV?$ostreambuf_iterator@GU?$char_traits@G@std@@@std@@@std@@MAEPAXI@Z 1003dd5f f i libcpmt:wlocale.obj
 0001:0003cd89       ??_G?$time_put@_WV?$ostreambuf_iterator@_WU?$char_traits@_W@std@@@std@@@std@@MAEPAXI@Z 1003dd89 f i libcpmt:wlocale.obj
 0001:0003cd89       ??_E?$time_put@_WV?$ostreambuf_iterator@_WU?$char_traits@_W@std@@@std@@@std@@MAEPAXI@Z 1003dd89 f i libcpmt:wlocale.obj
 0001:0003cdb3       ??_Emessages_base@std@@UAEPAXI@Z 1003ddb3 f i libcpmt:wlocale.obj
 0001:0003cdb3       ??_Gmessages_base@std@@UAEPAXI@Z 1003ddb3 f i libcpmt:wlocale.obj
 0001:0003cdde       ??_Emoney_base@std@@UAEPAXI@Z 1003ddde f i libcpmt:wlocale.obj
 0001:0003cdde       ??_Gmoney_base@std@@UAEPAXI@Z 1003ddde f i libcpmt:wlocale.obj
 0001:0003ce09       ??_Etime_base@std@@UAEPAXI@Z 1003de09 f i libcpmt:wlocale.obj
 0001:0003ce09       ??_Gtime_base@std@@UAEPAXI@Z 1003de09 f i libcpmt:wlocale.obj
 0001:0003ce34       ?_Adopt@_Iterator_base0@std@@QAEXPBX@Z 1003de34 f i libcpmt:wlocale.obj
 0001:0003ce37       ?_C_str@?$_Yarn@_W@std@@QBEPB_WXZ 1003de37 f i libcpmt:wlocale.obj
 0001:0003ce43       ?_Calculate_growth@?$basic_string@GU?$char_traits@G@std@@V?$allocator@G@2@@std@@ABEII@Z 1003de43 f i libcpmt:wlocale.obj
 0001:0003ce63       ?_Calculate_growth@?$basic_string@GU?$char_traits@G@std@@V?$allocator@G@2@@std@@CAIIII@Z 1003de63 f i libcpmt:wlocale.obj
 0001:0003ce9f       ?_Calculate_growth@?$basic_string@_WU?$char_traits@_W@std@@V?$allocator@_W@2@@std@@ABEII@Z 1003de9f f i libcpmt:wlocale.obj
 0001:0003cebf       ?_Calculate_growth@?$basic_string@_WU?$char_traits@_W@std@@V?$allocator@_W@2@@std@@CAIIII@Z 1003debf f i libcpmt:wlocale.obj
 0001:0003cefb       ?_Check_offset@?$_String_val@U?$_Simple_types@G@std@@@std@@QBEXI@Z 1003defb f i libcpmt:wlocale.obj
 0001:0003cf15       ?_Check_offset@?$_String_val@U?$_Simple_types@_W@std@@@std@@QBEXI@Z 1003df15 f i libcpmt:wlocale.obj
 0001:0003cf2f       ?_Compat@?$_String_const_iterator@V?$_String_val@U?$_Simple_types@G@std@@@std@@@std@@QBEXABV12@@Z 1003df2f f i libcpmt:wlocale.obj
 0001:0003cf32       ?_Compat@?$_String_const_iterator@V?$_String_val@U?$_Simple_types@_W@std@@@std@@@std@@QBEXABV12@@Z 1003df32 f i libcpmt:wlocale.obj
 0001:0003cf35       ?_Construct_lv_contents@?$basic_string@GU?$char_traits@G@std@@V?$allocator@G@2@@std@@AAEXABV12@@Z 1003df35 f i libcpmt:wlocale.obj
 0001:0003cfb9       ?_Construct_lv_contents@?$basic_string@_WU?$char_traits@_W@std@@V?$allocator@_W@2@@std@@AAEXABV12@@Z 1003dfb9 f i libcpmt:wlocale.obj
 0001:0003d03d       ?_Donarrow@?$ctype@G@std@@IBEDGD@Z 1003e03d f i libcpmt:wlocale.obj
 0001:0003d097       ?_Donarrow@?$ctype@_W@std@@IBED_WD@Z 1003e097 f i libcpmt:wlocale.obj
 0001:0003d0f1       ?_Dowiden@?$ctype@G@std@@IBEGD@Z 1003e0f1 f i libcpmt:wlocale.obj
 0001:0003d13a       ?_Dowiden@?$ctype@_W@std@@IBE_WD@Z 1003e13a f i libcpmt:wlocale.obj
 0001:0003d181       ?_Empty@?$_Yarn@_W@std@@QBE_NXZ 1003e181 f i libcpmt:wlocale.obj
 0001:0003d188       ?_Eos@?$basic_string@GU?$char_traits@G@std@@V?$allocator@G@2@@std@@AAEXI@Z 1003e188 f i libcpmt:wlocale.obj
 0001:0003d1ac       ?_Eos@?$basic_string@_WU?$char_traits@_W@std@@V?$allocator@_W@2@@std@@AAEXI@Z 1003e1ac f i libcpmt:wlocale.obj
 0001:0003d1d0       ?_Ffmt@?$num_put@GV?$ostreambuf_iterator@GU?$char_traits@G@std@@@std@@@std@@ABAPADPADDH@Z 1003e1d0 f i libcpmt:wlocale.obj
 0001:0003d28a       ?_Ffmt@?$num_put@_WV?$ostreambuf_iterator@_WU?$char_traits@_W@std@@@std@@@std@@ABAPADPADDH@Z 1003e28a f i libcpmt:wlocale.obj
 0001:0003d344       ?_Fnv1a_append_bytes@std@@YAIIQBEI@Z 1003e344 f i libcpmt:wlocale.obj
 0001:0003d376       ?_Fput@?$num_put@GV?$ostreambuf_iterator@GU?$char_traits@G@std@@@std@@@std@@ABA?AV?$ostreambuf_iterator@GU?$char_traits@G@std@@@2@V32@AAVios_base@2@GPBDI@Z 1003e376 f i libcpmt:wlocale.obj
 0001:0003d795       ?_Fput@?$num_put@_WV?$ostreambuf_iterator@_WU?$char_traits@_W@std@@@std@@@std@@ABA?AV?$ostreambuf_iterator@_WU?$char_traits@_W@std@@@2@V32@AAVios_base@2@_WPBDI@Z 1003e795 f i libcpmt:wlocale.obj
 0001:0003dbb4       ?_Get_first@?$_Compressed_pair@V?$allocator@G@std@@V?$_String_val@U?$_Simple_types@G@std@@@2@$00@std@@QAEAAV?$allocator@G@2@XZ 1003ebb4 f i libcpmt:wlocale.obj
 0001:0003dbb7       ?_Get_first@?$_Compressed_pair@V?$allocator@G@std@@V?$_String_val@U?$_Simple_types@G@std@@@2@$00@std@@QBEABV?$allocator@G@2@XZ 1003ebb7 f i libcpmt:wlocale.obj
 0001:0003dbba       ?_Get_first@?$_Compressed_pair@V?$allocator@_W@std@@V?$_String_val@U?$_Simple_types@_W@std@@@2@$00@std@@QAEAAV?$allocator@_W@2@XZ 1003ebba f i libcpmt:wlocale.obj
 0001:0003dbbd       ?_Get_first@?$_Compressed_pair@V?$allocator@_W@std@@V?$_String_val@U?$_Simple_types@_W@std@@@2@$00@std@@QBEABV?$allocator@_W@2@XZ 1003ebbd f i libcpmt:wlocale.obj
 0001:0003dbc0       ?_Getal@?$basic_string@GU?$char_traits@G@std@@V?$allocator@G@2@@std@@AAEAAV?$allocator@G@2@XZ 1003ebc0 f i libcpmt:wlocale.obj
 0001:0003dbc3       ?_Getal@?$basic_string@GU?$char_traits@G@std@@V?$allocator@G@2@@std@@ABEABV?$allocator@G@2@XZ 1003ebc3 f i libcpmt:wlocale.obj
 0001:0003dbc6       ?_Getal@?$basic_string@_WU?$char_traits@_W@std@@V?$allocator@_W@2@@std@@AAEAAV?$allocator@_W@2@XZ 1003ebc6 f i libcpmt:wlocale.obj
 0001:0003dbc9       ?_Getal@?$basic_string@_WU?$char_traits@_W@std@@V?$allocator@_W@2@@std@@ABEABV?$allocator@_W@2@XZ 1003ebc9 f i libcpmt:wlocale.obj
 0001:0003dbcc       ?_Getcat@?$codecvt@GDU_Mbstatet@@@std@@SAIPAPBVfacet@locale@2@PBV42@@Z 1003ebcc f i libcpmt:wlocale.obj
 0001:0003dc4b       ?_Getcat@?$codecvt@_WDU_Mbstatet@@@std@@SAIPAPBVfacet@locale@2@PBV42@@Z 1003ec4b f i libcpmt:wlocale.obj
 0001:0003dcca       ?_Getcat@?$collate@G@std@@SAIPAPBVfacet@locale@2@PBV42@@Z 1003ecca f i libcpmt:wlocale.obj
 0001:0003dd94       ?_Getcat@?$collate@_W@std@@SAIPAPBVfacet@locale@2@PBV42@@Z 1003ed94 f i libcpmt:wlocale.obj
 0001:0003de5e       ?_Getcat@?$ctype@G@std@@SAIPAPBVfacet@locale@2@PBV42@@Z 1003ee5e f i libcpmt:wlocale.obj
 0001:0003deea       ?_Getcat@?$ctype@_W@std@@SAIPAPBVfacet@locale@2@PBV42@@Z 1003eeea f i libcpmt:wlocale.obj
 0001:0003df76       ?_Getcat@?$messages@G@std@@SAIPAPBVfacet@locale@2@PBV42@@Z 1003ef76 f i libcpmt:wlocale.obj
 0001:0003dff8       ?_Getcat@?$messages@_W@std@@SAIPAPBVfacet@locale@2@PBV42@@Z 1003eff8 f i libcpmt:wlocale.obj
 0001:0003e07a       ?_Getcat@?$money_get@GV?$istreambuf_iterator@GU?$char_traits@G@std@@@std@@@std@@SAIPAPBVfacet@locale@2@PBV42@@Z 1003f07a f i libcpmt:wlocale.obj
 0001:0003e0fc       ?_Getcat@?$money_get@_WV?$istreambuf_iterator@_WU?$char_traits@_W@std@@@std@@@std@@SAIPAPBVfacet@locale@2@PBV42@@Z 1003f0fc f i libcpmt:wlocale.obj
 0001:0003e17e       ?_Getcat@?$money_put@GV?$ostreambuf_iterator@GU?$char_traits@G@std@@@std@@@std@@SAIPAPBVfacet@locale@2@PBV42@@Z 1003f17e f i libcpmt:wlocale.obj
 0001:0003e200       ?_Getcat@?$money_put@_WV?$ostreambuf_iterator@_WU?$char_traits@_W@std@@@std@@@std@@SAIPAPBVfacet@locale@2@PBV42@@Z 1003f200 f i libcpmt:wlocale.obj
 0001:0003e282       ?_Getcat@?$moneypunct@G$00@std@@SAIPAPBVfacet@locale@2@PBV42@@Z 1003f282 f i libcpmt:wlocale.obj
 0001:0003e327       ?_Getcat@?$moneypunct@G$0A@@std@@SAIPAPBVfacet@locale@2@PBV42@@Z 1003f327 f i libcpmt:wlocale.obj
 0001:0003e3cd       ?_Getcat@?$moneypunct@_W$00@std@@SAIPAPBVfacet@locale@2@PBV42@@Z 1003f3cd f i libcpmt:wlocale.obj
 0001:0003e472       ?_Getcat@?$moneypunct@_W$0A@@std@@SAIPAPBVfacet@locale@2@PBV42@@Z 1003f472 f i libcpmt:wlocale.obj
 0001:0003e518       ?_Getcat@?$num_get@GV?$istreambuf_iterator@GU?$char_traits@G@std@@@std@@@std@@SAIPAPBVfacet@locale@2@PBV42@@Z 1003f518 f i libcpmt:wlocale.obj
 0001:0003e59a       ?_Getcat@?$num_get@_WV?$istreambuf_iterator@_WU?$char_traits@_W@std@@@std@@@std@@SAIPAPBVfacet@locale@2@PBV42@@Z 1003f59a f i libcpmt:wlocale.obj
 0001:0003e61c       ?_Getcat@?$num_put@GV?$ostreambuf_iterator@GU?$char_traits@G@std@@@std@@@std@@SAIPAPBVfacet@locale@2@PBV42@@Z 1003f61c f i libcpmt:wlocale.obj
 0001:0003e69e       ?_Getcat@?$num_put@_WV?$ostreambuf_iterator@_WU?$char_traits@_W@std@@@std@@@std@@SAIPAPBVfacet@locale@2@PBV42@@Z 1003f69e f i libcpmt:wlocale.obj
 0001:0003e720       ?_Getcat@?$numpunct@G@std@@SAIPAPBVfacet@locale@2@PBV42@@Z 1003f720 f i libcpmt:wlocale.obj
 0001:0003e7b9       ?_Getcat@?$numpunct@_W@std@@SAIPAPBVfacet@locale@2@PBV42@@Z 1003f7b9 f i libcpmt:wlocale.obj
 0001:0003e852       ?_Getcat@?$time_get@GV?$istreambuf_iterator@GU?$char_traits@G@std@@@std@@@std@@SAIPAPBVfacet@locale@2@PBV42@@Z 1003f852 f i libcpmt:wlocale.obj
 0001:0003e8d9       ?_Getcat@?$time_get@_WV?$istreambuf_iterator@_WU?$char_traits@_W@std@@@std@@@std@@SAIPAPBVfacet@locale@2@PBV42@@Z 1003f8d9 f i libcpmt:wlocale.obj
 0001:0003e960       ?_Getcat@?$time_put@GV?$ostreambuf_iterator@GU?$char_traits@G@std@@@std@@@std@@SAIPAPBVfacet@locale@2@PBV42@@Z 1003f960 f i libcpmt:wlocale.obj
 0001:0003e9f1       ?_Getcat@?$time_put@_WV?$ostreambuf_iterator@_WU?$char_traits@_W@std@@@std@@@std@@SAIPAPBVfacet@locale@2@PBV42@@Z 1003f9f1 f i libcpmt:wlocale.obj
 0001:0003ea82       ?_Getcoll@_Locinfo@std@@QBE?AU_Collvec@@XZ 1003fa82 f i libcpmt:wlocale.obj
 0001:0003ea9d       ?_Getdateorder@_Locinfo@std@@QBEHXZ 1003fa9d f i libcpmt:wlocale.obj
 0001:0003eaa2       ?_Getdays@_Locinfo@std@@QBEPBDXZ 1003faa2 f i libcpmt:wlocale.obj
 0001:0003eadb       ?_Getffld@?$num_get@GV?$istreambuf_iterator@GU?$char_traits@G@std@@@std@@@std@@ABAHPADAAV?$istreambuf_iterator@GU?$char_traits@G@std@@@2@1AAVios_base@2@PAH@Z 1003fadb f i libcpmt:wlocale.obj
 0001:0003f399       ?_Getffld@?$num_get@_WV?$istreambuf_iterator@_WU?$char_traits@_W@std@@@std@@@std@@ABAHPADAAV?$istreambuf_iterator@_WU?$char_traits@_W@std@@@2@1AAVios_base@2@PAH@Z 10040399 f i libcpmt:wlocale.obj
 0001:0003fc57       ?_Getffldx@?$num_get@GV?$istreambuf_iterator@GU?$char_traits@G@std@@@std@@@std@@ABAHPADAAV?$istreambuf_iterator@GU?$char_traits@G@std@@@2@1AAVios_base@2@PAH@Z 10040c57 f i libcpmt:wlocale.obj
 0001:000405bd       ?_Getffldx@?$num_get@_WV?$istreambuf_iterator@_WU?$char_traits@_W@std@@@std@@@std@@ABAHPADAAV?$istreambuf_iterator@_WU?$char_traits@_W@std@@@2@1AAVios_base@2@PAH@Z 100415bd f i libcpmt:wlocale.obj
 0001:00040f23       ?_Getfmt@?$time_get@GV?$istreambuf_iterator@GU?$char_traits@G@std@@@std@@@std@@IBE?AV?$istreambuf_iterator@GU?$char_traits@G@std@@@2@V32@0AAVios_base@2@AAHPAUtm@@PBD@Z 10041f23 f i libcpmt:wlocale.obj
 0001:000410cd       ?_Getfmt@?$time_get@_WV?$istreambuf_iterator@_WU?$char_traits@_W@std@@@std@@@std@@IBE?AV?$istreambuf_iterator@_WU?$char_traits@_W@std@@@2@V32@0AAVios_base@2@AAHPAUtm@@PBD@Z 100420cd f i libcpmt:wlocale.obj
 0001:00041277       ?_Getifld@?$num_get@GV?$istreambuf_iterator@GU?$char_traits@G@std@@@std@@@std@@ABAHPADAAV?$istreambuf_iterator@GU?$char_traits@G@std@@@2@1HABVlocale@2@@Z 10042277 f i libcpmt:wlocale.obj
 0001:000417a2       ?_Getifld@?$num_get@_WV?$istreambuf_iterator@_WU?$char_traits@_W@std@@@std@@@std@@ABAHPADAAV?$istreambuf_iterator@_WU?$char_traits@_W@std@@@2@1HABVlocale@2@@Z 100427a2 f i libcpmt:wlocale.obj
 0001:00041ccd       ?_Getint@?$time_get@GV?$istreambuf_iterator@GU?$char_traits@G@std@@@std@@@std@@ABAHAAV?$istreambuf_iterator@GU?$char_traits@G@std@@@2@0HHAAHABV?$ctype@G@2@@Z 10042ccd f i libcpmt:wlocale.obj
 0001:00041eef       ?_Getint@?$time_get@_WV?$istreambuf_iterator@_WU?$char_traits@_W@std@@@std@@@std@@ABAHAAV?$istreambuf_iterator@_WU?$char_traits@_W@std@@@2@0HHAAHABV?$ctype@_W@2@@Z 10042eef f i libcpmt:wlocale.obj
 0001:00042111       ?_Getmfld@?$money_get@GV?$istreambuf_iterator@GU?$char_traits@G@std@@@std@@@std@@ABE?AV?$basic_string@DU?$char_traits@D@std@@V?$allocator@D@2@@2@AAV?$istreambuf_iterator@GU?$char_traits@G@std@@@2@0_NAAVios_base@2@AAY0M@G@Z 10043111 f i libcpmt:wlocale.obj
 0001:00042ef9       ?_Getmfld@?$money_get@_WV?$istreambuf_iterator@_WU?$char_traits@_W@std@@@std@@@std@@ABE?AV?$basic_string@DU?$char_traits@D@std@@V?$allocator@D@2@@2@AAV?$istreambuf_iterator@_WU?$char_traits@_W@std@@@2@0_NAAVios_base@2@AAY0M@_W@Z 10043ef9 f i libcpmt:wlocale.obj
 0001:00043ce1       ?_Getmonths@_Locinfo@std@@QBEPBDXZ 10044ce1 f i libcpmt:wlocale.obj
 0001:00043d1a       ?_Getptr@_Timevec@std@@QBEPAXXZ 10044d1a f i libcpmt:wlocale.obj
 0001:00043d1d       ?_Getvals@?$_Mpunct@_W@std@@IAEX_WPBUlconv@@@Z 10044d1d f i libcpmt:wlocale.obj
 0001:00043da4       ?_Getvals@?$numpunct@_W@std@@IAEX_WPBUlconv@@U_Cvtvec@@@Z 10044da4 f i libcpmt:wlocale.obj
 0001:00043dc9       ?_Gnavail@?$basic_streambuf@GU?$char_traits@G@std@@@std@@IBE_JXZ 10044dc9 f i libcpmt:wlocale.obj
 0001:00043ddf       ?_Gnavail@?$basic_streambuf@_WU?$char_traits@_W@std@@@std@@IBE_JXZ 10044ddf f i libcpmt:wlocale.obj
 0001:00043df5       ?_Gninc@?$basic_streambuf@GU?$char_traits@G@std@@@std@@IAEPAGXZ 10044df5 f i libcpmt:wlocale.obj
 0001:00043e09       ?_Gninc@?$basic_streambuf@_WU?$char_traits@_W@std@@@std@@IAEPA_WXZ 10044e09 f i libcpmt:wlocale.obj
 0001:00043e1d       ?_Ifmt@?$num_put@GV?$ostreambuf_iterator@GU?$char_traits@G@std@@@std@@@std@@ABAPADPADPBDH@Z 10044e1d f i libcpmt:wlocale.obj
 0001:00043eaf       ?_Ifmt@?$num_put@_WV?$ostreambuf_iterator@_WU?$char_traits@_W@std@@@std@@@std@@ABAPADPADPBDH@Z 10044eaf f i libcpmt:wlocale.obj
 0001:00043f41       ?_Inc@?$istreambuf_iterator@GU?$char_traits@G@std@@@std@@AAEXXZ 10044f41 f i libcpmt:wlocale.obj
 0001:00043f70       ?_Inc@?$istreambuf_iterator@_WU?$char_traits@_W@std@@@std@@AAEXXZ 10044f70 f i libcpmt:wlocale.obj
 0001:00043f9f       ?_Init@?$_Mpunct@G@std@@IAEXABV_Locinfo@2@_N@Z 10044f9f f i libcpmt:wlocale.obj
 0001:0004409c       ?_Init@?$_Mpunct@_W@std@@IAEXABV_Locinfo@2@_N@Z 1004509c f i libcpmt:wlocale.obj
 0001:00044199       ?_Init@?$codecvt@GDU_Mbstatet@@@std@@IAEXABV_Locinfo@2@@Z 10045199 f i libcpmt:wlocale.obj
 0001:000441c6       ?_Init@?$codecvt@_WDU_Mbstatet@@@std@@IAEXABV_Locinfo@2@@Z 100451c6 f i libcpmt:wlocale.obj
 0001:000441f3       ?_Init@?$collate@G@std@@IAEXABV_Locinfo@2@@Z 100451f3 f i libcpmt:wlocale.obj
 0001:00044209       ?_Init@?$collate@_W@std@@IAEXABV_Locinfo@2@@Z 10045209 f i libcpmt:wlocale.obj
 0001:0004421f       ?_Init@?$ctype@G@std@@IAEXABV_Locinfo@2@@Z 1004521f f i libcpmt:wlocale.obj
 0001:00044266       ?_Init@?$ctype@_W@std@@IAEXABV_Locinfo@2@@Z 10045266 f i libcpmt:wlocale.obj
 0001:000442ad       ?_Init@?$messages@G@std@@IAEXABV_Locinfo@2@@Z 100452ad f i libcpmt:wlocale.obj
 0001:000442b0       ?_Init@?$messages@_W@std@@IAEXABV_Locinfo@2@@Z 100452b0 f i libcpmt:wlocale.obj
 0001:000442b3       ?_Init@?$money_get@GV?$istreambuf_iterator@GU?$char_traits@G@std@@@std@@@std@@IAEXABV_Locinfo@2@@Z 100452b3 f i libcpmt:wlocale.obj
 0001:000442b6       ?_Init@?$money_get@_WV?$istreambuf_iterator@_WU?$char_traits@_W@std@@@std@@@std@@IAEXABV_Locinfo@2@@Z 100452b6 f i libcpmt:wlocale.obj
 0001:000442b9       ?_Init@?$money_put@GV?$ostreambuf_iterator@GU?$char_traits@G@std@@@std@@@std@@IAEXABV_Locinfo@2@@Z 100452b9 f i libcpmt:wlocale.obj
 0001:000442bc       ?_Init@?$money_put@_WV?$ostreambuf_iterator@_WU?$char_traits@_W@std@@@std@@@std@@IAEXABV_Locinfo@2@@Z 100452bc f i libcpmt:wlocale.obj
 0001:000442bf       ?_Init@?$num_get@GV?$istreambuf_iterator@GU?$char_traits@G@std@@@std@@@std@@IAEXABV_Locinfo@2@@Z 100452bf f i libcpmt:wlocale.obj
 0001:000442c2       ?_Init@?$num_get@_WV?$istreambuf_iterator@_WU?$char_traits@_W@std@@@std@@@std@@IAEXABV_Locinfo@2@@Z 100452c2 f i libcpmt:wlocale.obj
 0001:000442c5       ?_Init@?$num_put@GV?$ostreambuf_iterator@GU?$char_traits@G@std@@@std@@@std@@IAEXABV_Locinfo@2@@Z 100452c5 f i libcpmt:wlocale.obj
 0001:000442c8       ?_Init@?$num_put@_WV?$ostreambuf_iterator@_WU?$char_traits@_W@std@@@std@@@std@@IAEXABV_Locinfo@2@@Z 100452c8 f i libcpmt:wlocale.obj
 0001:000442cb       ?_Init@?$numpunct@G@std@@IAEXABV_Locinfo@2@_N@Z 100452cb f i libcpmt:wlocale.obj
 0001:000443da       ?_Init@?$numpunct@_W@std@@IAEXABV_Locinfo@2@_N@Z 100453da f i libcpmt:wlocale.obj
 0001:000444df       ?_Init@?$time_get@GV?$istreambuf_iterator@GU?$char_traits@G@std@@@std@@@std@@IAEXABV_Locinfo@2@@Z 100454df f i libcpmt:wlocale.obj
 0001:00044525       ?_Init@?$time_get@_WV?$istreambuf_iterator@_WU?$char_traits@_W@std@@@std@@@std@@IAEXABV_Locinfo@2@@Z 10045525 f i libcpmt:wlocale.obj
 0001:0004456b       ?_Init@?$time_put@GV?$ostreambuf_iterator@GU?$char_traits@G@std@@@std@@@std@@IAEXABV_Locinfo@2@@Z 1004556b f i libcpmt:wlocale.obj
 0001:0004459e       ?_Init@?$time_put@_WV?$ostreambuf_iterator@_WU?$char_traits@_W@std@@@std@@@std@@IAEXABV_Locinfo@2@@Z 1004559e f i libcpmt:wlocale.obj
 0001:000445d1       ?_Iput@?$num_put@GV?$ostreambuf_iterator@GU?$char_traits@G@std@@@std@@@std@@ABA?AV?$ostreambuf_iterator@GU?$char_traits@G@std@@@2@V32@AAVios_base@2@GPADI@Z 100455d1 f i libcpmt:wlocale.obj
 0001:00044971       ?_Iput@?$num_put@_WV?$ostreambuf_iterator@_WU?$char_traits@_W@std@@@std@@@std@@ABA?AV?$ostreambuf_iterator@_WU?$char_traits@_W@std@@@2@V32@AAVios_base@2@_WPADI@Z 10045971 f i libcpmt:wlocale.obj
 0001:00044d11       ?_Large_string_engaged@?$_String_val@U?$_Simple_types@G@std@@@std@@QBE_NXZ 10045d11 f i libcpmt:wlocale.obj
 0001:00044d1c       ?_Large_string_engaged@?$_String_val@U?$_Simple_types@_W@std@@@std@@QBE_NXZ 10045d1c f i libcpmt:wlocale.obj
 0001:00044d27       ?_Makeushloc@_Locimp@locale@std@@CAXABV_Locinfo@3@HPAV123@PBV23@@Z 10045d27 f   libcpmt:wlocale.obj
 0001:000453a4       ?_Makewloc@_Locimp@locale@std@@CAXABV_Locinfo@3@HPAV123@PBV23@@Z 100463a4 f   libcpmt:wlocale.obj
 0001:00045a21       ?_Maklocwcs@std@@YAPA_WPB_W@Z 10046a21 f i libcpmt:wlocale.obj
 0001:00045a7c       ?_Makpat@?$_Mpunct@G@std@@AAEXAAUpattern@money_base@2@III@Z 10046a7c f i libcpmt:wlocale.obj
 0001:00045acd       ?_Makpat@?$_Mpunct@_W@std@@AAEXAAUpattern@money_base@2@III@Z 10046acd f i libcpmt:wlocale.obj
 0001:00045b1e       ?_Memcpy_val_from@?$basic_string@GU?$char_traits@G@std@@V?$allocator@G@2@@std@@AAEXABV12@@Z 10046b1e f i libcpmt:wlocale.obj
 0001:00045b38       ?_Memcpy_val_from@?$basic_string@_WU?$char_traits@_W@std@@V?$allocator@_W@2@@std@@AAEXABV12@@Z 10046b38 f i libcpmt:wlocale.obj
 0001:00045b52       ?_Move_assign@?$basic_string@GU?$char_traits@G@std@@V?$allocator@G@2@@std@@AAEXAAV12@U_Equal_allocators@2@@Z 10046b52 f i libcpmt:wlocale.obj
 0001:00045b89       ?_Move_assign@?$basic_string@_WU?$char_traits@_W@std@@V?$allocator@_W@2@@std@@AAEXAAV12@U_Equal_allocators@2@@Z 10046b89 f i libcpmt:wlocale.obj
 0001:00045bc0       ?_Myptr@?$_String_val@U?$_Simple_types@G@std@@@std@@QAEPAGXZ 10046bc0 f i libcpmt:wlocale.obj
 0001:00045bcd       ?_Myptr@?$_String_val@U?$_Simple_types@G@std@@@std@@QBEPBGXZ 10046bcd f i libcpmt:wlocale.obj
 0001:00045bda       ?_Myptr@?$_String_val@U?$_Simple_types@_W@std@@@std@@QAEPA_WXZ 10046bda f i libcpmt:wlocale.obj
 0001:00045be7       ?_Myptr@?$_String_val@U?$_Simple_types@_W@std@@@std@@QBEPB_WXZ 10046be7 f i libcpmt:wlocale.obj
 0001:00045bf4       ?_Peek@?$istreambuf_iterator@GU?$char_traits@G@std@@@std@@ABEGXZ 10046bf4 f i libcpmt:wlocale.obj
 0001:00045c2d       ?_Peek@?$istreambuf_iterator@_WU?$char_traits@_W@std@@@std@@ABE_WXZ 10046c2d f i libcpmt:wlocale.obj
 0001:00045c66       ?_Pnavail@?$basic_streambuf@GU?$char_traits@G@std@@@std@@IBE_JXZ 10046c66 f i libcpmt:wlocale.obj
 0001:00045c7c       ?_Pnavail@?$basic_streambuf@_WU?$char_traits@_W@std@@@std@@IBE_JXZ 10046c7c f i libcpmt:wlocale.obj
 0001:00045c92       ?_Pninc@?$basic_streambuf@GU?$char_traits@G@std@@@std@@IAEPAGXZ 10046c92 f i libcpmt:wlocale.obj
 0001:00045ca6       ?_Pninc@?$basic_streambuf@_WU?$char_traits@_W@std@@@std@@IAEPA_WXZ 10046ca6 f i libcpmt:wlocale.obj
 0001:00045cba       ?_Put@?$money_put@GV?$ostreambuf_iterator@GU?$char_traits@G@std@@@std@@@std@@CA?AV?$ostreambuf_iterator@GU?$char_traits@G@std@@@2@V32@V?$_String_const_iterator@V?$_String_val@U?$_Simple_types@G@std@@@std@@@2@I@Z 10046cba f i libcpmt:wlocale.obj
 0001:00045d01       ?_Put@?$money_put@_WV?$ostreambuf_iterator@_WU?$char_traits@_W@std@@@std@@@std@@CA?AV?$ostreambuf_iterator@_WU?$char_traits@_W@std@@@2@V32@V?$_String_const_iterator@V?$_String_val@U?$_Simple_types@_W@std@@@std@@@2@I@Z 10046d01 f i libcpmt:wlocale.obj
 0001:00045d48       ?_Put@?$num_put@GV?$ostreambuf_iterator@GU?$char_traits@G@std@@@std@@@std@@ABA?AV?$ostreambuf_iterator@GU?$char_traits@G@std@@@2@V32@PBGI@Z 10046d48 f i libcpmt:wlocale.obj
 0001:00045d8a       ?_Put@?$num_put@_WV?$ostreambuf_iterator@_WU?$char_traits@_W@std@@@std@@@std@@ABA?AV?$ostreambuf_iterator@_WU?$char_traits@_W@std@@@2@V32@PB_WI@Z 10046d8a f i libcpmt:wlocale.obj
 0001:00045dcc       ?_Putmfld@?$money_put@GV?$ostreambuf_iterator@GU?$char_traits@G@std@@@std@@@std@@ABE?AV?$ostreambuf_iterator@GU?$char_traits@G@std@@@2@V32@_NAAVios_base@2@G1V?$basic_string@GU?$char_traits@G@std@@V?$allocator@G@2@@2@G@Z 10046dcc f i libcpmt:wlocale.obj
 0001:00046589       ?_Putmfld@?$money_put@_WV?$ostreambuf_iterator@_WU?$char_traits@_W@std@@@std@@@std@@ABE?AV?$ostreambuf_iterator@_WU?$char_traits@_W@std@@@2@V32@_NAAVios_base@2@_W1V?$basic_string@_WU?$char_traits@_W@std@@V?$allocator@_W@2@@2@3@Z 10047589 f i libcpmt:wlocale.obj
 0001:00046d46       ?_Rep@?$money_put@GV?$ostreambuf_iterator@GU?$char_traits@G@std@@@std@@@std@@CA?AV?$ostreambuf_iterator@GU?$char_traits@G@std@@@2@V32@GI@Z 10047d46 f i libcpmt:wlocale.obj
 0001:00046d7d       ?_Rep@?$money_put@_WV?$ostreambuf_iterator@_WU?$char_traits@_W@std@@@std@@@std@@CA?AV?$ostreambuf_iterator@_WU?$char_traits@_W@std@@@2@V32@_WI@Z 10047d7d f i libcpmt:wlocale.obj
 0001:00046db4       ?_Rep@?$num_put@GV?$ostreambuf_iterator@GU?$char_traits@G@std@@@std@@@std@@ABA?AV?$ostreambuf_iterator@GU?$char_traits@G@std@@@2@V32@GI@Z 10047db4 f i libcpmt:wlocale.obj
 0001:00046deb       ?_Rep@?$num_put@_WV?$ostreambuf_iterator@_WU?$char_traits@_W@std@@@std@@@std@@ABA?AV?$ostreambuf_iterator@_WU?$char_traits@_W@std@@@2@V32@_WI@Z 10047deb f i libcpmt:wlocale.obj
 0001:00046e22       ?_Take_contents@?$basic_string@GU?$char_traits@G@std@@V?$allocator@G@2@@std@@AAEXAAV12@U?$integral_constant@_N$00@2@@Z 10047e22 f i libcpmt:wlocale.obj
 0001:00046e52       ?_Take_contents@?$basic_string@_WU?$char_traits@_W@std@@V?$allocator@_W@2@@std@@AAEXAAV12@U?$integral_constant@_N$00@2@@Z 10047e52 f i libcpmt:wlocale.obj
 0001:00046e82       ?_Tidy@?$_Mpunct@G@std@@AAEXXZ 10047e82 f i libcpmt:wlocale.obj
 0001:00046eb4       ?_Tidy@?$_Mpunct@_W@std@@AAEXXZ 10047eb4 f i libcpmt:wlocale.obj
 0001:00046ee6       ?_Tidy@?$numpunct@G@std@@AAEXXZ 10047ee6 f i libcpmt:wlocale.obj
 0001:00046f0e       ?_Tidy@?$numpunct@_W@std@@AAEXXZ 10047f0e f i libcpmt:wlocale.obj
 0001:00046f36       ?_Tidy@?$time_get@GV?$istreambuf_iterator@GU?$char_traits@G@std@@@std@@@std@@AAEXXZ 10047f36 f i libcpmt:wlocale.obj
 0001:00046f5e       ?_Tidy@?$time_get@_WV?$istreambuf_iterator@_WU?$char_traits@_W@std@@@std@@@std@@AAEXXZ 10047f5e f i libcpmt:wlocale.obj
 0001:00046f86       ?_Tidy_deallocate@?$basic_string@GU?$char_traits@G@std@@V?$allocator@G@2@@std@@AAEXXZ 10047f86 f i libcpmt:wlocale.obj
 0001:00046fbf       ?_Tidy_deallocate@?$basic_string@_WU?$char_traits@_W@std@@V?$allocator@_W@2@@std@@AAEXXZ 10047fbf f i libcpmt:wlocale.obj
 0001:00046ff8       ?_Tidy_init@?$basic_string@GU?$char_traits@G@std@@V?$allocator@G@2@@std@@AAEXXZ 10047ff8 f i libcpmt:wlocale.obj
 0001:0004700d       ?_Tidy_init@?$basic_string@_WU?$char_traits@_W@std@@V?$allocator@_W@2@@std@@AAEXXZ 1004800d f i libcpmt:wlocale.obj
 0001:00047022       ?_W_Getdays@_Locinfo@std@@QBEPBGXZ 10048022 f i libcpmt:wlocale.obj
 0001:0004705b       ?_W_Getmonths@_Locinfo@std@@QBEPBGXZ 1004805b f i libcpmt:wlocale.obj
 0001:00047094       ?_W_Gettnames@_Locinfo@std@@QBE?AV_Timevec@2@XZ 10048094 f i libcpmt:wlocale.obj
 0001:000470ab       ?_Xran@?$_String_val@U?$_Simple_types@G@std@@@std@@SAXXZ 100480ab f i libcpmt:wlocale.obj
 0001:000470b8       ?_Xran@?$_String_val@U?$_Simple_types@_W@std@@@std@@SAXXZ 100480b8 f i libcpmt:wlocale.obj
 0001:000470c5       ?allocate@?$allocator@G@std@@QAEPAGI@Z 100480c5 f i libcpmt:wlocale.obj
 0001:000470ed       ?allocate@?$allocator@_W@std@@QAEPA_WI@Z 100480ed f i libcpmt:wlocale.obj
 0001:00047115       ?append@?$basic_string@GU?$char_traits@G@std@@V?$allocator@G@2@@std@@QAEAAV12@ABV12@@Z 10048115 f i libcpmt:wlocale.obj
 0001:00047138       ?append@?$basic_string@GU?$char_traits@G@std@@V?$allocator@G@2@@std@@QAEAAV12@IG@Z 10048138 f i libcpmt:wlocale.obj
 0001:000471a6       ?append@?$basic_string@GU?$char_traits@G@std@@V?$allocator@G@2@@std@@QAEAAV12@QBGI@Z 100481a6 f i libcpmt:wlocale.obj
 0001:00047217       ?append@?$basic_string@_WU?$char_traits@_W@std@@V?$allocator@_W@2@@std@@QAEAAV12@ABV12@@Z 10048217 f i libcpmt:wlocale.obj
 0001:0004723a       ?append@?$basic_string@_WU?$char_traits@_W@std@@V?$allocator@_W@2@@std@@QAEAAV12@I_W@Z 1004823a f i libcpmt:wlocale.obj
 0001:000472a8       ?append@?$basic_string@_WU?$char_traits@_W@std@@V?$allocator@_W@2@@std@@QAEAAV12@QB_WI@Z 100482a8 f i libcpmt:wlocale.obj
 0001:00047319       ?assign@?$_WChar_traits@G@std@@SAPAGQAGIG@Z 10048319 f i libcpmt:wlocale.obj
 0001:00047334       ?assign@?$_WChar_traits@G@std@@SAXAAGABG@Z 10048334 f i libcpmt:wlocale.obj
 0001:00047349       ?assign@?$_WChar_traits@_W@std@@SAPA_WQA_WI_W@Z 10048349 f i libcpmt:wlocale.obj
 0001:00047364       ?assign@?$_WChar_traits@_W@std@@SAXAA_WAB_W@Z 10048364 f i libcpmt:wlocale.obj
 0001:00047379       ?assign@?$basic_string@GU?$char_traits@G@std@@V?$allocator@G@2@@std@@QAEAAV12@$$QAV12@@Z 10048379 f i libcpmt:wlocale.obj
 0001:00047393       ?assign@?$basic_string@GU?$char_traits@G@std@@V?$allocator@G@2@@std@@QAEAAV12@IG@Z 10048393 f i libcpmt:wlocale.obj
 0001:000473ed       ?assign@?$basic_string@GU?$char_traits@G@std@@V?$allocator@G@2@@std@@QAEAAV12@QBG@Z 100483ed f i libcpmt:wlocale.obj
 0001:00047420       ?assign@?$basic_string@GU?$char_traits@G@std@@V?$allocator@G@2@@std@@QAEAAV12@QBGI@Z 10048420 f i libcpmt:wlocale.obj
 0001:0004747d       ?assign@?$basic_string@_WU?$char_traits@_W@std@@V?$allocator@_W@2@@std@@QAEAAV12@$$QAV12@@Z 1004847d f i libcpmt:wlocale.obj
 0001:00047497       ?assign@?$basic_string@_WU?$char_traits@_W@std@@V?$allocator@_W@2@@std@@QAEAAV12@I_W@Z 10048497 f i libcpmt:wlocale.obj
 0001:000474f1       ?assign@?$basic_string@_WU?$char_traits@_W@std@@V?$allocator@_W@2@@std@@QAEAAV12@QB_W@Z 100484f1 f i libcpmt:wlocale.obj
 0001:00047521       ?assign@?$basic_string@_WU?$char_traits@_W@std@@V?$allocator@_W@2@@std@@QAEAAV12@QB_WI@Z 10048521 f i libcpmt:wlocale.obj
 0001:0004757e       ?begin@?$basic_string@GU?$char_traits@G@std@@V?$allocator@G@2@@std@@QAE?AV?$_String_iterator@V?$_String_val@U?$_Simple_types@G@std@@@std@@@2@XZ 1004857e f i libcpmt:wlocale.obj
 0001:00047597       ?begin@?$basic_string@_WU?$char_traits@_W@std@@V?$allocator@_W@2@@std@@QAE?AV?$_String_iterator@V?$_String_val@U?$_Simple_types@_W@std@@@std@@@2@XZ 10048597 f i libcpmt:wlocale.obj
 0001:000475b0       ?c_str@?$basic_string@GU?$char_traits@G@std@@V?$allocator@G@2@@std@@QBEPBGXZ 100485b0 f i libcpmt:wlocale.obj
 0001:000475bd       ?c_str@?$basic_string@_WU?$char_traits@_W@std@@V?$allocator@_W@2@@std@@QBEPB_WXZ 100485bd f i libcpmt:wlocale.obj
 0001:000475ca       ?copy@?$_WChar_traits@G@std@@SAPAGQAGQBGI@Z 100485ca f i libcpmt:wlocale.obj
 0001:000475e9       ?copy@?$_WChar_traits@_W@std@@SAPA_WQA_WQB_WI@Z 100485e9 f i libcpmt:wlocale.obj
 0001:00047608       ?curr_symbol@?$_Mpunct@G@std@@QBE?AV?$basic_string@GU?$char_traits@G@std@@V?$allocator@G@2@@2@XZ 10048608 f i libcpmt:wlocale.obj
 0001:00047635       ?curr_symbol@?$_Mpunct@_W@std@@QBE?AV?$basic_string@_WU?$char_traits@_W@std@@V?$allocator@_W@2@@2@XZ 10048635 f i libcpmt:wlocale.obj
 0001:00047662       ?date_order@?$time_get@GV?$istreambuf_iterator@GU?$char_traits@G@std@@@std@@@std@@QBE?AW4dateorder@time_base@2@XZ 10048662 f i libcpmt:wlocale.obj
 0001:00047680       ?date_order@?$time_get@_WV?$istreambuf_iterator@_WU?$char_traits@_W@std@@@std@@@std@@QBE?AW4dateorder@time_base@2@XZ 10048680 f i libcpmt:wlocale.obj
 0001:0004769e       ?deallocate@?$allocator@G@std@@QAEXQAGI@Z 1004869e f i libcpmt:wlocale.obj
 0001:000476ba       ?deallocate@?$allocator@_W@std@@QAEXQA_WI@Z 100486ba f i libcpmt:wlocale.obj
 0001:000476d6       ?decimal_point@?$_Mpunct@G@std@@QBEGXZ 100486d6 f i libcpmt:wlocale.obj
 0001:000476f4       ?decimal_point@?$_Mpunct@_W@std@@QBE_WXZ 100486f4 f i libcpmt:wlocale.obj
 0001:00047712       ?decimal_point@?$numpunct@G@std@@QBEGXZ 10048712 f i libcpmt:wlocale.obj
 0001:00047730       ?decimal_point@?$numpunct@_W@std@@QBE_WXZ 10048730 f i libcpmt:wlocale.obj
 0001:0004774e       ?do_always_noconv@?$codecvt@GDU_Mbstatet@@@std@@MBE_NXZ 1004874e f i libcpmt:wlocale.obj
 0001:00047751       ?do_always_noconv@?$codecvt@_WDU_Mbstatet@@@std@@MBE_NXZ 10048751 f i libcpmt:wlocale.obj
 0001:00047754       ?do_close@?$messages@G@std@@MBEXH@Z 10048754 f i libcpmt:wlocale.obj
 0001:00047757       ?do_close@?$messages@_W@std@@MBEXH@Z 10048757 f i libcpmt:wlocale.obj
 0001:0004775a       ?do_compare@?$collate@G@std@@MBEHPBG000@Z 1004875a f i libcpmt:wlocale.obj
 0001:00047797       ?do_compare@?$collate@_W@std@@MBEHPB_W000@Z 10048797 f i libcpmt:wlocale.obj
 0001:000477d4       ?do_curr_symbol@?$_Mpunct@G@std@@MBE?AV?$basic_string@GU?$char_traits@G@std@@V?$allocator@G@2@@2@XZ 100487d4 f i libcpmt:wlocale.obj
 0001:000477ee       ?do_curr_symbol@?$_Mpunct@_W@std@@MBE?AV?$basic_string@_WU?$char_traits@_W@std@@V?$allocator@_W@2@@2@XZ 100487ee f i libcpmt:wlocale.obj
 0001:00047808       ?do_date_order@?$time_get@GV?$istreambuf_iterator@GU?$char_traits@G@std@@@std@@@std@@MBE?AW4dateorder@time_base@2@XZ 10048808 f i libcpmt:wlocale.obj
 0001:0004780c       ?do_date_order@?$time_get@_WV?$istreambuf_iterator@_WU?$char_traits@_W@std@@@std@@@std@@MBE?AW4dateorder@time_base@2@XZ 1004880c f i libcpmt:wlocale.obj
 0001:00047810       ?do_decimal_point@?$_Mpunct@G@std@@MBEGXZ 10048810 f i libcpmt:wlocale.obj
 0001:00047815       ?do_decimal_point@?$_Mpunct@_W@std@@MBE_WXZ 10048815 f i libcpmt:wlocale.obj
 0001:0004781a       ?do_decimal_point@?$numpunct@G@std@@MBEGXZ 1004881a f i libcpmt:wlocale.obj
 0001:0004781f       ?do_decimal_point@?$numpunct@_W@std@@MBE_WXZ 1004881f f i libcpmt:wlocale.obj
 0001:00047824       ?do_encoding@?$codecvt@GDU_Mbstatet@@@std@@MBEHXZ 10048824 f i libcpmt:wlocale.obj
 0001:00047830       ?do_encoding@?$codecvt@_WDU_Mbstatet@@@std@@MBEHXZ 10048830 f i libcpmt:wlocale.obj
 0001:0004783c       ?do_falsename@?$numpunct@G@std@@MBE?AV?$basic_string@GU?$char_traits@G@std@@V?$allocator@G@2@@2@XZ 1004883c f i libcpmt:wlocale.obj
 0001:00047856       ?do_falsename@?$numpunct@_W@std@@MBE?AV?$basic_string@_WU?$char_traits@_W@std@@V?$allocator@_W@2@@2@XZ 10048856 f i libcpmt:wlocale.obj
 0001:00047870       ?do_frac_digits@?$_Mpunct@G@std@@MBEHXZ 10048870 f i libcpmt:wlocale.obj
 0001:00047874       ?do_frac_digits@?$_Mpunct@_W@std@@MBEHXZ 10048874 f i libcpmt:wlocale.obj
 0001:00047878       ?do_get@?$messages@G@std@@MBE?AV?$basic_string@GU?$char_traits@G@std@@V?$allocator@G@2@@2@HHHABV32@@Z 10048878 f i libcpmt:wlocale.obj
 0001:000478a0       ?do_get@?$messages@_W@std@@MBE?AV?$basic_string@_WU?$char_traits@_W@std@@V?$allocator@_W@2@@2@HHHABV32@@Z 100488a0 f i libcpmt:wlocale.obj
 0001:000478c8       ?do_get@?$money_get@GV?$istreambuf_iterator@GU?$char_traits@G@std@@@std@@@std@@MBE?AV?$istreambuf_iterator@GU?$char_traits@G@std@@@2@V32@0_NAAVios_base@2@AAHAAO@Z 100488c8 f i libcpmt:wlocale.obj
 0001:0004799a       ?do_get@?$money_get@GV?$istreambuf_iterator@GU?$char_traits@G@std@@@std@@@std@@MBE?AV?$istreambuf_iterator@GU?$char_traits@G@std@@@2@V32@0_NAAVios_base@2@AAHAAV?$basic_string@GU?$char_traits@G@std@@V?$allocator@G@2@@2@@Z 1004899a f i libcpmt:wlocale.obj
 0001:00047aaa       ?do_get@?$money_get@_WV?$istreambuf_iterator@_WU?$char_traits@_W@std@@@std@@@std@@MBE?AV?$istreambuf_iterator@_WU?$char_traits@_W@std@@@2@V32@0_NAAVios_base@2@AAHAAO@Z 10048aaa f i libcpmt:wlocale.obj
 0001:00047b7c       ?do_get@?$money_get@_WV?$istreambuf_iterator@_WU?$char_traits@_W@std@@@std@@@std@@MBE?AV?$istreambuf_iterator@_WU?$char_traits@_W@std@@@2@V32@0_NAAVios_base@2@AAHAAV?$basic_string@_WU?$char_traits@_W@std@@V?$allocator@_W@2@@2@@Z 10048b7c f i libcpmt:wlocale.obj
 0001:00047c8c       ?do_get@?$num_get@GV?$istreambuf_iterator@GU?$char_traits@G@std@@@std@@@std@@MBE?AV?$istreambuf_iterator@GU?$char_traits@G@std@@@2@V32@0AAVios_base@2@AAHAAG@Z 10048c8c f i libcpmt:wlocale.obj
 0001:00047db5       ?do_get@?$num_get@GV?$istreambuf_iterator@GU?$char_traits@G@std@@@std@@@std@@MBE?AV?$istreambuf_iterator@GU?$char_traits@G@std@@@2@V32@0AAVios_base@2@AAHAAI@Z 10048db5 f i libcpmt:wlocale.obj
 0001:00047e08       ?do_get@?$num_get@GV?$istreambuf_iterator@GU?$char_traits@G@std@@@std@@@std@@MBE?AV?$istreambuf_iterator@GU?$char_traits@G@std@@@2@V32@0AAVios_base@2@AAHAAJ@Z 10048e08 f i libcpmt:wlocale.obj
 0001:00047efd       ?do_get@?$num_get@GV?$istreambuf_iterator@GU?$char_traits@G@std@@@std@@@std@@MBE?AV?$istreambuf_iterator@GU?$char_traits@G@std@@@2@V32@0AAVios_base@2@AAHAAK@Z 10048efd f i libcpmt:wlocale.obj
 0001:00047ff2       ?do_get@?$num_get@GV?$istreambuf_iterator@GU?$char_traits@G@std@@@std@@@std@@MBE?AV?$istreambuf_iterator@GU?$char_traits@G@std@@@2@V32@0AAVios_base@2@AAHAAM@Z 10048ff2 f i libcpmt:wlocale.obj
 0001:0004812b       ?do_get@?$num_get@GV?$istreambuf_iterator@GU?$char_traits@G@std@@@std@@@std@@MBE?AV?$istreambuf_iterator@GU?$char_traits@G@std@@@2@V32@0AAVios_base@2@AAHAAN@Z 1004912b f i libcpmt:wlocale.obj
 0001:00048258       ?do_get@?$num_get@GV?$istreambuf_iterator@GU?$char_traits@G@std@@@std@@@std@@MBE?AV?$istreambuf_iterator@GU?$char_traits@G@std@@@2@V32@0AAVios_base@2@AAHAAO@Z 10049258 f i libcpmt:wlocale.obj
 0001:000482a9       ?do_get@?$num_get@GV?$istreambuf_iterator@GU?$char_traits@G@std@@@std@@@std@@MBE?AV?$istreambuf_iterator@GU?$char_traits@G@std@@@2@V32@0AAVios_base@2@AAHAAPAX@Z 100492a9 f i libcpmt:wlocale.obj
 0001:00048394       ?do_get@?$num_get@GV?$istreambuf_iterator@GU?$char_traits@G@std@@@std@@@std@@MBE?AV?$istreambuf_iterator@GU?$char_traits@G@std@@@2@V32@0AAVios_base@2@AAHAA_J@Z 10049394 f i libcpmt:wlocale.obj
 0001:00048491       ?do_get@?$num_get@GV?$istreambuf_iterator@GU?$char_traits@G@std@@@std@@@std@@MBE?AV?$istreambuf_iterator@GU?$char_traits@G@std@@@2@V32@0AAVios_base@2@AAHAA_K@Z 10049491 f i libcpmt:wlocale.obj
 0001:0004858e       ?do_get@?$num_get@GV?$istreambuf_iterator@GU?$char_traits@G@std@@@std@@@std@@MBE?AV?$istreambuf_iterator@GU?$char_traits@G@std@@@2@V32@0AAVios_base@2@AAHAA_N@Z 1004958e f i libcpmt:wlocale.obj
 0001:0004885a       ?do_get@?$num_get@_WV?$istreambuf_iterator@_WU?$char_traits@_W@std@@@std@@@std@@MBE?AV?$istreambuf_iterator@_WU?$char_traits@_W@std@@@2@V32@0AAVios_base@2@AAHAAG@Z 1004985a f i libcpmt:wlocale.obj
 0001:00048983       ?do_get@?$num_get@_WV?$istreambuf_iterator@_WU?$char_traits@_W@std@@@std@@@std@@MBE?AV?$istreambuf_iterator@_WU?$char_traits@_W@std@@@2@V32@0AAVios_base@2@AAHAAI@Z 10049983 f i libcpmt:wlocale.obj
 0001:000489d6       ?do_get@?$num_get@_WV?$istreambuf_iterator@_WU?$char_traits@_W@std@@@std@@@std@@MBE?AV?$istreambuf_iterator@_WU?$char_traits@_W@std@@@2@V32@0AAVios_base@2@AAHAAJ@Z 100499d6 f i libcpmt:wlocale.obj
 0001:00048acb       ?do_get@?$num_get@_WV?$istreambuf_iterator@_WU?$char_traits@_W@std@@@std@@@std@@MBE?AV?$istreambuf_iterator@_WU?$char_traits@_W@std@@@2@V32@0AAVios_base@2@AAHAAK@Z 10049acb f i libcpmt:wlocale.obj
 0001:00048bc0       ?do_get@?$num_get@_WV?$istreambuf_iterator@_WU?$char_traits@_W@std@@@std@@@std@@MBE?AV?$istreambuf_iterator@_WU?$char_traits@_W@std@@@2@V32@0AAVios_base@2@AAHAAM@Z 10049bc0 f i libcpmt:wlocale.obj
 0001:00048cf9       ?do_get@?$num_get@_WV?$istreambuf_iterator@_WU?$char_traits@_W@std@@@std@@@std@@MBE?AV?$istreambuf_iterator@_WU?$char_traits@_W@std@@@2@V32@0AAVios_base@2@AAHAAN@Z 10049cf9 f i libcpmt:wlocale.obj
 0001:00048e26       ?do_get@?$num_get@_WV?$istreambuf_iterator@_WU?$char_traits@_W@std@@@std@@@std@@MBE?AV?$istreambuf_iterator@_WU?$char_traits@_W@std@@@2@V32@0AAVios_base@2@AAHAAO@Z 10049e26 f i libcpmt:wlocale.obj
 0001:00048e77       ?do_get@?$num_get@_WV?$istreambuf_iterator@_WU?$char_traits@_W@std@@@std@@@std@@MBE?AV?$istreambuf_iterator@_WU?$char_traits@_W@std@@@2@V32@0AAVios_base@2@AAHAAPAX@Z 10049e77 f i libcpmt:wlocale.obj
 0001:00048f62       ?do_get@?$num_get@_WV?$istreambuf_iterator@_WU?$char_traits@_W@std@@@std@@@std@@MBE?AV?$istreambuf_iterator@_WU?$char_traits@_W@std@@@2@V32@0AAVios_base@2@AAHAA_J@Z 10049f62 f i libcpmt:wlocale.obj
 0001:0004905f       ?do_get@?$num_get@_WV?$istreambuf_iterator@_WU?$char_traits@_W@std@@@std@@@std@@MBE?AV?$istreambuf_iterator@_WU?$char_traits@_W@std@@@2@V32@0AAVios_base@2@AAHAA_K@Z 1004a05f f i libcpmt:wlocale.obj
 0001:0004915c       ?do_get@?$num_get@_WV?$istreambuf_iterator@_WU?$char_traits@_W@std@@@std@@@std@@MBE?AV?$istreambuf_iterator@_WU?$char_traits@_W@std@@@2@V32@0AAVios_base@2@AAHAA_N@Z 1004a15c f i libcpmt:wlocale.obj
 0001:00049428       ?do_get@?$time_get@GV?$istreambuf_iterator@GU?$char_traits@G@std@@@std@@@std@@MBE?AV?$istreambuf_iterator@GU?$char_traits@G@std@@@2@V32@0AAVios_base@2@AAHPAUtm@@DD@Z 1004a428 f i libcpmt:wlocale.obj
 0001:000498b6       ?do_get@?$time_get@_WV?$istreambuf_iterator@_WU?$char_traits@_W@std@@@std@@@std@@MBE?AV?$istreambuf_iterator@_WU?$char_traits@_W@std@@@2@V32@0AAVios_base@2@AAHPAUtm@@DD@Z 1004a8b6 f i libcpmt:wlocale.obj
 0001:00049d44       ?do_get_date@?$time_get@GV?$istreambuf_iterator@GU?$char_traits@G@std@@@std@@@std@@MBE?AV?$istreambuf_iterator@GU?$char_traits@G@std@@@2@V32@0AAVios_base@2@AAHPAUtm@@@Z 1004ad44 f i libcpmt:wlocale.obj
 0001:0004a31d       ?do_get_date@?$time_get@_WV?$istreambuf_iterator@_WU?$char_traits@_W@std@@@std@@@std@@MBE?AV?$istreambuf_iterator@_WU?$char_traits@_W@std@@@2@V32@0AAVios_base@2@AAHPAUtm@@@Z 1004b31d f i libcpmt:wlocale.obj
 0001:0004a8f6       ?do_get_monthname@?$time_get@GV?$istreambuf_iterator@GU?$char_traits@G@std@@@std@@@std@@MBE?AV?$istreambuf_iterator@GU?$char_traits@G@std@@@2@V32@0AAVios_base@2@AAHPAUtm@@@Z 1004b8f6 f i libcpmt:wlocale.obj
 0001:0004a946       ?do_get_monthname@?$time_get@_WV?$istreambuf_iterator@_WU?$char_traits@_W@std@@@std@@@std@@MBE?AV?$istreambuf_iterator@_WU?$char_traits@_W@std@@@2@V32@0AAVios_base@2@AAHPAUtm@@@Z 1004b946 f i libcpmt:wlocale.obj
 0001:0004a996       ?do_get_time@?$time_get@GV?$istreambuf_iterator@GU?$char_traits@G@std@@@std@@@std@@MBE?AV?$istreambuf_iterator@GU?$char_traits@G@std@@@2@V32@0AAVios_base@2@AAHPAUtm@@@Z 1004b996 f i libcpmt:wlocale.obj
 0001:0004ab00       ?do_get_time@?$time_get@_WV?$istreambuf_iterator@_WU?$char_traits@_W@std@@@std@@@std@@MBE?AV?$istreambuf_iterator@_WU?$char_traits@_W@std@@@2@V32@0AAVios_base@2@AAHPAUtm@@@Z 1004bb00 f i libcpmt:wlocale.obj
 0001:0004ac6a       ?do_get_weekday@?$time_get@GV?$istreambuf_iterator@GU?$char_traits@G@std@@@std@@@std@@MBE?AV?$istreambuf_iterator@GU?$char_traits@G@std@@@2@V32@0AAVios_base@2@AAHPAUtm@@@Z 1004bc6a f i libcpmt:wlocale.obj
 0001:0004acba       ?do_get_weekday@?$time_get@_WV?$istreambuf_iterator@_WU?$char_traits@_W@std@@@std@@@std@@MBE?AV?$istreambuf_iterator@_WU?$char_traits@_W@std@@@2@V32@0AAVios_base@2@AAHPAUtm@@@Z 1004bcba f i libcpmt:wlocale.obj
 0001:0004ad0a       ?do_get_year@?$time_get@GV?$istreambuf_iterator@GU?$char_traits@G@std@@@std@@@std@@MBE?AV?$istreambuf_iterator@GU?$char_traits@G@std@@@2@V32@0AAVios_base@2@AAHPAUtm@@@Z 1004bd0a f i libcpmt:wlocale.obj
 0001:0004adc4       ?do_get_year@?$time_get@_WV?$istreambuf_iterator@_WU?$char_traits@_W@std@@@std@@@std@@MBE?AV?$istreambuf_iterator@_WU?$char_traits@_W@std@@@2@V32@0AAVios_base@2@AAHPAUtm@@@Z 1004bdc4 f i libcpmt:wlocale.obj
 0001:0004ae7e       ?do_grouping@?$_Mpunct@G@std@@MBE?AV?$basic_string@DU?$char_traits@D@std@@V?$allocator@D@2@@2@XZ 1004be7e f i libcpmt:wlocale.obj
 0001:0004ae98       ?do_grouping@?$_Mpunct@_W@std@@MBE?AV?$basic_string@DU?$char_traits@D@std@@V?$allocator@D@2@@2@XZ 1004be98 f i libcpmt:wlocale.obj
 0001:0004aeb2       ?do_grouping@?$numpunct@G@std@@MBE?AV?$basic_string@DU?$char_traits@D@std@@V?$allocator@D@2@@2@XZ 1004beb2 f i libcpmt:wlocale.obj
 0001:0004aecc       ?do_grouping@?$numpunct@_W@std@@MBE?AV?$basic_string@DU?$char_traits@D@std@@V?$allocator@D@2@@2@XZ 1004becc f i libcpmt:wlocale.obj
 0001:0004aee6       ?do_hash@?$collate@G@std@@MBEJPBG0@Z 1004bee6 f i libcpmt:wlocale.obj
 0001:0004af0f       ?do_hash@?$collate@_W@std@@MBEJPB_W0@Z 1004bf0f f i libcpmt:wlocale.obj
 0001:0004af38       ?do_in@?$codecvt@GDU_Mbstatet@@@std@@MBEHAAU_Mbstatet@@PBD1AAPBDPAG3AAPAG@Z 1004bf38 f i libcpmt:wlocale.obj
 0001:0004afc5       ?do_in@?$codecvt@_WDU_Mbstatet@@@std@@MBEHAAU_Mbstatet@@PBD1AAPBDPA_W3AAPA_W@Z 1004bfc5 f i libcpmt:wlocale.obj
 0001:0004b052       ?do_is@?$ctype@G@std@@MBEPBGPBG0PAF@Z 1004c052 f i libcpmt:wlocale.obj
 0001:0004b075       ?do_is@?$ctype@G@std@@MBE_NFG@Z 1004c075 f i libcpmt:wlocale.obj
 0001:0004b098       ?do_is@?$ctype@_W@std@@MBEPB_WPB_W0PAF@Z 1004c098 f i libcpmt:wlocale.obj
 0001:0004b0bb       ?do_is@?$ctype@_W@std@@MBE_NF_W@Z 1004c0bb f i libcpmt:wlocale.obj
 0001:0004b0de       ?do_length@?$codecvt@GDU_Mbstatet@@@std@@MBEHAAU_Mbstatet@@PBD1I@Z 1004c0de f i libcpmt:wlocale.obj
 0001:0004b149       ?do_length@?$codecvt@_WDU_Mbstatet@@@std@@MBEHAAU_Mbstatet@@PBD1I@Z 1004c149 f i libcpmt:wlocale.obj
 0001:0004b1b4       ?do_max_length@?$codecvt@GDU_Mbstatet@@@std@@MBEHXZ 1004c1b4 f i libcpmt:wlocale.obj
 0001:0004b1b8       ?do_max_length@?$codecvt@_WDU_Mbstatet@@@std@@MBEHXZ 1004c1b8 f i libcpmt:wlocale.obj
 0001:0004b1bc       ?do_narrow@?$ctype@G@std@@MBEDGD@Z 1004c1bc f i libcpmt:wlocale.obj
 0001:0004b1c7       ?do_narrow@?$ctype@G@std@@MBEPBGPBG0DPAD@Z 1004c1c7 f i libcpmt:wlocale.obj
 0001:0004b209       ?do_narrow@?$ctype@_W@std@@MBED_WD@Z 1004c209 f i libcpmt:wlocale.obj
 0001:0004b214       ?do_narrow@?$ctype@_W@std@@MBEPB_WPB_W0DPAD@Z 1004c214 f i libcpmt:wlocale.obj
 0001:0004b256       ?do_neg_format@?$_Mpunct@G@std@@MBE?AUpattern@money_base@2@XZ 1004c256 f i libcpmt:wlocale.obj
 0001:0004b268       ?do_neg_format@?$_Mpunct@_W@std@@MBE?AUpattern@money_base@2@XZ 1004c268 f i libcpmt:wlocale.obj
 0001:0004b27a       ?do_negative_sign@?$_Mpunct@G@std@@MBE?AV?$basic_string@GU?$char_traits@G@std@@V?$allocator@G@2@@2@XZ 1004c27a f i libcpmt:wlocale.obj
 0001:0004b294       ?do_negative_sign@?$_Mpunct@_W@std@@MBE?AV?$basic_string@_WU?$char_traits@_W@std@@V?$allocator@_W@2@@2@XZ 1004c294 f i libcpmt:wlocale.obj
 0001:0004b2ae       ?do_open@?$messages@G@std@@MBEHABV?$basic_string@DU?$char_traits@D@std@@V?$allocator@D@2@@2@ABVlocale@2@@Z 1004c2ae f i libcpmt:wlocale.obj
 0001:0004b2b4       ?do_open@?$messages@_W@std@@MBEHABV?$basic_string@DU?$char_traits@D@std@@V?$allocator@D@2@@2@ABVlocale@2@@Z 1004c2b4 f i libcpmt:wlocale.obj
 0001:0004b2ba       ?do_out@?$codecvt@GDU_Mbstatet@@@std@@MBEHAAU_Mbstatet@@PBG1AAPBGPAD3AAPAD@Z 1004c2ba f i libcpmt:wlocale.obj
 0001:0004b3d9       ?do_out@?$codecvt@_WDU_Mbstatet@@@std@@MBEHAAU_Mbstatet@@PB_W1AAPB_WPAD3AAPAD@Z 1004c3d9 f i libcpmt:wlocale.obj
 0001:0004b4f8       ?do_pos_format@?$_Mpunct@G@std@@MBE?AUpattern@money_base@2@XZ 1004c4f8 f i libcpmt:wlocale.obj
 0001:0004b50a       ?do_pos_format@?$_Mpunct@_W@std@@MBE?AUpattern@money_base@2@XZ 1004c50a f i libcpmt:wlocale.obj
 0001:0004b51c       ?do_positive_sign@?$_Mpunct@G@std@@MBE?AV?$basic_string@GU?$char_traits@G@std@@V?$allocator@G@2@@2@XZ 1004c51c f i libcpmt:wlocale.obj
 0001:0004b536       ?do_positive_sign@?$_Mpunct@_W@std@@MBE?AV?$basic_string@_WU?$char_traits@_W@std@@V?$allocator@_W@2@@2@XZ 1004c536 f i libcpmt:wlocale.obj
 0001:0004b550       ?do_put@?$money_put@GV?$ostreambuf_iterator@GU?$char_traits@G@std@@@std@@@std@@MBE?AV?$ostreambuf_iterator@GU?$char_traits@G@std@@@2@V32@_NAAVios_base@2@GABV?$basic_string@GU?$char_traits@G@std@@V?$allocator@G@2@@2@@Z 1004c550 f i libcpmt:wlocale.obj
 0001:0004b6c8       ?do_put@?$money_put@GV?$ostreambuf_iterator@GU?$char_traits@G@std@@@std@@@std@@MBE?AV?$ostreambuf_iterator@GU?$char_traits@G@std@@@2@V32@_NAAVios_base@2@GO@Z 1004c6c8 f i libcpmt:wlocale.obj
 0001:0004b8ee       ?do_put@?$money_put@_WV?$ostreambuf_iterator@_WU?$char_traits@_W@std@@@std@@@std@@MBE?AV?$ostreambuf_iterator@_WU?$char_traits@_W@std@@@2@V32@_NAAVios_base@2@_WABV?$basic_string@_WU?$char_traits@_W@std@@V?$allocator@_W@2@@2@@Z 1004c8ee f i libcpmt:wlocale.obj
 0001:0004ba66       ?do_put@?$money_put@_WV?$ostreambuf_iterator@_WU?$char_traits@_W@std@@@std@@@std@@MBE?AV?$ostreambuf_iterator@_WU?$char_traits@_W@std@@@2@V32@_NAAVios_base@2@_WO@Z 1004ca66 f i libcpmt:wlocale.obj
 0001:0004bc8c       ?do_put@?$num_put@GV?$ostreambuf_iterator@GU?$char_traits@G@std@@@std@@@std@@MBE?AV?$ostreambuf_iterator@GU?$char_traits@G@std@@@2@V32@AAVios_base@2@GJ@Z 1004cc8c f i libcpmt:wlocale.obj
 0001:0004bd11       ?do_put@?$num_put@GV?$ostreambuf_iterator@GU?$char_traits@G@std@@@std@@@std@@MBE?AV?$ostreambuf_iterator@GU?$char_traits@G@std@@@2@V32@AAVios_base@2@GK@Z 1004cd11 f i libcpmt:wlocale.obj
 0001:0004bd96       ?do_put@?$num_put@GV?$ostreambuf_iterator@GU?$char_traits@G@std@@@std@@@std@@MBE?AV?$ostreambuf_iterator@GU?$char_traits@G@std@@@2@V32@AAVios_base@2@GN@Z 1004cd96 f i libcpmt:wlocale.obj
 0001:0004bf27       ?do_put@?$num_put@GV?$ostreambuf_iterator@GU?$char_traits@G@std@@@std@@@std@@MBE?AV?$ostreambuf_iterator@GU?$char_traits@G@std@@@2@V32@AAVios_base@2@GO@Z 1004cf27 f i libcpmt:wlocale.obj
 0001:0004c0b8       ?do_put@?$num_put@GV?$ostreambuf_iterator@GU?$char_traits@G@std@@@std@@@std@@MBE?AV?$ostreambuf_iterator@GU?$char_traits@G@std@@@2@V32@AAVios_base@2@GPBX@Z 1004d0b8 f i libcpmt:wlocale.obj
 0001:0004c129       ?do_put@?$num_put@GV?$ostreambuf_iterator@GU?$char_traits@G@std@@@std@@@std@@MBE?AV?$ostreambuf_iterator@GU?$char_traits@G@std@@@2@V32@AAVios_base@2@G_J@Z 1004d129 f i libcpmt:wlocale.obj
 0001:0004c1b2       ?do_put@?$num_put@GV?$ostreambuf_iterator@GU?$char_traits@G@std@@@std@@@std@@MBE?AV?$ostreambuf_iterator@GU?$char_traits@G@std@@@2@V32@AAVios_base@2@G_K@Z 1004d1b2 f i libcpmt:wlocale.obj
 0001:0004c23b       ?do_put@?$num_put@GV?$ostreambuf_iterator@GU?$char_traits@G@std@@@std@@@std@@MBE?AV?$ostreambuf_iterator@GU?$char_traits@G@std@@@2@V32@AAVios_base@2@G_N@Z 1004d23b f i libcpmt:wlocale.obj
 0001:0004c45c       ?do_put@?$num_put@_WV?$ostreambuf_iterator@_WU?$char_traits@_W@std@@@std@@@std@@MBE?AV?$ostreambuf_iterator@_WU?$char_traits@_W@std@@@2@V32@AAVios_base@2@_WJ@Z 1004d45c f i libcpmt:wlocale.obj
 0001:0004c4e1       ?do_put@?$num_put@_WV?$ostreambuf_iterator@_WU?$char_traits@_W@std@@@std@@@std@@MBE?AV?$ostreambuf_iterator@_WU?$char_traits@_W@std@@@2@V32@AAVios_base@2@_WK@Z 1004d4e1 f i libcpmt:wlocale.obj
 0001:0004c566       ?do_put@?$num_put@_WV?$ostreambuf_iterator@_WU?$char_traits@_W@std@@@std@@@std@@MBE?AV?$ostreambuf_iterator@_WU?$char_traits@_W@std@@@2@V32@AAVios_base@2@_WN@Z 1004d566 f i libcpmt:wlocale.obj
 0001:0004c6f7       ?do_put@?$num_put@_WV?$ostreambuf_iterator@_WU?$char_traits@_W@std@@@std@@@std@@MBE?AV?$ostreambuf_iterator@_WU?$char_traits@_W@std@@@2@V32@AAVios_base@2@_WO@Z 1004d6f7 f i libcpmt:wlocale.obj
 0001:0004c888       ?do_put@?$num_put@_WV?$ostreambuf_iterator@_WU?$char_traits@_W@std@@@std@@@std@@MBE?AV?$ostreambuf_iterator@_WU?$char_traits@_W@std@@@2@V32@AAVios_base@2@_WPBX@Z 1004d888 f i libcpmt:wlocale.obj
 0001:0004c8f9       ?do_put@?$num_put@_WV?$ostreambuf_iterator@_WU?$char_traits@_W@std@@@std@@@std@@MBE?AV?$ostreambuf_iterator@_WU?$char_traits@_W@std@@@2@V32@AAVios_base@2@_W_J@Z 1004d8f9 f i libcpmt:wlocale.obj
 0001:0004c982       ?do_put@?$num_put@_WV?$ostreambuf_iterator@_WU?$char_traits@_W@std@@@std@@@std@@MBE?AV?$ostreambuf_iterator@_WU?$char_traits@_W@std@@@2@V32@AAVios_base@2@_W_K@Z 1004d982 f i libcpmt:wlocale.obj
 0001:0004ca0b       ?do_put@?$num_put@_WV?$ostreambuf_iterator@_WU?$char_traits@_W@std@@@std@@@std@@MBE?AV?$ostreambuf_iterator@_WU?$char_traits@_W@std@@@2@V32@AAVios_base@2@_W_N@Z 1004da0b f i libcpmt:wlocale.obj
 0001:0004cc2c       ?do_put@?$time_put@GV?$ostreambuf_iterator@GU?$char_traits@G@std@@@std@@@std@@MBE?AV?$ostreambuf_iterator@GU?$char_traits@G@std@@@2@V32@AAVios_base@2@GPBUtm@@DD@Z 1004dc2c f i libcpmt:wlocale.obj
 0001:0004cd78       ?do_put@?$time_put@_WV?$ostreambuf_iterator@_WU?$char_traits@_W@std@@@std@@@std@@MBE?AV?$ostreambuf_iterator@_WU?$char_traits@_W@std@@@2@V32@AAVios_base@2@_WPBUtm@@DD@Z 1004dd78 f i libcpmt:wlocale.obj
 0001:0004cec4       ?do_scan_is@?$ctype@G@std@@MBEPBGFPBG0@Z 1004dec4 f i libcpmt:wlocale.obj
 0001:0004cf10       ?do_scan_is@?$ctype@_W@std@@MBEPB_WFPB_W0@Z 1004df10 f i libcpmt:wlocale.obj
 0001:0004cf5c       ?do_scan_not@?$ctype@G@std@@MBEPBGFPBG0@Z 1004df5c f i libcpmt:wlocale.obj
 0001:0004cfa8       ?do_scan_not@?$ctype@_W@std@@MBEPB_WFPB_W0@Z 1004dfa8 f i libcpmt:wlocale.obj
 0001:0004cff4       ?do_thousands_sep@?$_Mpunct@G@std@@MBEGXZ 1004dff4 f i libcpmt:wlocale.obj
 0001:0004cff9       ?do_thousands_sep@?$_Mpunct@_W@std@@MBE_WXZ 1004dff9 f i libcpmt:wlocale.obj
 0001:0004cffe       ?do_thousands_sep@?$numpunct@G@std@@MBEGXZ 1004dffe f i libcpmt:wlocale.obj
 0001:0004d003       ?do_thousands_sep@?$numpunct@_W@std@@MBE_WXZ 1004e003 f i libcpmt:wlocale.obj
 0001:0004d008       ?do_tolower@?$ctype@G@std@@MBEGG@Z 1004e008 f i libcpmt:wlocale.obj
 0001:0004d022       ?do_tolower@?$ctype@G@std@@MBEPBGPAGPBG@Z 1004e022 f i libcpmt:wlocale.obj
 0001:0004d05c       ?do_tolower@?$ctype@_W@std@@MBEPB_WPA_WPB_W@Z 1004e05c f i libcpmt:wlocale.obj
 0001:0004d096       ?do_tolower@?$ctype@_W@std@@MBE_W_W@Z 1004e096 f i libcpmt:wlocale.obj
 0001:0004d0b0       ?do_toupper@?$ctype@G@std@@MBEGG@Z 1004e0b0 f i libcpmt:wlocale.obj
 0001:0004d0ca       ?do_toupper@?$ctype@G@std@@MBEPBGPAGPBG@Z 1004e0ca f i libcpmt:wlocale.obj
 0001:0004d104       ?do_toupper@?$ctype@_W@std@@MBEPB_WPA_WPB_W@Z 1004e104 f i libcpmt:wlocale.obj
 0001:0004d13e       ?do_toupper@?$ctype@_W@std@@MBE_W_W@Z 1004e13e f i libcpmt:wlocale.obj
 0001:0004d158       ?do_transform@?$collate@G@std@@MBE?AV?$basic_string@GU?$char_traits@G@std@@V?$allocator@G@2@@2@PBG0@Z 1004e158 f i libcpmt:wlocale.obj
 0001:0004d1ff       ?do_transform@?$collate@_W@std@@MBE?AV?$basic_string@_WU?$char_traits@_W@std@@V?$allocator@_W@2@@2@PB_W0@Z 1004e1ff f i libcpmt:wlocale.obj
 0001:0004d2a6       ?do_truename@?$numpunct@G@std@@MBE?AV?$basic_string@GU?$char_traits@G@std@@V?$allocator@G@2@@2@XZ 1004e2a6 f i libcpmt:wlocale.obj
 0001:0004d2c0       ?do_truename@?$numpunct@_W@std@@MBE?AV?$basic_string@_WU?$char_traits@_W@std@@V?$allocator@_W@2@@2@XZ 1004e2c0 f i libcpmt:wlocale.obj
 0001:0004d2da       ?do_unshift@?$codecvt@GDU_Mbstatet@@@std@@MBEHAAU_Mbstatet@@PAD1AAPAD@Z 1004e2da f i libcpmt:wlocale.obj
 0001:0004d38e       ?do_unshift@?$codecvt@_WDU_Mbstatet@@@std@@MBEHAAU_Mbstatet@@PAD1AAPAD@Z 1004e38e f i libcpmt:wlocale.obj
 0001:0004d442       ?do_widen@?$ctype@G@std@@MBEGD@Z 1004e442 f i libcpmt:wlocale.obj
 0001:0004d44d       ?do_widen@?$ctype@G@std@@MBEPBDPBD0PAG@Z 1004e44d f i libcpmt:wlocale.obj
 0001:0004d48c       ?do_widen@?$ctype@_W@std@@MBEPBDPBD0PA_W@Z 1004e48c f i libcpmt:wlocale.obj
 0001:0004d4cb       ?do_widen@?$ctype@_W@std@@MBE_WD@Z 1004e4cb f i libcpmt:wlocale.obj
 0001:0004d4d6       ?empty@?$basic_string@GU?$char_traits@G@std@@V?$allocator@G@2@@std@@QBE_NXZ 1004e4d6 f i libcpmt:wlocale.obj
 0001:0004d4e0       ?empty@?$basic_string@_WU?$char_traits@_W@std@@V?$allocator@_W@2@@std@@QBE_NXZ 1004e4e0 f i libcpmt:wlocale.obj
 0001:0004d4ea       ?end@?$basic_string@GU?$char_traits@G@std@@V?$allocator@G@2@@std@@QAE?AV?$_String_iterator@V?$_String_val@U?$_Simple_types@G@std@@@std@@@2@XZ 1004e4ea f i libcpmt:wlocale.obj
 0001:0004d50d       ?end@?$basic_string@_WU?$char_traits@_W@std@@V?$allocator@_W@2@@std@@QAE?AV?$_String_iterator@V?$_String_val@U?$_Simple_types@_W@std@@@std@@@2@XZ 1004e50d f i libcpmt:wlocale.obj
 0001:0004d530       ?eof@?$_WChar_traits@G@std@@SAGXZ 1004e530 f i libcpmt:wlocale.obj
 0001:0004d536       ?eof@?$_WChar_traits@_W@std@@SAGXZ 1004e536 f i libcpmt:wlocale.obj
 0001:0004d53c       ?eq_int_type@?$_WChar_traits@G@std@@SA_NABG0@Z 1004e53c f i libcpmt:wlocale.obj
 0001:0004d555       ?eq_int_type@?$_WChar_traits@_W@std@@SA_NABG0@Z 1004e555 f i libcpmt:wlocale.obj
 0001:0004d56e       ?equal@?$istreambuf_iterator@GU?$char_traits@G@std@@@std@@QBE_NABV12@@Z 1004e56e f i libcpmt:wlocale.obj
 0001:0004d5b6       ?equal@?$istreambuf_iterator@_WU?$char_traits@_W@std@@@std@@QBE_NABV12@@Z 1004e5b6 f i libcpmt:wlocale.obj
 0001:0004d5fe       ?erase@?$basic_string@DU?$char_traits@D@std@@V?$allocator@D@2@@std@@QAEAAV12@I@Z 1004e5fe f i libcpmt:wlocale.obj
 0001:0004d630       ?erase@?$basic_string@GU?$char_traits@G@std@@V?$allocator@G@2@@std@@QAEAAV12@I@Z 1004e630 f i libcpmt:wlocale.obj
 0001:0004d659       ?erase@?$basic_string@_WU?$char_traits@_W@std@@V?$allocator@_W@2@@std@@QAEAAV12@I@Z 1004e659 f i libcpmt:wlocale.obj
 0001:0004d682       ?falsename@?$numpunct@G@std@@QBE?AV?$basic_string@GU?$char_traits@G@std@@V?$allocator@G@2@@2@XZ 1004e682 f i libcpmt:wlocale.obj
 0001:0004d6af       ?falsename@?$numpunct@_W@std@@QBE?AV?$basic_string@_WU?$char_traits@_W@std@@V?$allocator@_W@2@@2@XZ 1004e6af f i libcpmt:wlocale.obj
 0001:0004d6dc       ?frac_digits@?$_Mpunct@G@std@@QBEHXZ 1004e6dc f i libcpmt:wlocale.obj
 0001:0004d6fa       ?frac_digits@?$_Mpunct@_W@std@@QBEHXZ 1004e6fa f i libcpmt:wlocale.obj
 0001:0004d718       ?get_monthname@?$time_get@GV?$istreambuf_iterator@GU?$char_traits@G@std@@@std@@@std@@QBE?AV?$istreambuf_iterator@GU?$char_traits@G@std@@@2@V32@0AAVios_base@2@AAHPAUtm@@@Z 1004e718 f i libcpmt:wlocale.obj
 0001:0004d75e       ?get_monthname@?$time_get@_WV?$istreambuf_iterator@_WU?$char_traits@_W@std@@@std@@@std@@QBE?AV?$istreambuf_iterator@_WU?$char_traits@_W@std@@@2@V32@0AAVios_base@2@AAHPAUtm@@@Z 1004e75e f i libcpmt:wlocale.obj
 0001:0004d7a4       ?get_weekday@?$time_get@GV?$istreambuf_iterator@GU?$char_traits@G@std@@@std@@@std@@QBE?AV?$istreambuf_iterator@GU?$char_traits@G@std@@@2@V32@0AAVios_base@2@AAHPAUtm@@@Z 1004e7a4 f i libcpmt:wlocale.obj
 0001:0004d7ea       ?get_weekday@?$time_get@_WV?$istreambuf_iterator@_WU?$char_traits@_W@std@@@std@@@std@@QBE?AV?$istreambuf_iterator@_WU?$char_traits@_W@std@@@2@V32@0AAVios_base@2@AAHPAUtm@@@Z 1004e7ea f i libcpmt:wlocale.obj
 0001:0004d830       ?get_year@?$time_get@GV?$istreambuf_iterator@GU?$char_traits@G@std@@@std@@@std@@QBE?AV?$istreambuf_iterator@GU?$char_traits@G@std@@@2@V32@0AAVios_base@2@AAHPAUtm@@@Z 1004e830 f i libcpmt:wlocale.obj
 0001:0004d876       ?get_year@?$time_get@_WV?$istreambuf_iterator@_WU?$char_traits@_W@std@@@std@@@std@@QBE?AV?$istreambuf_iterator@_WU?$char_traits@_W@std@@@2@V32@0AAVios_base@2@AAHPAUtm@@@Z 1004e876 f i libcpmt:wlocale.obj
 0001:0004d8bc       ?gptr@?$basic_streambuf@GU?$char_traits@G@std@@@std@@IBEPAGXZ 1004e8bc f i libcpmt:wlocale.obj
 0001:0004d8c2       ?gptr@?$basic_streambuf@_WU?$char_traits@_W@std@@@std@@IBEPA_WXZ 1004e8c2 f i libcpmt:wlocale.obj
 0001:0004d8c8       ?grouping@?$_Mpunct@G@std@@QBE?AV?$basic_string@DU?$char_traits@D@std@@V?$allocator@D@2@@2@XZ 1004e8c8 f i libcpmt:wlocale.obj
 0001:0004d8f5       ?grouping@?$_Mpunct@_W@std@@QBE?AV?$basic_string@DU?$char_traits@D@std@@V?$allocator@D@2@@2@XZ 1004e8f5 f i libcpmt:wlocale.obj
 0001:0004d922       ?grouping@?$numpunct@G@std@@QBE?AV?$basic_string@DU?$char_traits@D@std@@V?$allocator@D@2@@2@XZ 1004e922 f i libcpmt:wlocale.obj
 0001:0004d94f       ?grouping@?$numpunct@_W@std@@QBE?AV?$basic_string@DU?$char_traits@D@std@@V?$allocator@D@2@@2@XZ 1004e94f f i libcpmt:wlocale.obj
 0001:0004d97c       ?insert@?$basic_string@GU?$char_traits@G@std@@V?$allocator@G@2@@std@@QAEAAV12@IIG@Z 1004e97c f i libcpmt:wlocale.obj
 0001:0004da0e       ?insert@?$basic_string@_WU?$char_traits@_W@std@@V?$allocator@_W@2@@std@@QAEAAV12@II_W@Z 1004ea0e f i libcpmt:wlocale.obj
 0001:0004daa0       ?is@?$ctype@G@std@@QBE_NFG@Z 1004eaa0 f i libcpmt:wlocale.obj
 0001:0004dacd       ?is@?$ctype@_W@std@@QBE_NF_W@Z 1004eacd f i libcpmt:wlocale.obj
 0001:0004dafa       ?length@?$_Char_traits@GG@std@@SAIPBG@Z 1004eafa f i libcpmt:wlocale.obj
 0001:0004db16       ?length@?$_WChar_traits@G@std@@SAIPBG@Z 1004eb16 f i libcpmt:wlocale.obj
 0001:0004db32       ?length@?$_WChar_traits@_W@std@@SAIPB_W@Z 1004eb32 f i libcpmt:wlocale.obj
 0001:0004db52       ?max_size@?$_Default_allocator_traits@V?$allocator@G@std@@@std@@SAIABV?$allocator@G@2@@Z 1004eb52 f i libcpmt:wlocale.obj
 0001:0004db58       ?max_size@?$_Default_allocator_traits@V?$allocator@_W@std@@@std@@SAIABV?$allocator@_W@2@@Z 1004eb58 f i libcpmt:wlocale.obj
 0001:0004db5e       ?max_size@?$basic_string@GU?$char_traits@G@std@@V?$allocator@G@2@@std@@QBEIXZ 1004eb5e f i libcpmt:wlocale.obj
 0001:0004db64       ?max_size@?$basic_string@_WU?$char_traits@_W@std@@V?$allocator@_W@2@@std@@QBEIXZ 1004eb64 f i libcpmt:wlocale.obj
 0001:0004db6a       ?move@?$_WChar_traits@G@std@@SAPAGQAGQBGI@Z 1004eb6a f i libcpmt:wlocale.obj
 0001:0004db89       ?move@?$_WChar_traits@_W@std@@SAPA_WQA_WQB_WI@Z 1004eb89 f i libcpmt:wlocale.obj
 0001:0004dba8       ?name@locale@std@@QBE?AV?$basic_string@DU?$char_traits@D@std@@V?$allocator@D@2@@2@XZ 1004eba8 f i libcpmt:wlocale.obj
 0001:0004dce9       ?narrow@?$ctype@G@std@@QBEDGD@Z 1004ece9 f i libcpmt:wlocale.obj
 0001:0004dd16       ?narrow@?$ctype@_W@std@@QBED_WD@Z 1004ed16 f i libcpmt:wlocale.obj
 0001:0004dd43       ?neg_format@?$_Mpunct@G@std@@QBE?AUpattern@money_base@2@XZ 1004ed43 f i libcpmt:wlocale.obj
 0001:0004dd70       ?neg_format@?$_Mpunct@_W@std@@QBE?AUpattern@money_base@2@XZ 1004ed70 f i libcpmt:wlocale.obj
 0001:0004dd9d       ?negative_sign@?$_Mpunct@G@std@@QBE?AV?$basic_string@GU?$char_traits@G@std@@V?$allocator@G@2@@2@XZ 1004ed9d f i libcpmt:wlocale.obj
 0001:0004ddca       ?negative_sign@?$_Mpunct@_W@std@@QBE?AV?$basic_string@_WU?$char_traits@_W@std@@V?$allocator@_W@2@@2@XZ 1004edca f i libcpmt:wlocale.obj
 0001:0004ddf7       ?pos_format@?$_Mpunct@G@std@@QBE?AUpattern@money_base@2@XZ 1004edf7 f i libcpmt:wlocale.obj
 0001:0004de24       ?pos_format@?$_Mpunct@_W@std@@QBE?AUpattern@money_base@2@XZ 1004ee24 f i libcpmt:wlocale.obj
 0001:0004de51       ?positive_sign@?$_Mpunct@G@std@@QBE?AV?$basic_string@GU?$char_traits@G@std@@V?$allocator@G@2@@2@XZ 1004ee51 f i libcpmt:wlocale.obj
 0001:0004de7e       ?positive_sign@?$_Mpunct@_W@std@@QBE?AV?$basic_string@_WU?$char_traits@_W@std@@V?$allocator@_W@2@@2@XZ 1004ee7e f i libcpmt:wlocale.obj
 0001:0004deab       ?push_back@?$basic_string@GU?$char_traits@G@std@@V?$allocator@G@2@@std@@QAEXG@Z 1004eeab f i libcpmt:wlocale.obj
 0001:0004def6       ?push_back@?$basic_string@_WU?$char_traits@_W@std@@V?$allocator@_W@2@@std@@QAEX_W@Z 1004eef6 f i libcpmt:wlocale.obj
 0001:0004df41       ?resize@?$basic_string@GU?$char_traits@G@std@@V?$allocator@G@2@@std@@QAEXIG@Z 1004ef41 f i libcpmt:wlocale.obj
 0001:0004df6c       ?resize@?$basic_string@_WU?$char_traits@_W@std@@V?$allocator@_W@2@@std@@QAEXI_W@Z 1004ef6c f i libcpmt:wlocale.obj
 0001:0004df97       ?sbumpc@?$basic_streambuf@GU?$char_traits@G@std@@@std@@QAEGXZ 1004ef97 f i libcpmt:wlocale.obj
 0001:0004dfe2       ?sbumpc@?$basic_streambuf@_WU?$char_traits@_W@std@@@std@@QAEGXZ 1004efe2 f i libcpmt:wlocale.obj
 0001:0004e02d       ?select_on_container_copy_construction@?$_Default_allocator_traits@V?$allocator@G@std@@@std@@SA?AV?$allocator@G@2@ABV32@@Z 1004f02d f i libcpmt:wlocale.obj
 0001:0004e037       ?select_on_container_copy_construction@?$_Default_allocator_traits@V?$allocator@_W@std@@@std@@SA?AV?$allocator@_W@2@ABV32@@Z 1004f037 f i libcpmt:wlocale.obj
 0001:0004e041       ?sgetc@?$basic_streambuf@GU?$char_traits@G@std@@@std@@QAEGXZ 1004f041 f i libcpmt:wlocale.obj
 0001:0004e07e       ?sgetc@?$basic_streambuf@_WU?$char_traits@_W@std@@@std@@QAEGXZ 1004f07e f i libcpmt:wlocale.obj
 0001:0004e0bb       ?size@?$basic_string@GU?$char_traits@G@std@@V?$allocator@G@2@@std@@QBEIXZ 1004f0bb f i libcpmt:wlocale.obj
 0001:0004e0bf       ?size@?$basic_string@_WU?$char_traits@_W@std@@V?$allocator@_W@2@@std@@QBEIXZ 1004f0bf f i libcpmt:wlocale.obj
 0001:0004e0c3       ?sputc@?$basic_streambuf@GU?$char_traits@G@std@@@std@@QAEGG@Z 1004f0c3 f i libcpmt:wlocale.obj
 0001:0004e11d       ?sputc@?$basic_streambuf@_WU?$char_traits@_W@std@@@std@@QAEG_W@Z 1004f11d f i libcpmt:wlocale.obj
 0001:0004e177       ?thousands_sep@?$_Mpunct@G@std@@QBEGXZ 1004f177 f i libcpmt:wlocale.obj
 0001:0004e195       ?thousands_sep@?$_Mpunct@_W@std@@QBE_WXZ 1004f195 f i libcpmt:wlocale.obj
 0001:0004e1b3       ?thousands_sep@?$numpunct@G@std@@QBEGXZ 1004f1b3 f i libcpmt:wlocale.obj
 0001:0004e1d1       ?thousands_sep@?$numpunct@_W@std@@QBE_WXZ 1004f1d1 f i libcpmt:wlocale.obj
 0001:0004e1ef       ?to_char_type@?$_WChar_traits@G@std@@SAGABG@Z 1004f1ef f i libcpmt:wlocale.obj
 0001:0004e1fc       ?to_char_type@?$_WChar_traits@_W@std@@SA_WABG@Z 1004f1fc f i libcpmt:wlocale.obj
 0001:0004e209       ?to_int_type@?$_WChar_traits@G@std@@SAGABG@Z 1004f209 f i libcpmt:wlocale.obj
 0001:0004e216       ?to_int_type@?$_WChar_traits@_W@std@@SAGAB_W@Z 1004f216 f i libcpmt:wlocale.obj
 0001:0004e223       ?truename@?$numpunct@G@std@@QBE?AV?$basic_string@GU?$char_traits@G@std@@V?$allocator@G@2@@2@XZ 1004f223 f i libcpmt:wlocale.obj
 0001:0004e250       ?truename@?$numpunct@_W@std@@QBE?AV?$basic_string@_WU?$char_traits@_W@std@@V?$allocator@_W@2@@2@XZ 1004f250 f i libcpmt:wlocale.obj
 0001:0004e27d       ?widen@?$ctype@G@std@@QBEGD@Z 1004f27d f i libcpmt:wlocale.obj
 0001:0004e2a6       ?widen@?$ctype@G@std@@QBEPBDPBD0PAG@Z 1004f2a6 f i libcpmt:wlocale.obj
 0001:0004e2d6       ?widen@?$ctype@_W@std@@QBEPBDPBD0PA_W@Z 1004f2d6 f i libcpmt:wlocale.obj
 0001:0004e306       ?widen@?$ctype@_W@std@@QBE_WD@Z 1004f306 f i libcpmt:wlocale.obj
 0001:0004e32f       _wmemcpy                   1004f32f f i libcpmt:wlocale.obj
 0001:0004e34e       _wmemmove                  1004f34e f i libcpmt:wlocale.obj
 0001:0004e36d       _wmemset                   1004f36d f i libcpmt:wlocale.obj
 0001:0004e3a1       ??$_Copy_unchecked@PADV?$ostreambuf_iterator@DU?$char_traits@D@std@@@std@@@std@@YA?AV?$ostreambuf_iterator@DU?$char_traits@D@std@@@0@PAD0V10@@Z 1004f3a1 f i libcpmt:xlocale.obj
 0001:0004e3d8       ??$_Find_elem@D$0M@@std@@YAIAAY0M@$$CBDD@Z 1004f3d8 f i libcpmt:xlocale.obj
 0001:0004e406       ??$_Get_unwrapped@AAPAD@std@@YAPADAAPAD@Z 1004f406 f i libcpmt:xlocale.obj
 0001:0004e412       ??$_Get_unwrapped_n@AAV?$ostreambuf_iterator@DU?$char_traits@D@std@@@std@@H@std@@YAAAV?$ostreambuf_iterator@DU?$char_traits@D@std@@@0@AAV10@H@Z 1004f412 f i libcpmt:xlocale.obj
 0001:0004e41c       ??$_Getvals@D@?$_Mpunct@D@std@@IAEXDPBUlconv@@@Z 1004f41c f i libcpmt:xlocale.obj
 0001:0004e4b7       ??$_Getvals@D@?$time_get@DV?$istreambuf_iterator@DU?$char_traits@D@std@@@std@@@std@@IAEXDABV_Locinfo@1@@Z 1004f4b7 f i libcpmt:xlocale.obj
 0001:0004e53c       ??$_Hash_array_representation@D@std@@YAIQBDI@Z 1004f53c f i libcpmt:xlocale.obj
 0001:0004e55a       ??$_Idl_distance@PADPAD@std@@YAHABQAD0@Z 1004f55a f i libcpmt:xlocale.obj
 0001:0004e56c       ??$_LStrcoll@D@std@@YAHPBD000PBU_Collvec@@@Z 1004f56c f i libcpmt:xlocale.obj
 0001:0004e577       ??$_LStrxfrm@D@std@@YAIPAD0PBD1PBU_Collvec@@@Z 1004f577 f i libcpmt:xlocale.obj
 0001:0004e582       ??$_Refancy@PAD$0A@@std@@YAPADPAD@Z 1004f582 f i libcpmt:xlocale.obj
 0001:0004e58c       ??$_Seek_wrapped@V?$ostreambuf_iterator@DU?$char_traits@D@std@@@std@@V12@@std@@YAXAAV?$ostreambuf_iterator@DU?$char_traits@D@std@@@0@$$QAV10@@Z 1004f58c f i libcpmt:xlocale.obj
 0001:0004e5a6       ??$addressof@$$CBV?$moneypunct@D$00@std@@@std@@YAPBV?$moneypunct@D$00@0@ABV10@@Z 1004f5a6 f i libcpmt:xlocale.obj
 0001:0004e5b0       ??$addressof@$$CBV?$moneypunct@D$0A@@std@@@std@@YAPBV?$moneypunct@D$0A@@0@ABV10@@Z 1004f5b0 f i libcpmt:xlocale.obj
 0001:0004e5ba       ??$copy@PADV?$ostreambuf_iterator@DU?$char_traits@D@std@@@std@@@std@@YA?AV?$ostreambuf_iterator@DU?$char_traits@D@std@@@0@PAD0V10@@Z 1004f5ba f i libcpmt:xlocale.obj
 0001:0004e5f3       ??$use_facet@V?$collate@D@std@@@std@@YAABV?$collate@D@0@ABVlocale@0@@Z 1004f5f3 f i libcpmt:xlocale.obj
 0001:0004e6ad       ??$use_facet@V?$messages@D@std@@@std@@YAABV?$messages@D@0@ABVlocale@0@@Z 1004f6ad f i libcpmt:xlocale.obj
 0001:0004e767       ??$use_facet@V?$money_get@DV?$istreambuf_iterator@DU?$char_traits@D@std@@@std@@@std@@@std@@YAABV?$money_get@DV?$istreambuf_iterator@DU?$char_traits@D@std@@@std@@@0@ABVlocale@0@@Z 1004f767 f i libcpmt:xlocale.obj
 0001:0004e821       ??$use_facet@V?$money_put@DV?$ostreambuf_iterator@DU?$char_traits@D@std@@@std@@@std@@@std@@YAABV?$money_put@DV?$ostreambuf_iterator@DU?$char_traits@D@std@@@std@@@0@ABVlocale@0@@Z 1004f821 f i libcpmt:xlocale.obj
 0001:0004e8db       ??$use_facet@V?$moneypunct@D$00@std@@@std@@YAABV?$moneypunct@D$00@0@ABVlocale@0@@Z 1004f8db f i libcpmt:xlocale.obj
 0001:0004e995       ??$use_facet@V?$moneypunct@D$0A@@std@@@std@@YAABV?$moneypunct@D$0A@@0@ABVlocale@0@@Z 1004f995 f i libcpmt:xlocale.obj
 0001:0004ea4f       ??$use_facet@V?$time_get@DV?$istreambuf_iterator@DU?$char_traits@D@std@@@std@@@std@@@std@@YAABV?$time_get@DV?$istreambuf_iterator@DU?$char_traits@D@std@@@std@@@0@ABVlocale@0@@Z 1004fa4f f i libcpmt:xlocale.obj
 0001:0004eb09       ??$use_facet@V?$time_put@DV?$ostreambuf_iterator@DU?$char_traits@D@std@@@std@@@std@@@std@@YAABV?$time_put@DV?$ostreambuf_iterator@DU?$char_traits@D@std@@@std@@@0@ABVlocale@0@@Z 1004fb09 f i libcpmt:xlocale.obj
 0001:0004ebc3       ??0?$_Mpunct@D@std@@QAE@ABV_Locinfo@1@I_N1@Z 1004fbc3 f i libcpmt:xlocale.obj
 0001:0004ec0e       ??0?$_String_const_iterator@V?$_String_val@U?$_Simple_types@D@std@@@std@@@std@@QAE@PBDPBU_Container_base0@1@@Z 1004fc0e f i libcpmt:xlocale.obj
 0001:0004ec1f       ??0?$_String_const_iterator@V?$_String_val@U?$_Simple_types@D@std@@@std@@@std@@QAE@XZ 1004fc1f f i libcpmt:xlocale.obj
 0001:0004ec25       ??0?$_String_iterator@V?$_String_val@U?$_Simple_types@D@std@@@std@@@std@@QAE@PBDPBU_Container_base0@1@@Z 1004fc25 f i libcpmt:xlocale.obj
 0001:0004ec36       ??0?$collate@D@std@@QAE@ABV_Locinfo@1@I@Z 1004fc36 f i libcpmt:xlocale.obj
 0001:0004ec68       ??0?$messages@D@std@@QAE@ABV_Locinfo@1@I@Z 1004fc68 f i libcpmt:xlocale.obj
 0001:0004ec87       ??0?$money_get@DV?$istreambuf_iterator@DU?$char_traits@D@std@@@std@@@std@@QAE@ABV_Locinfo@1@I@Z 1004fc87 f i libcpmt:xlocale.obj
 0001:0004eca6       ??0?$money_put@DV?$ostreambuf_iterator@DU?$char_traits@D@std@@@std@@@std@@QAE@ABV_Locinfo@1@I@Z 1004fca6 f i libcpmt:xlocale.obj
 0001:0004ecc5       ??0?$moneypunct@D$00@std@@QAE@ABV_Locinfo@1@I_N@Z 1004fcc5 f i libcpmt:xlocale.obj
 0001:0004ecf5       ??0?$moneypunct@D$0A@@std@@QAE@ABV_Locinfo@1@I_N@Z 1004fcf5 f i libcpmt:xlocale.obj
 0001:0004ed25       ??0?$time_get@DV?$istreambuf_iterator@DU?$char_traits@D@std@@@std@@@std@@QAE@ABV_Locinfo@1@I@Z 1004fd25 f i libcpmt:xlocale.obj
 0001:0004ed64       ??0?$time_put@DV?$ostreambuf_iterator@DU?$char_traits@D@std@@@std@@@std@@QAE@ABV_Locinfo@1@I@Z 1004fd64 f i libcpmt:xlocale.obj
 0001:0004ed97       ??1?$_Mpunct@D@std@@MAE@XZ 1004fd97 f i libcpmt:xlocale.obj
 0001:0004edb2       ??1?$_Tidy_guard@V?$_Mpunct@D@std@@@std@@QAE@XZ 1004fdb2 f i libcpmt:xlocale.obj
 0001:0004edbf       ??1?$_Tidy_guard@V?$time_get@DV?$istreambuf_iterator@DU?$char_traits@D@std@@@std@@@std@@@std@@QAE@XZ 1004fdbf f i libcpmt:xlocale.obj
 0001:0004edcc       ??1?$collate@D@std@@MAE@XZ 1004fdcc f i libcpmt:xlocale.obj
 0001:0004edec       ??1?$messages@D@std@@MAE@XZ 1004fdec f i libcpmt:xlocale.obj
 0001:0004edf3       ??1?$money_get@DV?$istreambuf_iterator@DU?$char_traits@D@std@@@std@@@std@@MAE@XZ 1004fdf3 f i libcpmt:xlocale.obj
 0001:0004edfa       ??1?$money_put@DV?$ostreambuf_iterator@DU?$char_traits@D@std@@@std@@@std@@MAE@XZ 1004fdfa f i libcpmt:xlocale.obj
 0001:0004ee01       ??1?$moneypunct@D$00@std@@MAE@XZ 1004fe01 f i libcpmt:xlocale.obj
 0001:0004ee1c       ??1?$moneypunct@D$0A@@std@@MAE@XZ 1004fe1c f i libcpmt:xlocale.obj
 0001:0004ee37       ??1?$time_get@DV?$istreambuf_iterator@DU?$char_traits@D@std@@@std@@@std@@MAE@XZ 1004fe37 f i libcpmt:xlocale.obj
 0001:0004ee52       ??1?$time_put@DV?$ostreambuf_iterator@DU?$char_traits@D@std@@@std@@@std@@MAE@XZ 1004fe52 f i libcpmt:xlocale.obj
 0001:0004ee72       ??8?$_String_const_iterator@V?$_String_val@U?$_Simple_types@D@std@@@std@@@std@@QBE_NABV01@@Z 1004fe72 f i libcpmt:xlocale.obj
 0001:0004ee87       ??9?$_String_const_iterator@V?$_String_val@U?$_Simple_types@D@std@@@std@@@std@@QBE_NABV01@@Z 1004fe87 f i libcpmt:xlocale.obj
 0001:0004ee9c       ??D?$_String_const_iterator@V?$_String_val@U?$_Simple_types@D@std@@@std@@@std@@QBEABDXZ 1004fe9c f i libcpmt:xlocale.obj
 0001:0004ee9f       ??D?$_String_iterator@V?$_String_val@U?$_Simple_types@D@std@@@std@@@std@@QBEAADXZ 1004fe9f f i libcpmt:xlocale.obj
 0001:0004eea2       ??E?$_String_const_iterator@V?$_String_val@U?$_Simple_types@D@std@@@std@@@std@@QAEAAV01@XZ 1004fea2 f i libcpmt:xlocale.obj
 0001:0004eea7       ??E?$_String_iterator@V?$_String_val@U?$_Simple_types@D@std@@@std@@@std@@QAEAAV01@XZ 1004fea7 f i libcpmt:xlocale.obj
 0001:0004eeac       ??E?$ostreambuf_iterator@DU?$char_traits@D@std@@@std@@QAEAAV01@H@Z 1004feac f i libcpmt:xlocale.obj
 0001:0004eeb1       ??G?$_String_iterator@V?$_String_val@U?$_Simple_types@D@std@@@std@@@std@@QBE?AV01@H@Z 1004feb1 f i libcpmt:xlocale.obj
 0001:0004eec6       ??H?$_String_iterator@V?$_String_val@U?$_Simple_types@D@std@@@std@@@std@@QBE?AV01@H@Z 1004fec6 f i libcpmt:xlocale.obj
 0001:0004eedb       ??Y?$_String_const_iterator@V?$_String_val@U?$_Simple_types@D@std@@@std@@@std@@QAEAAV01@H@Z 1004fedb f i libcpmt:xlocale.obj
 0001:0004eeec       ??Y?$_String_iterator@V?$_String_val@U?$_Simple_types@D@std@@@std@@@std@@QAEAAV01@H@Z 1004feec f i libcpmt:xlocale.obj
 0001:0004eefd       ??Z?$_String_const_iterator@V?$_String_val@U?$_Simple_types@D@std@@@std@@@std@@QAEAAV01@H@Z 1004fefd f i libcpmt:xlocale.obj
 0001:0004ef0e       ??Z?$_String_iterator@V?$_String_val@U?$_Simple_types@D@std@@@std@@@std@@QAEAAV01@H@Z 1004ff0e f i libcpmt:xlocale.obj
 0001:0004ef1f       ??_E?$_Mpunct@D@std@@MAEPAXI@Z 1004ff1f f i libcpmt:xlocale.obj
 0001:0004ef1f       ??_G?$_Mpunct@D@std@@MAEPAXI@Z 1004ff1f f i libcpmt:xlocale.obj
 0001:0004ef58       ??_E?$collate@D@std@@MAEPAXI@Z 1004ff58 f i libcpmt:xlocale.obj
 0001:0004ef58       ??_G?$collate@D@std@@MAEPAXI@Z 1004ff58 f i libcpmt:xlocale.obj
 0001:0004ef82       ??_G?$messages@D@std@@MAEPAXI@Z 1004ff82 f i libcpmt:xlocale.obj
 0001:0004ef82       ??_E?$messages@D@std@@MAEPAXI@Z 1004ff82 f i libcpmt:xlocale.obj
 0001:0004efad       ??_E?$money_get@DV?$istreambuf_iterator@DU?$char_traits@D@std@@@std@@@std@@MAEPAXI@Z 1004ffad f i libcpmt:xlocale.obj
 0001:0004efad       ??_G?$money_get@DV?$istreambuf_iterator@DU?$char_traits@D@std@@@std@@@std@@MAEPAXI@Z 1004ffad f i libcpmt:xlocale.obj
 0001:0004efd8       ??_G?$money_put@DV?$ostreambuf_iterator@DU?$char_traits@D@std@@@std@@@std@@MAEPAXI@Z 1004ffd8 f i libcpmt:xlocale.obj
 0001:0004efd8       ??_E?$money_put@DV?$ostreambuf_iterator@DU?$char_traits@D@std@@@std@@@std@@MAEPAXI@Z 1004ffd8 f i libcpmt:xlocale.obj
 0001:0004f003       ??_E?$moneypunct@D$00@std@@MAEPAXI@Z 10050003 f i libcpmt:xlocale.obj
 0001:0004f003       ??_G?$moneypunct@D$00@std@@MAEPAXI@Z 10050003 f i libcpmt:xlocale.obj
 0001:0004f03c       ??_G?$moneypunct@D$0A@@std@@MAEPAXI@Z 1005003c f i libcpmt:xlocale.obj
 0001:0004f03c       ??_E?$moneypunct@D$0A@@std@@MAEPAXI@Z 1005003c f i libcpmt:xlocale.obj
 0001:0004f075       ??_G?$time_get@DV?$istreambuf_iterator@DU?$char_traits@D@std@@@std@@@std@@MAEPAXI@Z 10050075 f i libcpmt:xlocale.obj
 0001:0004f075       ??_E?$time_get@DV?$istreambuf_iterator@DU?$char_traits@D@std@@@std@@@std@@MAEPAXI@Z 10050075 f i libcpmt:xlocale.obj
 0001:0004f0ae       ??_G?$time_put@DV?$ostreambuf_iterator@DU?$char_traits@D@std@@@std@@@std@@MAEPAXI@Z 100500ae f i libcpmt:xlocale.obj
 0001:0004f0ae       ??_E?$time_put@DV?$ostreambuf_iterator@DU?$char_traits@D@std@@@std@@@std@@MAEPAXI@Z 100500ae f i libcpmt:xlocale.obj
 0001:0004f0d8       ?_Compat@?$_String_const_iterator@V?$_String_val@U?$_Simple_types@D@std@@@std@@@std@@QBEXABV12@@Z 100500d8 f i libcpmt:xlocale.obj
 0001:0004f0db       ?_Getcat@?$collate@D@std@@SAIPAPBVfacet@locale@2@PBV42@@Z 100500db f i libcpmt:xlocale.obj
 0001:0004f1a5       ?_Getcat@?$messages@D@std@@SAIPAPBVfacet@locale@2@PBV42@@Z 100501a5 f i libcpmt:xlocale.obj
 0001:0004f227       ?_Getcat@?$money_get@DV?$istreambuf_iterator@DU?$char_traits@D@std@@@std@@@std@@SAIPAPBVfacet@locale@2@PBV42@@Z 10050227 f i libcpmt:xlocale.obj
 0001:0004f2a9       ?_Getcat@?$money_put@DV?$ostreambuf_iterator@DU?$char_traits@D@std@@@std@@@std@@SAIPAPBVfacet@locale@2@PBV42@@Z 100502a9 f i libcpmt:xlocale.obj
 0001:0004f32b       ?_Getcat@?$moneypunct@D$00@std@@SAIPAPBVfacet@locale@2@PBV42@@Z 1005032b f i libcpmt:xlocale.obj
 0001:0004f3d0       ?_Getcat@?$moneypunct@D$0A@@std@@SAIPAPBVfacet@locale@2@PBV42@@Z 100503d0 f i libcpmt:xlocale.obj
 0001:0004f476       ?_Getcat@?$time_get@DV?$istreambuf_iterator@DU?$char_traits@D@std@@@std@@@std@@SAIPAPBVfacet@locale@2@PBV42@@Z 10050476 f i libcpmt:xlocale.obj
 0001:0004f4fd       ?_Getcat@?$time_put@DV?$ostreambuf_iterator@DU?$char_traits@D@std@@@std@@@std@@SAIPAPBVfacet@locale@2@PBV42@@Z 100504fd f i libcpmt:xlocale.obj
 0001:0004f58e       ?_Getfmt@?$time_get@DV?$istreambuf_iterator@DU?$char_traits@D@std@@@std@@@std@@IBE?AV?$istreambuf_iterator@DU?$char_traits@D@std@@@2@V32@0AAVios_base@2@AAHPAUtm@@PBD@Z 1005058e f i libcpmt:xlocale.obj
 0001:0004f70a       ?_Getint@?$time_get@DV?$istreambuf_iterator@DU?$char_traits@D@std@@@std@@@std@@ABAHAAV?$istreambuf_iterator@DU?$char_traits@D@std@@@2@0HHAAHABV?$ctype@D@2@@Z 1005070a f i libcpmt:xlocale.obj
 0001:0004f93d       ?_Getmfld@?$money_get@DV?$istreambuf_iterator@DU?$char_traits@D@std@@@std@@@std@@ABE?AV?$basic_string@DU?$char_traits@D@std@@V?$allocator@D@2@@2@AAV?$istreambuf_iterator@DU?$char_traits@D@std@@@2@0_NAAVios_base@2@AAY0M@D@Z 1005093d f i libcpmt:xlocale.obj
 0001:000506d7       ?_Gettnames@_Locinfo@std@@QBE?AV_Timevec@2@XZ 100516d7 f i libcpmt:xlocale.obj
 0001:000506ee       ?_Init@?$_Mpunct@D@std@@IAEXABV_Locinfo@2@_N@Z 100516ee f i libcpmt:xlocale.obj
 0001:000507eb       ?_Init@?$collate@D@std@@IAEXABV_Locinfo@2@@Z 100517eb f i libcpmt:xlocale.obj
 0001:00050801       ?_Init@?$messages@D@std@@IAEXABV_Locinfo@2@@Z 10051801 f i libcpmt:xlocale.obj
 0001:00050804       ?_Init@?$money_get@DV?$istreambuf_iterator@DU?$char_traits@D@std@@@std@@@std@@IAEXABV_Locinfo@2@@Z 10051804 f i libcpmt:xlocale.obj
 0001:00050807       ?_Init@?$money_put@DV?$ostreambuf_iterator@DU?$char_traits@D@std@@@std@@@std@@IAEXABV_Locinfo@2@@Z 10051807 f i libcpmt:xlocale.obj
 0001:0005080a       ?_Init@?$time_get@DV?$istreambuf_iterator@DU?$char_traits@D@std@@@std@@@std@@IAEXABV_Locinfo@2@@Z 1005180a f i libcpmt:xlocale.obj
 0001:00050850       ?_Init@?$time_put@DV?$ostreambuf_iterator@DU?$char_traits@D@std@@@std@@@std@@IAEXABV_Locinfo@2@@Z 10051850 f i libcpmt:xlocale.obj
 0001:00050883       ?_Makexloc@_Locimp@locale@std@@CAXABV_Locinfo@3@HPAV123@PBV23@@Z 10051883 f   libcpmt:xlocale.obj
 0001:00050c93       ?_Makpat@?$_Mpunct@D@std@@AAEXAAUpattern@money_base@2@III@Z 10051c93 f i libcpmt:xlocale.obj
 0001:00050ce4       ?_Put@?$money_put@DV?$ostreambuf_iterator@DU?$char_traits@D@std@@@std@@@std@@CA?AV?$ostreambuf_iterator@DU?$char_traits@D@std@@@2@V32@V?$_String_const_iterator@V?$_String_val@U?$_Simple_types@D@std@@@std@@@2@I@Z 10051ce4 f i libcpmt:xlocale.obj
 0001:00050d28       ?_Putmfld@?$money_put@DV?$ostreambuf_iterator@DU?$char_traits@D@std@@@std@@@std@@ABE?AV?$ostreambuf_iterator@DU?$char_traits@D@std@@@2@V32@_NAAVios_base@2@D1V?$basic_string@DU?$char_traits@D@std@@V?$allocator@D@2@@2@D@Z 10051d28 f i libcpmt:xlocale.obj
 0001:000514b9       ?_Rep@?$money_put@DV?$ostreambuf_iterator@DU?$char_traits@D@std@@@std@@@std@@CA?AV?$ostreambuf_iterator@DU?$char_traits@D@std@@@2@V32@DI@Z 100524b9 f i libcpmt:xlocale.obj
 0001:000514f0       ?_Tidy@?$_Mpunct@D@std@@AAEXXZ 100524f0 f i libcpmt:xlocale.obj
 0001:00051522       ?_Tidy@?$time_get@DV?$istreambuf_iterator@DU?$char_traits@D@std@@@std@@@std@@AAEXXZ 10052522 f i libcpmt:xlocale.obj
 0001:0005154a       ?begin@?$basic_string@DU?$char_traits@D@std@@V?$allocator@D@2@@std@@QAE?AV?$_String_iterator@V?$_String_val@U?$_Simple_types@D@std@@@std@@@2@XZ 1005254a f i libcpmt:xlocale.obj
 0001:00051563       ?curr_symbol@?$_Mpunct@D@std@@QBE?AV?$basic_string@DU?$char_traits@D@std@@V?$allocator@D@2@@2@XZ 10052563 f i libcpmt:xlocale.obj
 0001:00051590       ?date_order@?$time_get@DV?$istreambuf_iterator@DU?$char_traits@D@std@@@std@@@std@@QBE?AW4dateorder@time_base@2@XZ 10052590 f i libcpmt:xlocale.obj
 0001:000515ae       ?decimal_point@?$_Mpunct@D@std@@QBEDXZ 100525ae f i libcpmt:xlocale.obj
 0001:000515cc       ?do_close@?$messages@D@std@@MBEXH@Z 100525cc f i libcpmt:xlocale.obj
 0001:000515cf       ?do_compare@?$collate@D@std@@MBEHPBD000@Z 100525cf f i libcpmt:xlocale.obj
 0001:0005160c       ?do_curr_symbol@?$_Mpunct@D@std@@MBE?AV?$basic_string@DU?$char_traits@D@std@@V?$allocator@D@2@@2@XZ 1005260c f i libcpmt:xlocale.obj
 0001:00051626       ?do_date_order@?$time_get@DV?$istreambuf_iterator@DU?$char_traits@D@std@@@std@@@std@@MBE?AW4dateorder@time_base@2@XZ 10052626 f i libcpmt:xlocale.obj
 0001:0005162a       ?do_decimal_point@?$_Mpunct@D@std@@MBEDXZ 1005262a f i libcpmt:xlocale.obj
 0001:0005162e       ?do_frac_digits@?$_Mpunct@D@std@@MBEHXZ 1005262e f i libcpmt:xlocale.obj
 0001:00051632       ?do_get@?$messages@D@std@@MBE?AV?$basic_string@DU?$char_traits@D@std@@V?$allocator@D@2@@2@HHHABV32@@Z 10052632 f i libcpmt:xlocale.obj
 0001:0005165a       ?do_get@?$money_get@DV?$istreambuf_iterator@DU?$char_traits@D@std@@@std@@@std@@MBE?AV?$istreambuf_iterator@DU?$char_traits@D@std@@@2@V32@0_NAAVios_base@2@AAHAAO@Z 1005265a f i libcpmt:xlocale.obj
 0001:0005172c       ?do_get@?$money_get@DV?$istreambuf_iterator@DU?$char_traits@D@std@@@std@@@std@@MBE?AV?$istreambuf_iterator@DU?$char_traits@D@std@@@2@V32@0_NAAVios_base@2@AAHAAV?$basic_string@DU?$char_traits@D@std@@V?$allocator@D@2@@2@@Z 1005272c f i libcpmt:xlocale.obj
 0001:00051832       ?do_get@?$time_get@DV?$istreambuf_iterator@DU?$char_traits@D@std@@@std@@@std@@MBE?AV?$istreambuf_iterator@DU?$char_traits@D@std@@@2@V32@0AAVios_base@2@AAHPAUtm@@DD@Z 10052832 f i libcpmt:xlocale.obj
 0001:00051cc0       ?do_get_date@?$time_get@DV?$istreambuf_iterator@DU?$char_traits@D@std@@@std@@@std@@MBE?AV?$istreambuf_iterator@DU?$char_traits@D@std@@@2@V32@0AAVios_base@2@AAHPAUtm@@@Z 10052cc0 f i libcpmt:xlocale.obj
 0001:00052271       ?do_get_monthname@?$time_get@DV?$istreambuf_iterator@DU?$char_traits@D@std@@@std@@@std@@MBE?AV?$istreambuf_iterator@DU?$char_traits@D@std@@@2@V32@0AAVios_base@2@AAHPAUtm@@@Z 10053271 f i libcpmt:xlocale.obj
 0001:000522c1       ?do_get_time@?$time_get@DV?$istreambuf_iterator@DU?$char_traits@D@std@@@std@@@std@@MBE?AV?$istreambuf_iterator@DU?$char_traits@D@std@@@2@V32@0AAVios_base@2@AAHPAUtm@@@Z 100532c1 f i libcpmt:xlocale.obj
 0001:0005242b       ?do_get_weekday@?$time_get@DV?$istreambuf_iterator@DU?$char_traits@D@std@@@std@@@std@@MBE?AV?$istreambuf_iterator@DU?$char_traits@D@std@@@2@V32@0AAVios_base@2@AAHPAUtm@@@Z 1005342b f i libcpmt:xlocale.obj
 0001:0005247b       ?do_get_year@?$time_get@DV?$istreambuf_iterator@DU?$char_traits@D@std@@@std@@@std@@MBE?AV?$istreambuf_iterator@DU?$char_traits@D@std@@@2@V32@0AAVios_base@2@AAHPAUtm@@@Z 1005347b f i libcpmt:xlocale.obj
 0001:00052535       ?do_grouping@?$_Mpunct@D@std@@MBE?AV?$basic_string@DU?$char_traits@D@std@@V?$allocator@D@2@@2@XZ 10053535 f i libcpmt:xlocale.obj
 0001:0005254f       ?do_hash@?$collate@D@std@@MBEJPBD0@Z 1005354f f i libcpmt:xlocale.obj
 0001:00052574       ?do_neg_format@?$_Mpunct@D@std@@MBE?AUpattern@money_base@2@XZ 10053574 f i libcpmt:xlocale.obj
 0001:00052586       ?do_negative_sign@?$_Mpunct@D@std@@MBE?AV?$basic_string@DU?$char_traits@D@std@@V?$allocator@D@2@@2@XZ 10053586 f i libcpmt:xlocale.obj
 0001:000525a0       ?do_open@?$messages@D@std@@MBEHABV?$basic_string@DU?$char_traits@D@std@@V?$allocator@D@2@@2@ABVlocale@2@@Z 100535a0 f i libcpmt:xlocale.obj
 0001:000525a6       ?do_pos_format@?$_Mpunct@D@std@@MBE?AUpattern@money_base@2@XZ 100535a6 f i libcpmt:xlocale.obj
 0001:000525b8       ?do_positive_sign@?$_Mpunct@D@std@@MBE?AV?$basic_string@DU?$char_traits@D@std@@V?$allocator@D@2@@2@XZ 100535b8 f i libcpmt:xlocale.obj
 0001:000525d2       ?do_put@?$money_put@DV?$ostreambuf_iterator@DU?$char_traits@D@std@@@std@@@std@@MBE?AV?$ostreambuf_iterator@DU?$char_traits@D@std@@@2@V32@_NAAVios_base@2@DABV?$basic_string@DU?$char_traits@D@std@@V?$allocator@D@2@@2@@Z 100535d2 f i libcpmt:xlocale.obj
 0001:00052795       ?do_put@?$money_put@DV?$ostreambuf_iterator@DU?$char_traits@D@std@@@std@@@std@@MBE?AV?$ostreambuf_iterator@DU?$char_traits@D@std@@@2@V32@_NAAVios_base@2@DO@Z 10053795 f i libcpmt:xlocale.obj
 0001:000529ae       ?do_put@?$time_put@DV?$ostreambuf_iterator@DU?$char_traits@D@std@@@std@@@std@@MBE?AV?$ostreambuf_iterator@DU?$char_traits@D@std@@@2@V32@AAVios_base@2@DPBUtm@@DD@Z 100539ae f i libcpmt:xlocale.obj
 0001:00052aee       ?do_thousands_sep@?$_Mpunct@D@std@@MBEDXZ 10053aee f i libcpmt:xlocale.obj
 0001:00052af2       ?do_transform@?$collate@D@std@@MBE?AV?$basic_string@DU?$char_traits@D@std@@V?$allocator@D@2@@2@PBD0@Z 10053af2 f i libcpmt:xlocale.obj
 0001:00052b97       ?end@?$basic_string@DU?$char_traits@D@std@@V?$allocator@D@2@@std@@QAE?AV?$_String_iterator@V?$_String_val@U?$_Simple_types@D@std@@@std@@@2@XZ 10053b97 f i libcpmt:xlocale.obj
 0001:00052bb8       ?frac_digits@?$_Mpunct@D@std@@QBEHXZ 10053bb8 f i libcpmt:xlocale.obj
 0001:00052bd6       ?get_monthname@?$time_get@DV?$istreambuf_iterator@DU?$char_traits@D@std@@@std@@@std@@QBE?AV?$istreambuf_iterator@DU?$char_traits@D@std@@@2@V32@0AAVios_base@2@AAHPAUtm@@@Z 10053bd6 f i libcpmt:xlocale.obj
 0001:00052c1c       ?get_weekday@?$time_get@DV?$istreambuf_iterator@DU?$char_traits@D@std@@@std@@@std@@QBE?AV?$istreambuf_iterator@DU?$char_traits@D@std@@@2@V32@0AAVios_base@2@AAHPAUtm@@@Z 10053c1c f i libcpmt:xlocale.obj
 0001:00052c62       ?get_year@?$time_get@DV?$istreambuf_iterator@DU?$char_traits@D@std@@@std@@@std@@QBE?AV?$istreambuf_iterator@DU?$char_traits@D@std@@@2@V32@0AAVios_base@2@AAHPAUtm@@@Z 10053c62 f i libcpmt:xlocale.obj
 0001:00052ca8       ?grouping@?$_Mpunct@D@std@@QBE?AV?$basic_string@DU?$char_traits@D@std@@V?$allocator@D@2@@2@XZ 10053ca8 f i libcpmt:xlocale.obj
 0001:00052cd5       ?is@?$ctype@D@std@@QBE_NFD@Z 10053cd5 f i libcpmt:xlocale.obj
 0001:00052cf4       ?narrow@?$ctype@D@std@@QBEDDD@Z 10053cf4 f i libcpmt:xlocale.obj
 0001:00052d21       ?neg_format@?$_Mpunct@D@std@@QBE?AUpattern@money_base@2@XZ 10053d21 f i libcpmt:xlocale.obj
 0001:00052d4e       ?negative_sign@?$_Mpunct@D@std@@QBE?AV?$basic_string@DU?$char_traits@D@std@@V?$allocator@D@2@@2@XZ 10053d4e f i libcpmt:xlocale.obj
 0001:00052d7b       ?pos_format@?$_Mpunct@D@std@@QBE?AUpattern@money_base@2@XZ 10053d7b f i libcpmt:xlocale.obj
 0001:00052da8       ?positive_sign@?$_Mpunct@D@std@@QBE?AV?$basic_string@DU?$char_traits@D@std@@V?$allocator@D@2@@2@XZ 10053da8 f i libcpmt:xlocale.obj
 0001:00052dd5       ?thousands_sep@?$_Mpunct@D@std@@QBEDXZ 10053dd5 f i libcpmt:xlocale.obj
 0001:00052df3       ?widen@?$ctype@D@std@@QBEDD@Z 10053df3 f i libcpmt:xlocale.obj
 0001:00052e1c       __Stolx                    10053e1c f   libcpmt:xstol.obj
 0001:00052ee9       __Stoul                    10053ee9 f   libcpmt:xstoul.obj
 0001:00052f07       __Stoulx                   10053f07 f   libcpmt:xstoul.obj
 0001:000530d5       __Stoll                    100540d5 f   libcpmt:xstoll.obj
 0001:000530f3       __Stollx                   100540f3 f   libcpmt:xstoll.obj
 0001:000531f0       __Stoull                   100541f0 f   libcpmt:xstoull.obj
 0001:0005320e       __Stoullx                  1005420e f   libcpmt:xstoull.obj
 0001:0005343b       _GetTableIndexFromLcid     1005443b f   libcpmt:winapinls.obj
 0001:0005347d       _GetTableIndexFromLocaleName 1005447d f   libcpmt:winapinls.obj
 0001:000534de       ___crtCompareStringEx      100544de f   libcpmt:winapinls.obj
 0001:00053545       ___crtDownlevelLCIDToLocaleName 10054545 f   libcpmt:winapinls.obj
 0001:000535ca       ___crtDownlevelLocaleNameToLCID 100545ca f   libcpmt:winapinls.obj
 0001:000535fe       ___crtGetLocaleInfoEx      100545fe f   libcpmt:winapinls.obj
 0001:00053641       ___crtLCMapStringEx        10054641 f   libcpmt:winapinls.obj
 0001:000536a8       ___wcsnicmp_ascii          100546a8 f   libcpmt:winapinls.obj
 0001:0005372a       __Getcoll                  1005472a f   libcpmt:xstrcoll.obj
 0001:00053753       __Strcoll                  10054753 f   libcpmt:xstrcoll.obj
 0001:0005380a       __Getdateorder             1005480a f   libcpmt:xdateord.obj
 0001:00053893       __Mbrtowc                  10054893 f   libcpmt:xmbtowc.obj
 0001:00053a7d       __Wcscoll                  10054a7d f   libcpmt:xwcscoll.obj
 0001:00053b27       _wmemcmp                   10054b27 f i libcpmt:xwcscoll.obj
 0001:00053b6a       __Wcsxfrm                  10054b6a f   libcpmt:xwcsxfrm.obj
 0001:00053c5f       __Getwctype                10054c5f f   libcpmt:xgetwctype.obj
 0001:00053c87       __Getwctypes               10054c87 f   libcpmt:xgetwctype.obj
 0001:00053cad       __Towlower                 10054cad f   libcpmt:xtowlower.obj
 0001:00053d25       __Towupper                 10054d25 f   libcpmt:xtowupper.obj
 0001:00053da2       __Strxfrm                  10054da2 f   libcpmt:xstrxfrm.obj
 0001:00053e76       ___crtCompareStringA       10054e76 f   libcpmt:StlCompareStringA.obj
 0001:00054174       ___crtCompareStringW       10055174 f   libcpmt:StlCompareStringW.obj
 0001:000541ed       ___crtLCMapStringW         100551ed f   libcpmt:StlLCMapStringW.obj
 0001:00054235       _GetModuleHandleA@4        10055235 f   kernel32:KERNEL32.dll
 0001:0005423b       _GetProcAddress@8          1005523b f   kernel32:KERNEL32.dll
 0001:00054241       _FindFirstFileA@8          10055241 f   kernel32:KERNEL32.dll
 0001:00054247       _FindNextFileA@8           10055247 f   kernel32:KERNEL32.dll
 0001:0005424d       _CloseHandle@4             1005524d f   kernel32:KERNEL32.dll
 0001:00054253       _ReleaseSemaphore@12       10055253 f   kernel32:KERNEL32.dll
 0001:00054259       _ReleaseMutex@4            10055259 f   kernel32:KERNEL32.dll
 0001:0005425f       _WaitForSingleObject@8     1005525f f   kernel32:KERNEL32.dll
 0001:00054265       _CreateMutexA@12           10055265 f   kernel32:KERNEL32.dll
 0001:0005426b       _CreateThread@24           1005526b f   kernel32:KERNEL32.dll
 0001:00054271       _TerminateThread@8         10055271 f   kernel32:KERNEL32.dll
 0001:00054277       _CreateSemaphoreA@16       10055277 f   kernel32:KERNEL32.dll
 0001:0005427d       _UnhandledExceptionFilter@4 1005527d f   kernel32:KERNEL32.dll
 0001:00054283       _SetUnhandledExceptionFilter@4 10055283 f   kernel32:KERNEL32.dll
 0001:00054289       _GetCurrentProcess@0       10055289 f   kernel32:KERNEL32.dll
 0001:0005428f       _TerminateProcess@8        1005528f f   kernel32:KERNEL32.dll
 0001:00054295       _IsProcessorFeaturePresent@4 10055295 f   kernel32:KERNEL32.dll
 0001:0005429b       _QueryPerformanceCounter@4 1005529b f   kernel32:KERNEL32.dll
 0001:000542a1       _GetCurrentProcessId@0     100552a1 f   kernel32:KERNEL32.dll
 0001:000542a7       _GetCurrentThreadId@0      100552a7 f   kernel32:KERNEL32.dll
 0001:000542ad       _GetSystemTimeAsFileTime@4 100552ad f   kernel32:KERNEL32.dll
 0001:000542b3       _InitializeSListHead@4     100552b3 f   kernel32:KERNEL32.dll
 0001:000542b9       _IsDebuggerPresent@0       100552b9 f   kernel32:KERNEL32.dll
 0001:000542bf       _GetStartupInfoW@4         100552bf f   kernel32:KERNEL32.dll
 0001:000542c5       _GetModuleHandleW@4        100552c5 f   kernel32:KERNEL32.dll
 0001:000542cb       _GetLastError@0            100552cb f   kernel32:KERNEL32.dll
 0001:000542d1       _FormatMessageA@28         100552d1 f   kernel32:KERNEL32.dll
 0001:000542d7       _WideCharToMultiByte@32    100552d7 f   kernel32:KERNEL32.dll
 0001:000542dd       _EnterCriticalSection@4    100552dd f   kernel32:KERNEL32.dll
 0001:000542e3       _LeaveCriticalSection@4    100552e3 f   kernel32:KERNEL32.dll
 0001:000542e9       _DeleteCriticalSection@4   100552e9 f   kernel32:KERNEL32.dll
 0001:000542ef       _SetLastError@4            100552ef f   kernel32:KERNEL32.dll
 0001:000542f5       _InitializeCriticalSectionAndSpinCount@8 100552f5 f   kernel32:KERNEL32.dll
 0001:000542fb       _CreateEventW@16           100552fb f   kernel32:KERNEL32.dll
 0001:00054301       _SwitchToThread@0          10055301 f   kernel32:KERNEL32.dll
 0001:00054307       _TlsAlloc@0                10055307 f   kernel32:KERNEL32.dll
 0001:0005430d       _TlsGetValue@4             1005530d f   kernel32:KERNEL32.dll
 0001:00054313       _TlsSetValue@8             10055313 f   kernel32:KERNEL32.dll
 0001:00054319       _TlsFree@4                 10055319 f   kernel32:KERNEL32.dll
 0001:0005431f       _GetTickCount@0            1005531f f   kernel32:KERNEL32.dll
 0001:00054325       _LocalFree@4               10055325 f   kernel32:KERNEL32.dll
 0001:0005432b       _EncodePointer@4           1005532b f   kernel32:KERNEL32.dll
 0001:00054331       _DecodePointer@4           10055331 f   kernel32:KERNEL32.dll
 0001:00054337       _MultiByteToWideChar@24    10055337 f   kernel32:KERNEL32.dll
 0001:0005433d       _CompareStringW@24         1005533d f   kernel32:KERNEL32.dll
 0001:00054343       _LCMapStringW@24           10055343 f   kernel32:KERNEL32.dll
 0001:00054349       _GetLocaleInfoW@16         10055349 f   kernel32:KERNEL32.dll
 0001:0005434f       _GetStringTypeW@16         1005534f f   kernel32:KERNEL32.dll
 0001:00054355       _GetCPInfo@8               10055355 f   kernel32:KERNEL32.dll
 0001:00054360       _memcpy                    10055360 f   libvcruntime:memcpy.obj
 0001:00054a40       _strchr                    10055a40 f   libvcruntime:strchr.obj
 0001:00054aae       ___from_strstr_to_strchr   10055aae     libvcruntime:strchr.obj
 0001:00054bc0       _memmove                   10055bc0 f   libvcruntime:memmove.obj
 0001:000552a0       _memset                    100562a0 f   libvcruntime:memset.obj
 0001:00055450       ??$__crt_interlocked_exchange_pointer@$$A6AXXZP6AXXZ@@YAP6AXXZPDS6AXXZQ6AXXZ@Z 10056450 f i libvcruntime:purevirt.obj
 0001:00055460       ??$__crt_interlocked_read_pointer@$$A6AXXZ@@YAP6AXXZPDS6AXXZ@Z 10056460 f i libvcruntime:purevirt.obj
 0001:0005546c       ?__crt_interlocked_read_32@@YAHPDH@Z 1005646c f i libvcruntime:purevirt.obj
 0001:00055478       __get_purecall_handler     10056478 f   libvcruntime:purevirt.obj
 0001:0005547e       __purecall                 1005647e f   libvcruntime:purevirt.obj
 0001:000554a1       __set_purecall_handler     100564a1 f   libvcruntime:purevirt.obj
 0001:000554b3       ___DestructExceptionObject 100564b3 f   libvcruntime:ehhelpers.obj
 0001:0005557c       ?_CallMemberFunction0@@YGXQAX0@Z 1005657c f i libvcruntime:ehhelpers.obj
 0001:000555fa       ?raw_name@type_info@@QBEPBDXZ 100565fa f i libvcruntime:ehhelpers.obj
 0001:000555fe       __IsExceptionObjectToBeDestroyed 100565fe f   libvcruntime:ehhelpers.obj
 0001:0005562d       __SetWinRTOutOfMemoryExceptionCallback 1005662d f   libvcruntime:ehhelpers.obj
 0001:0005563d       ___AdjustPointer           1005663d f   libvcruntime:ehhelpers.obj
 0001:0005566b       ___FrameUnwindFilter       1005666b f   libvcruntime:ehhelpers.obj
 0001:000556d6       ___GetPlatformExceptionInfo 100566d6 f   libvcruntime:ehhelpers.obj
 0001:00055735       ___current_exception       10056735 f   libvcruntime:ehhelpers.obj
 0001:00055740       ___current_exception_context 10056740 f   libvcruntime:ehhelpers.obj
 0001:0005574b       ___processing_throw        1005674b f   libvcruntime:ehhelpers.obj
 0001:00055756       ___std_terminate           10056756 f   libvcruntime:ehhelpers.obj
 0001:0005575b       __is_exception_typeof      1005675b f   libvcruntime:ehhelpers.obj
 0001:00055828       ??$?RD@__crt_public_free_policy@@QBEXQBD@Z 10056828 f i libvcruntime:std_exception.obj
 0001:0005583c       ??0?$__crt_unique_heap_ptr@DU__crt_public_free_policy@@@@QAE@QAD@Z 1005683c f i libvcruntime:std_exception.obj
 0001:0005584d       ??1?$__crt_unique_heap_ptr@DU__crt_public_free_policy@@@@QAE@XZ 1005684d f i libvcruntime:std_exception.obj
 0001:00055861       ??B?$__crt_unique_heap_ptr@DU__crt_public_free_policy@@@@QBE_NXZ 10056861 f i libvcruntime:std_exception.obj
 0001:00055868       ?detach@?$__crt_unique_heap_ptr@DU__crt_public_free_policy@@@@QAEPADXZ 10056868 f i libvcruntime:std_exception.obj
 0001:0005586e       ?get@?$__crt_unique_heap_ptr@DU__crt_public_free_policy@@@@QBEPADXZ 1005686e f i libvcruntime:std_exception.obj
 0001:00055871       ?is_valid@?$__crt_unique_heap_ptr@DU__crt_public_free_policy@@@@QBE_NXZ 10056871 f i libvcruntime:std_exception.obj
 0001:00055878       ?release@?$__crt_unique_heap_ptr@DU__crt_public_free_policy@@@@QAEXXZ 10056878 f i libvcruntime:std_exception.obj
 0001:0005588c       ___std_exception_copy      1005688c f   libvcruntime:std_exception.obj
 0001:00055907       ___std_exception_destroy   10056907 f   libvcruntime:std_exception.obj
 0001:0005592d       __CxxThrowException@8      1005692d f   libvcruntime:throw.obj
 0001:000559b4       ??$?0AAViterator@TryBlockMap@__FrameHandler3@@AAV012@$0A@@?$pair@Viterator@TryBlockMap@__FrameHandler3@@V123@@std@@QAE@AAViterator@TryBlockMap@__FrameHandler3@@0@Z 100569b4 f i libvcruntime:trnsctrl.obj
 0001:000559e1       ??$forward@AAViterator@TryBlockMap@__FrameHandler3@@@std@@YAAAViterator@TryBlockMap@__FrameHandler3@@AAV123@@Z 100569e1 f i libvcruntime:trnsctrl.obj
 0001:000559eb       ??0iterator@TryBlockMap@__FrameHandler3@@QAE@AAV12@I@Z 100569eb f i libvcruntime:trnsctrl.obj
 0001:00055a04       ?GetRangeOfTrysToCheck@__FrameHandler3@@SA?AU?$pair@Viterator@TryBlockMap@__FrameHandler3@@V123@@std@@AAVTryBlockMap@1@HPAXPBU_s_FuncInfo@@H@Z 10056a04 f   libvcruntime:trnsctrl.obj
 0001:00055a90       ?_CallCatchBlock2@@YAPAXPAUEHRegistrationNode@@PBU_s_FuncInfo@@PAXHK@Z 10056a90 f   libvcruntime:trnsctrl.obj
 0001:00055b05       ?_CallSETranslator@@YAHPAUEHExceptionRecord@@PAUEHRegistrationNode@@PAX2PBU_s_FuncInfo@@H1@Z 10056b05 f   libvcruntime:trnsctrl.obj
 0001:00055c24       ?_JumpToContinuation@@YGXPAXPAUEHRegistrationNode@@@Z 10056c24 f   libvcruntime:trnsctrl.obj
 0001:00055c60       ?_UnwindNestedFrames@@YGXPAUEHRegistrationNode@@PAUEHExceptionRecord@@@Z 10056c60 f   libvcruntime:trnsctrl.obj
 0001:00055cc7       __CatchGuardHandler        10056cc7 f   libvcruntime:trnsctrl.obj
 0001:00055d04       __CreateFrameInfo          10056d04 f   libvcruntime:trnsctrl.obj
 0001:00055d31       __FindAndUnlinkFrame       10056d31 f   libvcruntime:trnsctrl.obj
 0001:00055d8b       __TranslatorGuardHandler   10056d8b f   libvcruntime:trnsctrl.obj
 0001:00055e4f       ___CxxFrameHandler         10056e4f f   libvcruntime:trnsctrl.obj
 0001:00055e92       ___CxxFrameHandler2        10056e92 f   libvcruntime:trnsctrl.obj
 0001:00055ed5       ___CxxFrameHandler3        10056ed5 f   libvcruntime:trnsctrl.obj
 0001:00055f18       ___CxxLongjmpUnwind@4      10056f18 f   libvcruntime:trnsctrl.obj
 0001:00055f50       _memchr                    10056f50 f   libvcruntime:memchr.obj
 0001:00056070       __except_handler4          10057070 f   libvcruntime:chandler4.obj
 0001:00056235       ??$?RD@__crt_internal_free_policy@@QBEXQBD@Z 10057235 f i libvcruntime:std_type_info.obj
 0001:00056249       ??$?RX@__crt_internal_free_policy@@QBEXQBX@Z 10057249 f i libvcruntime:std_type_info.obj
 0001:0005625d       ??$__crt_interlocked_compare_exchange_pointer@$$CBDPAD$$T@@YAPBDPDSBDQAD$$T@Z 1005725d f i libvcruntime:std_type_info.obj
 0001:00056273       ??$__crt_interlocked_read_pointer@$$CBD@@YAPBDPDSBD@Z 10057273 f i libvcruntime:std_type_info.obj
 0001:0005627f       ??0?$__crt_unique_heap_ptr@DU__crt_internal_free_policy@@@@QAE@QAD@Z 1005727f f i libvcruntime:std_type_info.obj
 0001:00056290       ??0?$__crt_unique_heap_ptr@XU__crt_internal_free_policy@@@@QAE@QAX@Z 10057290 f i libvcruntime:std_type_info.obj
 0001:000562a1       ??1?$__crt_unique_heap_ptr@DU__crt_internal_free_policy@@@@QAE@XZ 100572a1 f i libvcruntime:std_type_info.obj
 0001:000562b5       ??1?$__crt_unique_heap_ptr@XU__crt_internal_free_policy@@@@QAE@XZ 100572b5 f i libvcruntime:std_type_info.obj
 0001:000562c9       ??B?$__crt_unique_heap_ptr@DU__crt_internal_free_policy@@@@QBE_NXZ 100572c9 f i libvcruntime:std_type_info.obj
 0001:000562d0       ??B?$__crt_unique_heap_ptr@XU__crt_internal_free_policy@@@@QBE_NXZ 100572d0 f i libvcruntime:std_type_info.obj
 0001:0005630b       ?detach@?$__crt_unique_heap_ptr@XU__crt_internal_free_policy@@@@QAEPAXXZ 1005730b f i libvcruntime:std_type_info.obj
 0001:00056311       ?get@?$__crt_unique_heap_ptr@DU__crt_internal_free_policy@@@@QBEPADXZ 10057311 f i libvcruntime:std_type_info.obj
 0001:00056314       ?get@?$__crt_unique_heap_ptr@XU__crt_internal_free_policy@@@@QBEPAXXZ 10057314 f i libvcruntime:std_type_info.obj
 0001:00056317       ?is_valid@?$__crt_unique_heap_ptr@DU__crt_internal_free_policy@@@@QBE_NXZ 10057317 f i libvcruntime:std_type_info.obj
 0001:0005631e       ?is_valid@?$__crt_unique_heap_ptr@XU__crt_internal_free_policy@@@@QBE_NXZ 1005731e f i libvcruntime:std_type_info.obj
 0001:00056325       ?release@?$__crt_unique_heap_ptr@DU__crt_internal_free_policy@@@@QAEXXZ 10057325 f i libvcruntime:std_type_info.obj
 0001:00056339       ?release@?$__crt_unique_heap_ptr@XU__crt_internal_free_policy@@@@QAEXXZ 10057339 f i libvcruntime:std_type_info.obj
 0001:0005634d       ___std_type_info_compare   1005734d f   libvcruntime:std_type_info.obj
 0001:00056398       ___std_type_info_destroy_list 10057398 f   libvcruntime:std_type_info.obj
 0001:000563c3       ___std_type_info_hash      100573c3 f   libvcruntime:std_type_info.obj
 0001:000563f2       ___std_type_info_name      100573f2 f   libvcruntime:std_type_info.obj
 0001:000564e8       ___vcrt_initialize         100574e8 f   libvcruntime:initialization.obj
 0001:0005650e       ___vcrt_thread_attach      1005750e f   libvcruntime:initialization.obj
 0001:0005651b       ___vcrt_thread_detach      1005751b f   libvcruntime:initialization.obj
 0001:00056528       ___vcrt_uninitialize       10057528 f   libvcruntime:initialization.obj
 0001:00056544       ___vcrt_uninitialize_critical 10057544 f   libvcruntime:initialization.obj
 0001:00056551       ___uncaught_exception      10057551 f   libvcruntime:uncaught_exception.obj
 0001:0005669b       _memcmp                    1005769b f   libvcruntime:memcmp.obj
 0001:00058b3f       ??$?RU__vcrt_ptd@@@__crt_internal_free_policy@@QBEXQBU__vcrt_ptd@@@Z 10059b3f f i libvcruntime:per_thread_data.obj
 0001:00058b53       ??0?$__crt_unique_heap_ptr@U__vcrt_ptd@@U__crt_internal_free_policy@@@@QAE@QAU__vcrt_ptd@@@Z 10059b53 f i libvcruntime:per_thread_data.obj
 0001:00058b76       ??1?$__crt_unique_heap_ptr@U__vcrt_ptd@@U__crt_internal_free_policy@@@@QAE@XZ 10059b76 f i libvcruntime:per_thread_data.obj
 0001:00058b95       ??B?$__crt_unique_heap_ptr@U__vcrt_ptd@@U__crt_internal_free_policy@@@@QBE_NXZ 10059b95 f i libvcruntime:per_thread_data.obj
 0001:00058b9c       ?detach@?$__crt_unique_heap_ptr@U__vcrt_ptd@@U__crt_internal_free_policy@@@@QAEPAU__vcrt_ptd@@XZ 10059b9c f i libvcruntime:per_thread_data.obj
 0001:00058ba2       ?get@?$__crt_unique_heap_ptr@U__vcrt_ptd@@U__crt_internal_free_policy@@@@QBEPAU__vcrt_ptd@@XZ 10059ba2 f i libvcruntime:per_thread_data.obj
 0001:00058ba5       ?is_valid@?$__crt_unique_heap_ptr@U__vcrt_ptd@@U__crt_internal_free_policy@@@@QBE_NXZ 10059ba5 f i libvcruntime:per_thread_data.obj
 0001:00058bac       ?release@?$__crt_unique_heap_ptr@U__vcrt_ptd@@U__crt_internal_free_policy@@@@QAEXXZ 10059bac f i libvcruntime:per_thread_data.obj
 0001:00058be0       ___vcrt_freefls@4          10059be0 f   libvcruntime:per_thread_data.obj
 0001:00058c03       ___vcrt_freeptd            10059c03 f   libvcruntime:per_thread_data.obj
 0001:00058c46       ___vcrt_getptd             10059c46 f   libvcruntime:per_thread_data.obj
 0001:00058c57       ___vcrt_getptd_noexit      10059c57 f   libvcruntime:per_thread_data.obj
 0001:00058d0d       ___vcrt_getptd_noinit      10059d0d f   libvcruntime:per_thread_data.obj
 0001:00058d51       ___vcrt_initialize_ptd     10059d51 f   libvcruntime:per_thread_data.obj
 0001:00058d90       ___vcrt_uninitialize_ptd   10059d90 f   libvcruntime:per_thread_data.obj
 0001:000596c3       ??$TypeMatchHelper@V__FrameHandler3@@@@YAHPBU_s_HandlerType@@PBU_s_CatchableType@@PBU_s_ThrowInfo@@@Z 1005a6c3 f i libvcruntime:frame.obj
 0001:00059774       ??$__InternalCxxFrameHandler@V__FrameHandler3@@@@YA?AW4_EXCEPTION_DISPOSITION@@PAUEHExceptionRecord@@PAUEHRegistrationNode@@PAU_CONTEXT@@PAXPBU_s_FuncInfo@@H1E@Z 1005a774 f i libvcruntime:frame.obj
 0001:000598b6       ??0HandlerMap@__FrameHandler3@@QAE@PBU_s_TryBlockMapEntry@@II@Z 1005a8b6 f i libvcruntime:frame.obj
 0001:000598d2       ??0TryBlockMap@__FrameHandler3@@QAE@PBU_s_FuncInfo@@I@Z 1005a8d2 f i libvcruntime:frame.obj
 0001:000598eb       ??0bad_exception@std@@QAE@ABV01@@Z 1005a8eb f i libvcruntime:frame.obj
 0001:0005990c       ??0bad_exception@std@@QAE@XZ 1005a90c f i libvcruntime:frame.obj
 0001:0005992a       ??0iterator@HandlerMap@__FrameHandler3@@QAE@AAV12@I@Z 1005a92a f i libvcruntime:frame.obj
 0001:00059943       ??1bad_exception@std@@UAE@XZ 1005a943 f i libvcruntime:frame.obj
 0001:00059958       ??8iterator@HandlerMap@__FrameHandler3@@QBE_NABV012@@Z 1005a958 f i libvcruntime:frame.obj
 0001:0005996f       ??8type_info@@QBE_NABV0@@Z 1005a96f f i libvcruntime:frame.obj
 0001:00059995       ??9iterator@HandlerMap@__FrameHandler3@@QBE_NABV012@@Z 1005a995 f i libvcruntime:frame.obj
 0001:000599ac       ??Diterator@HandlerMap@__FrameHandler3@@QAE?BU_s_HandlerType@@XZ 1005a9ac f i libvcruntime:frame.obj
 0001:000599d2       ??Diterator@TryBlockMap@__FrameHandler3@@QAE?BU_s_TryBlockMapEntry@@XZ 1005a9d2 f i libvcruntime:frame.obj
 0001:000599fc       ??Eiterator@HandlerMap@__FrameHandler3@@QAEAAV012@XZ 1005a9fc f i libvcruntime:frame.obj
 0001:00059a02       ??Eiterator@TryBlockMap@__FrameHandler3@@QAEAAV012@XZ 1005aa02 f i libvcruntime:frame.obj
 0001:00059a08       ??Miterator@TryBlockMap@__FrameHandler3@@QBE_NABV012@@Z 1005aa08 f i libvcruntime:frame.obj
 0001:00059a1f       ??_Ebad_exception@std@@UAEPAXI@Z 1005aa1f f i libvcruntime:frame.obj
 0001:00059a1f       ??_Gbad_exception@std@@UAEPAXI@Z 1005aa1f f i libvcruntime:frame.obj
 0001:00059a57       ?BuildCatchObject@__FrameHandler3@@SAXPAUEHExceptionRecord@@PAXPBU_s_HandlerType@@PBU_s_CatchableType@@@Z 1005aa57 f   libvcruntime:frame.obj
 0001:00059a5c       ?BuildCatchObjectHelper@__FrameHandler3@@SAHPAUEHExceptionRecord@@PAXPBU_s_HandlerType@@PBU_s_CatchableType@@@Z 1005aa5c f   libvcruntime:frame.obj
 0001:00059d46       ?FrameUnwindToEmptyState@__FrameHandler3@@SAXPAUEHRegistrationNode@@PAXPBU_s_FuncInfo@@@Z 1005ad46 f   libvcruntime:frame.obj
 0001:00059d64       ?FrameUnwindToState@__FrameHandler3@@SAXPAUEHRegistrationNode@@PAXPBU_s_FuncInfo@@H@Z 1005ad64 f   libvcruntime:frame.obj
 0001:00059e86       ?GetMaxState@__FrameHandler3@@SAHPAXPBU_s_FuncInfo@@@Z 1005ae86 f i libvcruntime:frame.obj
 0001:00059f9a       ?TypeMatch@__FrameHandler3@@SAHPBU_s_HandlerType@@PBU_s_CatchableType@@PBU_s_ThrowInfo@@@Z 1005af9a f   libvcruntime:frame.obj
 0001:00059fa5       ?_CallMemberFunction1@@YGXQAX00@Z 1005afa5 f i libvcruntime:frame.obj
 0001:00059fb9       ?_CallMemberFunction2@@YGXQAX00H@Z 1005afb9 f i libvcruntime:frame.obj
 0001:00059fd0       ?begin@HandlerMap@__FrameHandler3@@QAE?AViterator@12@XZ 1005afd0 f i libvcruntime:frame.obj
 0001:00059fe4       ?end@HandlerMap@__FrameHandler3@@QAE?AViterator@12@XZ 1005afe4 f i libvcruntime:frame.obj
 0001:00059ff9       ?getESTypes@__FrameHandler3@@SAPBU_s_ESTypeList@@PBU_s_FuncInfo@@@Z 1005aff9 f i libvcruntime:frame.obj
 0001:0005a006       ?getLastEntry@HandlerMap@__FrameHandler3@@QAEPBU_s_HandlerType@@XZ 1005b006 f i libvcruntime:frame.obj
 0001:0005a017       ?getMagicNum@__FrameHandler3@@SAIPBU_s_FuncInfo@@@Z 1005b017 f i libvcruntime:frame.obj
 0001:0005a029       ?getNumTryBlocks@TryBlockMap@__FrameHandler3@@QAEIXZ 1005b029 f i libvcruntime:frame.obj
 0001:0005a02f       ?isEHs@__FrameHandler3@@SA_NPBU_s_FuncInfo@@@Z 1005b02f f i libvcruntime:frame.obj
 0001:0005a03f       ?isNoExcept@__FrameHandler3@@SA_NPBU_s_FuncInfo@@@Z 1005b03f f i libvcruntime:frame.obj
 0001:0005a053       ___BuildCatchObject        1005b053 f   libvcruntime:frame.obj
 0001:0005a058       ___BuildCatchObjectHelper  1005b058 f   libvcruntime:frame.obj
 0001:0005a063       ___TypeMatch               1005b063 f   libvcruntime:frame.obj
 0001:0005a06e       ___vcrt_EncodePointer      1005b06e f i libvcruntime:frame.obj
 0001:0005a080       __CallSettingFrame@12      1005b080 f   libvcruntime:lowhelpr.obj
 0001:0005a0a7       __NLG_Return               1005b0a7     libvcruntime:lowhelpr.obj
 0001:0005a0ec       ___except_validate_context_record 1005b0ec f   libvcruntime:jbcxrval.obj
 0001:0005a128       ___except_validate_jump_buffer 1005b128 f   libvcruntime:jbcxrval.obj
 0001:0005a160       ___except_validate_jump_buffer_common 1005b160 f i libvcruntime:jbcxrval.obj
 0001:0005a1b0       __local_unwind4            1005b1b0 f   libvcruntime:exsup4.obj
 0001:0005a284       __seh_longjmp_unwind4@4    1005b284 f   libvcruntime:exsup4.obj
 0001:0005a2ac       @_EH4_CallFilterFunc@8     1005b2ac f   libvcruntime:exsup4.obj
 0001:0005a2c4       @_EH4_TransferToHandler@8  1005b2c4 f   libvcruntime:exsup4.obj
 0001:0005a2e0       @_EH4_GlobalUnwind2@8      1005b2e0 f   libvcruntime:exsup4.obj
 0001:0005a2fc       @_EH4_LocalUnwind@16       1005b2fc f   libvcruntime:exsup4.obj
 0001:0005a36b       ??$?0$00@DName@@QAE@PBDU?$StringLifeSelector@$00@@@Z 1005b36b f i libvcruntime:undname.obj
 0001:0005a3aa       ??$?0$00@pcharNode@@QAE@PBDHU?$StringLifeSelector@$00@@@Z 1005b3aa f i libvcruntime:undname.obj
 0001:0005a3cb       ??$?0$01@DName@@QAE@PBDU?$StringLifeSelector@$01@@@Z 1005b3cb f i libvcruntime:undname.obj
 0001:0005a40a       ??$?0$01@pcharNode@@QAE@PBDHU?$StringLifeSelector@$01@@@Z 1005b40a f i libvcruntime:undname.obj
 0001:0005a45a       ??$?0$0A@@DName@@QAE@PBDU?$StringLifeSelector@$0A@@@@Z 1005b45a f i libvcruntime:undname.obj
 0001:0005a499       ??$?0$0A@@pcharNode@@QAE@PBDHU?$StringLifeSelector@$0A@@@@Z 1005b499 f i libvcruntime:undname.obj
 0001:0005a4e9       ??$?0_K$0A@@?$optional@_K@std@@QAE@$$QA_K@Z 1005b4e9 f i libvcruntime:undname.obj
 0001:0005a509       ??$?0_K@?$_Optional_construct_base@_K@std@@QAE@Uin_place_t@1@$$QA_K@Z 1005b509 f i libvcruntime:undname.obj
 0001:0005a529       ??$?0_K@?$_Optional_destruct_base@_K$00@std@@QAE@Uin_place_t@1@$$QA_K@Z 1005b529 f i libvcruntime:undname.obj
 0001:0005a549       ??$append@VDNameNode@@@DName@@AAEXPBVDNameNode@@@Z 1005b549 f i libvcruntime:undname.obj
 0001:0005a59a       ??$append@VDNameStatusNode@@@DName@@AAEXPBVDNameStatusNode@@@Z 1005b59a f i libvcruntime:undname.obj
 0001:0005a5eb       ??$append@VcharNode@@@DName@@AAEXPBVcharNode@@@Z 1005b5eb f i libvcruntime:undname.obj
 0001:0005a63c       ??$append@VpDNameNode@@@DName@@AAEXPBVpDNameNode@@@Z 1005b63c f i libvcruntime:undname.obj
 0001:0005a68d       ??$append@VpcharNode@@@DName@@AAEXPBVpcharNode@@@Z 1005b68d f i libvcruntime:undname.obj
 0001:0005a6de       ??$doPchar@$00@DName@@AAEXPBDH@Z 1005b6de f i libvcruntime:undname.obj
 0001:0005a763       ??$doPchar@$01@DName@@AAEXPBDH@Z 1005b763 f i libvcruntime:undname.obj
 0001:0005a7f0       ??$doPchar@$0A@@DName@@AAEXPBDH@Z 1005b7f0 f i libvcruntime:undname.obj
 0001:0005a87d       ??$forward@_K@std@@YA$$QA_KAA_K@Z 1005b87d f i libvcruntime:undname.obj
 0001:0005a887       ??$size@D$04@std@@YAIAAY04$$CBD@Z 1005b887 f i libvcruntime:undname.obj
 0001:0005a88b       ??$size@D$0EB@@std@@YAIAAY0EB@$$CBD@Z 1005b88b f i libvcruntime:undname.obj
 0001:0005a88f       ??0?$_Optional_construct_base@_K@std@@QAE@XZ 1005b88f f i libvcruntime:undname.obj
 0001:0005a89b       ??0?$_Optional_destruct_base@_K$00@std@@QAE@XZ 1005b89b f i libvcruntime:undname.obj
 0001:0005a8a7       ??0?$optional@_K@std@@QAE@XZ 1005b8a7 f i libvcruntime:undname.obj
 0001:0005a8b7       ??0Block@_HeapManager@@QAE@XZ 1005b8b7 f i libvcruntime:undname.obj
 0001:0005a8bd       ??0DName@@QAE@AAPBDD@Z     1005b8bd f   libvcruntime:undname.obj
 0001:0005a95d       ??0DName@@QAE@ABUStringLiteral@@@Z 1005b95d f   libvcruntime:undname.obj
 0001:0005a98d       ??0DName@@QAE@ABV0@@Z      1005b98d f i libvcruntime:undname.obj
 0001:0005a9a8       ??0DName@@QAE@D@Z          1005b9a8 f   libvcruntime:undname.obj
 0001:0005a9cb       ??0DName@@QAE@PAV0@@Z      1005b9cb f   libvcruntime:undname.obj
 0001:0005aa23       ??0DName@@QAE@W4DNameStatus@@@Z 1005ba23 f   libvcruntime:undname.obj
 0001:0005aa73       ??0DName@@QAE@XZ           1005ba73 f i libvcruntime:undname.obj
 0001:0005aa7f       ??0DName@@QAE@_J@Z         1005ba7f f   libvcruntime:undname.obj
 0001:0005ab2e       ??0DName@@QAE@_K@Z         1005bb2e f   libvcruntime:undname.obj
 0001:0005abad       ??0DNameNode@@IAE@XZ       1005bbad f i libvcruntime:undname.obj
 0001:0005abb8       ??0Replicator@@QAE@XZ      1005bbb8 f i libvcruntime:undname.obj
 0001:0005abc9       ??0UnDecorator@@QAE@PBDP6APADJ@ZK@Z 1005bbc9 f i libvcruntime:undname.obj
 0001:0005ac28       ??0charNode@@QAE@D@Z       1005bc28 f i libvcruntime:undname.obj
 0001:0005ac42       ??0pDNameNode@@QAE@PAVDName@@@Z 1005bc42 f   libvcruntime:undname.obj
 0001:0005ac74       ??0pairNode@@QAE@PBVDNameNode@@0@Z 1005bc74 f i libvcruntime:undname.obj
 0001:0005aca1       ??2@YAPAXIAAV_HeapManager@@H@Z 1005bca1 f   libvcruntime:undname.obj
 0001:0005acc7       ??4DName@@QAEAAV0@ABUStringLiteral@@@Z 1005bcc7 f   libvcruntime:undname.obj
 0001:0005acf0       ??4DName@@QAEAAV0@ABV0@@Z  1005bcf0 f   libvcruntime:undname.obj
 0001:0005ad0b       ??4DName@@QAEAAV0@D@Z      1005bd0b f i libvcruntime:undname.obj
 0001:0005ad2e       ??4DName@@QAEAAV0@PAV0@@Z  1005bd2e f   libvcruntime:undname.obj
 0001:0005ad81       ??4DName@@QAEAAV0@W4DNameStatus@@@Z 1005bd81 f   libvcruntime:undname.obj
 0001:0005adbf       ??AReplicator@@QBE?AVDName@@H@Z 1005bdbf f   libvcruntime:undname.obj
 0001:0005ae16       ??B?$optional@_K@std@@QBE_NXZ 1005be16 f i libvcruntime:undname.obj
 0001:0005ae1a       ??D?$optional@_K@std@@QGAEAA_KXZ 1005be1a f i libvcruntime:undname.obj
 0001:0005ae1d       ??H@YA?AVDName@@ABUStringLiteral@@ABV0@@Z 1005be1d f i libvcruntime:undname.obj
 0001:0005ae47       ??H@YA?AVDName@@DABV0@@Z   1005be47 f i libvcruntime:undname.obj
 0001:0005ae7c       ??H@YA?AVDName@@W4DNameStatus@@ABV0@@Z 1005be7c f i libvcruntime:undname.obj
 0001:0005aea6       ??HDName@@QBE?AV0@ABUStringLiteral@@@Z 1005bea6 f   libvcruntime:undname.obj
 0001:0005aed0       ??HDName@@QBE?AV0@ABV0@@Z  1005bed0 f   libvcruntime:undname.obj
 0001:0005aefa       ??HDName@@QBE?AV0@D@Z      1005befa f   libvcruntime:undname.obj
 0001:0005af24       ??HDName@@QBE?AV0@PAV0@@Z  1005bf24 f   libvcruntime:undname.obj
 0001:0005af4e       ??HDName@@QBE?AV0@W4DNameStatus@@@Z 1005bf4e f   libvcruntime:undname.obj
 0001:0005af78       ??HStringLiteral@@QBE?AU0@H@Z 1005bf78 f i libvcruntime:undname.obj
 0001:0005af98       ??YDName@@QAEAAV0@ABUStringLiteral@@@Z 1005bf98 f   libvcruntime:undname.obj
 0001:0005b006       ??YDName@@QAEAAV0@ABV0@@Z  1005c006 f   libvcruntime:undname.obj
 0001:0005b072       ??YDName@@QAEAAV0@D@Z      1005c072 f   libvcruntime:undname.obj
 0001:0005b0dc       ??YDName@@QAEAAV0@PAV0@@Z  1005c0dc f   libvcruntime:undname.obj
 0001:0005b159       ??YDName@@QAEAAV0@W4DNameStatus@@@Z 1005c159 f   libvcruntime:undname.obj
 0001:0005b1a9       ??YReplicator@@QAEAAV0@ABVDName@@@Z 1005c1a9 f   libvcruntime:undname.obj
 0001:0005b1f6       ??_5DName@@QAEAAV0@ABV0@@Z 1005c1f6 f   libvcruntime:undname.obj
 0001:0005b219       ??__K_l@@YA?AUStringLiteral@@PBDI@Z 1005c219 f i libvcruntime:undname.obj
 0001:0005b226       ?Constructor@_HeapManager@@QAEXP6APAXI@ZP6AXPAX@Z@Z 1005c226 f i libvcruntime:undname.obj
 0001:0005b24a       ?Destructor@_HeapManager@@QAEXXZ 1005c24a f i libvcruntime:undname.obj
 0001:0005b2a2       ?UScore@UnDecorator@@SA?AUStringLiteral@@W4Tokens@@@Z 1005c2a2 f   libvcruntime:undname.obj
 0001:0005b2d2       ?composeDeclaration@UnDecorator@@CA?AVDName@@ABV2@@Z 1005c2d2 f i libvcruntime:undname.obj
 0001:0005c351       ?doAccessSpecifiers@UnDecorator@@SAHXZ 1005d351 f i libvcruntime:undname.obj
 0001:0005c362       ?doAllocationLanguage@UnDecorator@@SAHXZ 1005d362 f i libvcruntime:undname.obj
 0001:0005c373       ?doAllocationModel@UnDecorator@@SAHXZ 1005d373 f i libvcruntime:undname.obj
 0001:0005c384       ?doEcsu@UnDecorator@@SAHXZ 1005d384 f i libvcruntime:undname.obj
 0001:0005c395       ?doEllipsis@UnDecorator@@SAHXZ 1005d395 f i libvcruntime:undname.obj
 0001:0005c3a6       ?doFunctionReturns@UnDecorator@@SAHXZ 1005d3a6 f i libvcruntime:undname.obj
 0001:0005c3b7       ?doMSKeywords@UnDecorator@@SAHXZ 1005d3b7 f i libvcruntime:undname.obj
 0001:0005c3c7       ?doMemberTypes@UnDecorator@@SAHXZ 1005d3c7 f i libvcruntime:undname.obj
 0001:0005c3d8       ?doNameOnly@UnDecorator@@SAHXZ 1005d3d8 f i libvcruntime:undname.obj
 0001:0005c3e5       ?doNoIdentCharCheck@UnDecorator@@SAHXZ 1005d3e5 f i libvcruntime:undname.obj
 0001:0005c3f2       ?doPchar@DName@@AAEXD@Z    1005d3f2 f   libvcruntime:undname.obj
 0001:0005c438       ?doPtr64@UnDecorator@@SAHXZ 1005d438 f i libvcruntime:undname.obj
 0001:0005c449       ?doRestrictionSpec@UnDecorator@@SAHXZ 1005d449 f i libvcruntime:undname.obj
 0001:0005c45a       ?doThisTypes@UnDecorator@@SAHXZ 1005d45a f i libvcruntime:undname.obj
 0001:0005c470       ?doThrowTypes@UnDecorator@@SAHXZ 1005d470 f i libvcruntime:undname.obj
 0001:0005c481       ?doTypeOnly@UnDecorator@@SAHXZ 1005d481 f i libvcruntime:undname.obj
 0001:0005c48e       ?doUnderScore@UnDecorator@@SAHXZ 1005d48e f i libvcruntime:undname.obj
 0001:0005c49b       ?getArgumentList@UnDecorator@@CA?AVDName@@XZ 1005d49b f   libvcruntime:undname.obj
 0001:0005c5eb       ?getArgumentTypes@UnDecorator@@CA?AVDName@@XZ 1005d5eb f   libvcruntime:undname.obj
 0001:0005c74a       ?getArrayObject@UnDecorator@@CA?AVDName@@XZ 1005d74a f   libvcruntime:undname.obj
 0001:0005c814       ?getArrayType@UnDecorator@@CA?AVDName@@ABV2@@Z 1005d814 f i libvcruntime:undname.obj
 0001:0005ca18       ?getBasedType@UnDecorator@@CA?AVDName@@XZ 1005da18 f   libvcruntime:undname.obj
 0001:0005cb01       ?getBasicDataType@UnDecorator@@CA?AVDName@@ABV2@@Z 1005db01 f   libvcruntime:undname.obj
 0001:0005d130       ?getCHPEName@UnDecorator@@QAEPADPADH@Z 1005e130 f i libvcruntime:undname.obj
 0001:0005d244       ?getCallIndex@UnDecorator@@CA?AVDName@@XZ 1005e244 f i libvcruntime:undname.obj
 0001:0005d25d       ?getCallingConvention@UnDecorator@@CA?AVDName@@XZ 1005e25d f   libvcruntime:undname.obj
 0001:0005d371       ?getDataIndirectType@UnDecorator@@CA?AVDName@@ABV2@W4IndirectionKind@@0H@Z 1005e371 f   libvcruntime:undname.obj
 0001:0005dbac       ?getDataIndirectType@UnDecorator@@CA?AVDName@@XZ 1005ebac f i libvcruntime:undname.obj
 0001:0005dbe5       ?getDataType@UnDecorator@@CA?AVDName@@PAV2@@Z 1005ebe5 f   libvcruntime:undname.obj
 0001:0005dcf1       ?getDecoratedName@UnDecorator@@CA?AVDName@@XZ 1005ecf1 f   libvcruntime:undname.obj
 0001:0005dff5       ?getDimension@UnDecorator@@CA?AVDName@@_N@Z 1005eff5 f   libvcruntime:undname.obj
 0001:0005e151       ?getDispatchTarget@UnDecorator@@CA?AVDName@@XZ 1005f151 f   libvcruntime:undname.obj
 0001:0005e1ba       ?getDisplacement@UnDecorator@@CA?AVDName@@XZ 1005f1ba f i libvcruntime:undname.obj
 0001:0005e1d3       ?getECSUDataType@UnDecorator@@CA?AVDName@@XZ 1005f1d3 f   libvcruntime:undname.obj
 0001:0005e3c7       ?getECSUName@UnDecorator@@CA?AVDName@@XZ 1005f3c7 f i libvcruntime:undname.obj
 0001:0005e3dc       ?getEnumType@UnDecorator@@CA?AVDName@@XZ 1005f3dc f i libvcruntime:undname.obj
 0001:0005e544       ?getExtendedDataIndirectType@UnDecorator@@CA?AVDName@@AAW4IndirectionKind@@AA_NH@Z 1005f544 f   libvcruntime:undname.obj
 0001:0005e763       ?getExternalDataType@UnDecorator@@CA?AVDName@@ABV2@@Z 1005f763 f i libvcruntime:undname.obj
 0001:0005e7e1       ?getFloatingPoint@UnDecorator@@CA?AVDName@@H@Z 1005f7e1 f   libvcruntime:undname.obj
 0001:0005e908       ?getFunctionIndirectType@UnDecorator@@CA?AVDName@@ABV2@@Z 1005f908 f   libvcruntime:undname.obj
 0001:0005edaf       ?getGuardNumber@UnDecorator@@CA?AVDName@@XZ 1005fdaf f i libvcruntime:undname.obj
 0001:0005edc8       ?getLastChar@DName@@QBEDXZ 1005fdc8 f i libvcruntime:undname.obj
 0001:0005edf0       ?getLastChar@DNameStatusNode@@UBEDXZ 1005fdf0 f i libvcruntime:undname.obj
 0001:0005edff       ?getLastChar@charNode@@UBEDXZ 1005fdff f i libvcruntime:undname.obj
 0001:0005ee03       ?getLastChar@pDNameNode@@UBEDXZ 1005fe03 f i libvcruntime:undname.obj
 0001:0005ee14       ?getLastChar@pairNode@@UBEDXZ 1005fe14 f i libvcruntime:undname.obj
 0001:0005ee56       ?getLastChar@pcharNode@@UBEDXZ 1005fe56 f i libvcruntime:undname.obj
 0001:0005ee6c       ?getLexicalFrame@UnDecorator@@CA?AVDName@@XZ 1005fe6c f i libvcruntime:undname.obj
 0001:0005eea9       ?getMemoryWithBuffer@_HeapManager@@QAEPAXI@Z 1005fea9 f   libvcruntime:undname.obj
 0001:0005ef2d       ?getMemoryWithoutBuffer@_HeapManager@@QAEPAXI@Z 1005ff2d f   libvcruntime:undname.obj
 0001:0005ef55       ?getNoexcept@UnDecorator@@CA?AVDName@@XZ 1005ff55 f   libvcruntime:undname.obj
 0001:0005efbe       ?getNumberOfDimensions@UnDecorator@@CAHXZ 1005ffbe f   libvcruntime:undname.obj
 0001:0005f037       ?getOperatorName@UnDecorator@@CA?AVDName@@_NPA_N@Z 10060037 f i libvcruntime:undname.obj
 0001:0005f886       ?getPointerType@UnDecorator@@CA?AVDName@@ABV2@0@Z 10060886 f i libvcruntime:undname.obj
 0001:0005f8a7       ?getPointerTypeArray@UnDecorator@@CA?AVDName@@ABV2@0@Z 100608a7 f i libvcruntime:undname.obj
 0001:0005f8c8       ?getPrimaryDataType@UnDecorator@@CA?AVDName@@ABV2@@Z 100608c8 f   libvcruntime:undname.obj
 0001:0005fb6e       ?getPtrRefDataType@UnDecorator@@CA?AVDName@@ABV2@H@Z 10060b6e f   libvcruntime:undname.obj
 0001:0005fd36       ?getPtrRefType@UnDecorator@@CA?AVDName@@ABV2@0W4IndirectionKind@@@Z 10060d36 f   libvcruntime:undname.obj
 0001:0005fe8b       ?getReferenceType@UnDecorator@@CA?AVDName@@ABV2@0W4IndirectionKind@@@Z 10060e8b f i libvcruntime:undname.obj
 0001:0005feae       ?getRestrictionSpec@UnDecorator@@CA?AVDName@@XZ 10060eae f   libvcruntime:undname.obj
 0001:00060021       ?getReturnType@UnDecorator@@CA?AVDName@@PAV2@@Z 10061021 f   libvcruntime:undname.obj
 0001:0006005b       ?getScope@UnDecorator@@CA?AVDName@@XZ 1006105b f   libvcruntime:undname.obj
 0001:000604f9       ?getScopedName@UnDecorator@@CA?AVDName@@XZ 100614f9 f   libvcruntime:undname.obj
 0001:0006061e       ?getSignedDimension@UnDecorator@@CA?AVDName@@XZ 1006161e f   libvcruntime:undname.obj
 0001:00060683       ?getStorageConvention@UnDecorator@@CA?AVDName@@XZ 10061683 f i libvcruntime:undname.obj
 0001:00060698       ?getString@DName@@QBEPADPAD0@Z 10061698 f i libvcruntime:undname.obj
 0001:000606d0       ?getString@DName@@QBEPADPADH@Z 100616d0 f i libvcruntime:undname.obj
 0001:0006073a       ?getString@DNameStatusNode@@UBEPADPAD0@Z 1006173a f i libvcruntime:undname.obj
 0001:00060791       ?getString@charNode@@UBEPADPAD0@Z 10061791 f i libvcruntime:undname.obj
 0001:000607ab       ?getString@pDNameNode@@UBEPADPAD0@Z 100617ab f i libvcruntime:undname.obj
 0001:000607c7       ?getString@pairNode@@UBEPADPAD0@Z 100617c7 f i libvcruntime:undname.obj
 0001:0006081e       ?getString@pcharNode@@UBEPADPAD0@Z 1006181e f i libvcruntime:undname.obj
 0001:0006083f       ?getStringEncoding@UnDecorator@@CA?AVDName@@W4PrefixKind@@H@Z 1006183f f   libvcruntime:undname.obj
 0001:00060925       ?getStringHelper@@YAPADPADPBD1H@Z 10061925 f i libvcruntime:undname.obj
 0001:00060959       ?getStringObject@UnDecorator@@CA?AVDName@@XZ 10061959 f   libvcruntime:undname.obj
 0001:000609c5       ?getSymbolName@UnDecorator@@CA?AVDName@@XZ 100619c5 f i libvcruntime:undname.obj
 0001:00060a1f       ?getTemplateArgumentList@UnDecorator@@CA?AVDName@@XZ 10061a1f f   libvcruntime:undname.obj
 0001:00060c4a       ?getTemplateName@UnDecorator@@CA?AVDName@@_N@Z 10061c4a f   libvcruntime:undname.obj
 0001:00060e03       ?getTemplateNonTypeArgument@UnDecorator@@CA?AVDName@@XZ 10061e03 f   libvcruntime:undname.obj
 0001:000611ca       ?getTemplateTypeArgument@UnDecorator@@CA?AVDName@@XZ 100621ca f   libvcruntime:undname.obj
 0001:00061311       ?getThisType@UnDecorator@@CA?AVDName@@XZ 10062311 f i libvcruntime:undname.obj
 0001:0006134b       ?getThrowTypes@UnDecorator@@CA?AVDName@@XZ 1006234b f   libvcruntime:undname.obj
 0001:00061376       ?getTypeEncoding@UnDecorator@@CAHXZ 10062376 f i libvcruntime:undname.obj
 0001:00061772       ?getUndecoratedName@UnDecorator@@QAEPADPADH@Z 10062772 f i libvcruntime:undname.obj
 0001:000618d8       ?getVCallThunkType@UnDecorator@@CA?AVDName@@XZ 100628d8 f i libvcruntime:undname.obj
 0001:00061943       ?getValue@UnDecorator@@CA?AV?$optional@_K@std@@XZ 10062943 f   libvcruntime:undname.obj
 0001:000619d5       ?getValueObject@UnDecorator@@CA?AVDName@@XZ 100629d5 f   libvcruntime:undname.obj
 0001:00061b04       ?getVbTableType@UnDecorator@@CA?AVDName@@ABV2@@Z 10062b04 f i libvcruntime:undname.obj
 0001:00061b1e       ?getVdispMapType@UnDecorator@@CA?AVDName@@ABV2@@Z 10062b1e f i libvcruntime:undname.obj
 0001:00061b97       ?getVfTableType@UnDecorator@@CA?AVDName@@ABV2@@Z 10062b97 f i libvcruntime:undname.obj
 0001:00061d42       ?getZName@UnDecorator@@CA?AVDName@@_N0@Z 10062d42 f   libvcruntime:undname.obj
 0001:00061fdc       ?haveTemplateParameters@UnDecorator@@SAHXZ 10062fdc f i libvcruntime:undname.obj
 0001:00061fe9       ?isArray@DName@@QBEHXZ     10062fe9 f i libvcruntime:undname.obj
 0001:00061ff5       ?isComArray@DName@@QBEHXZ  10062ff5 f i libvcruntime:undname.obj
 0001:00062001       ?isEmpty@DName@@QBEHXZ     10063001 f i libvcruntime:undname.obj
 0001:0006200b       ?isFull@Replicator@@QBEHXZ 1006300b f i libvcruntime:undname.obj
 0001:00062016       ?isNoTE@DName@@QBEHXZ      10063016 f i libvcruntime:undname.obj
 0001:00062022       ?isPinPtr@DName@@QBEHXZ    10063022 f i libvcruntime:undname.obj
 0001:0006202e       ?isPtrRef@DName@@QBEHXZ    1006302e f i libvcruntime:undname.obj
 0001:0006203a       ?isUDC@DName@@QBEHXZ       1006303a f i libvcruntime:undname.obj
 0001:0006204f       ?isUDTThunk@DName@@QBEHXZ  1006304f f i libvcruntime:undname.obj
 0001:00062064       ?isVCallThunk@DName@@QBEHXZ 10063064 f i libvcruntime:undname.obj
 0001:00062070       ?isValid@DName@@QBEHXZ     10063070 f i libvcruntime:undname.obj
 0001:0006207c       ?length@DName@@QBEHXZ      1006307c f i libvcruntime:undname.obj
 0001:000620a2       ?length@DNameStatusNode@@UBEHXZ 100630a2 f i libvcruntime:undname.obj
 0001:000620a6       ?length@charNode@@UBEHXZ   100630a6 f i libvcruntime:undname.obj
 0001:000620aa       ?length@pDNameNode@@UBEHXZ 100630aa f i libvcruntime:undname.obj
 0001:000620bb       ?length@pairNode@@UBEHXZ   100630bb f i libvcruntime:undname.obj
 0001:00062116       ?length@pcharNode@@UBEHXZ  10063116 f i libvcruntime:undname.obj
 0001:0006211a       ?make@DNameStatusNode@@SAPBV1@W4DNameStatus@@@Z 1006311a f i libvcruntime:undname.obj
 0001:0006213d       ?parseDecoratedName@UnDecorator@@CA?AVDName@@XZ 1006313d f   libvcruntime:undname.obj
 0001:00062275       ?raw_length@DNameStatusNode@@UBEHXZ 10063275 f i libvcruntime:undname.obj
 0001:00062279       ?raw_length@charNode@@UBEHXZ 10063279 f i libvcruntime:undname.obj
 0001:0006227d       ?raw_length@pDNameNode@@UBEHXZ 1006327d f i libvcruntime:undname.obj
 0001:00062281       ?raw_length@pairNode@@UBEHXZ 10063281 f i libvcruntime:undname.obj
 0001:00062285       ?raw_length@pcharNode@@UBEHXZ 10063285 f i libvcruntime:undname.obj
 0001:00062289       ?setIsArray@DName@@QAEXXZ  10063289 f i libvcruntime:undname.obj
 0001:00062293       ?setIsComArray@DName@@QAEXXZ 10063293 f i libvcruntime:undname.obj
 0001:0006229d       ?setIsNoTE@DName@@QAEXXZ   1006329d f i libvcruntime:undname.obj
 0001:000622a7       ?setIsPinPtr@DName@@QAEXXZ 100632a7 f i libvcruntime:undname.obj
 0001:000622b1       ?setIsUDC@DName@@QAEXXZ    100632b1 f i libvcruntime:undname.obj
 0001:000622c1       ?setIsVCallThunk@DName@@QAEXXZ 100632c1 f i libvcruntime:undname.obj
 0001:000622cb       ?setPtrRef@DName@@QAEAAV1@XZ 100632cb f i libvcruntime:undname.obj
 0001:000622d7       ?status@DName@@QBE?AW4DNameStatus@@XZ 100632d7 f i libvcruntime:undname.obj
 0001:0006235c       ___unDName                 1006335c f   libvcruntime:undname.obj
 0001:00062387       ___unDNameEx               10063387 f   libvcruntime:undname.obj
 0001:0006244d       _unDNameGenerateCHPE       1006344d f   libvcruntime:undname.obj
 0001:00062511       ___vcrt_initialize_locks   10063511 f   libvcruntime:locks.obj
 0001:0006255c       ___vcrt_lock               1006355c f   libvcruntime:locks.obj
 0001:00062576       ___vcrt_uninitialize_locks 10063576 f   libvcruntime:locks.obj
 0001:000625b0       ___vcrt_unlock             100635b0 f   libvcruntime:locks.obj
 0001:000625ca       ??$__crt_interlocked_exchange_pointer@UHINSTANCE__@@PAU1@@@YAPAUHINSTANCE__@@PDSAU0@QAU0@@Z 100635ca f i libvcruntime:winapi_downlevel.obj
 0001:000625da       ??$__crt_interlocked_exchange_pointer@UHINSTANCE__@@PAX@@YAPAUHINSTANCE__@@PDSAU0@QAX@Z 100635da f i libvcruntime:winapi_downlevel.obj
 0001:000625ea       ??$__crt_interlocked_exchange_pointer@XPAX@@YAPAXPDSAXQAX@Z 100635ea f i libvcruntime:winapi_downlevel.obj
 0001:000625fa       ??$__crt_interlocked_read_pointer@UHINSTANCE__@@@@YAPAUHINSTANCE__@@PDSAU0@@Z 100635fa f i libvcruntime:winapi_downlevel.obj
 0001:00062606       ??$__crt_interlocked_read_pointer@X@@YAPAXPDSAX@Z 10063606 f i libvcruntime:winapi_downlevel.obj
 0001:000628ba       ___vcrt_FlsAlloc           100638ba f   libvcruntime:winapi_downlevel.obj
 0001:00062903       ___vcrt_FlsFree            10063903 f   libvcruntime:winapi_downlevel.obj
 0001:0006294c       ___vcrt_FlsGetValue        1006394c f   libvcruntime:winapi_downlevel.obj
 0001:00062995       ___vcrt_FlsSetValue        10063995 f   libvcruntime:winapi_downlevel.obj
 0001:000629e2       ___vcrt_InitializeCriticalSectionEx 100639e2 f   libvcruntime:winapi_downlevel.obj
 0001:00062a53       __get_unexpected           10063a53 f   libvcruntime:unexpected.obj
 0001:00062a69       _set_unexpected            10063a69 f   libvcruntime:unexpected.obj
 0001:00062a8e       _unexpected                10063a8e f   libvcruntime:unexpected.obj
 0001:00062ab2       ?GetCurrentState@__FrameHandler3@@SAHPAUEHRegistrationNode@@PAXPBU_s_FuncInfo@@@Z 10063ab2 f   libvcruntime:ehstate.obj
 0001:00062ad6       ?SetState@__FrameHandler3@@SAXPAUEHRegistrationNode@@PBU_s_FuncInfo@@H@Z 10063ad6 f   libvcruntime:ehstate.obj
 0001:00062af0       __global_unwind2           10063af0 f   libvcruntime:exsup.obj
 0001:00062b56       __local_unwind2            10063b56 f   libvcruntime:exsup.obj
 0001:00062bda       __abnormal_termination     10063bda f   libvcruntime:exsup.obj
 0001:00062c00       __NLG_Notify1              10063c00 f   libvcruntime:exsup.obj
 0001:00062c0c       __NLG_Notify               10063c0c f   libvcruntime:exsup.obj
 0001:00062c23       __NLG_Dispatch2            10063c23     libvcruntime:exsup.obj
 0001:00062c23       __NLG_Dispatch             10063c23     libvcruntime:exsup.obj
 0001:00062c2b       __NLG_Call                 10063c2b f   libvcruntime:exsup.obj
 0001:00062c2d       __NLG_Return2              10063c2d     libvcruntime:exsup.obj
 0001:00062c7d       _malloc                    10063c7d f   libucrt:malloc.obj
 0001:00062c8a       _free                      10063c8a f   libucrt:free.obj
 0001:00062cae       ??$?RPAU__crt_stdio_stream_data@@@__crt_internal_free_policy@@QBEXQBQAU__crt_stdio_stream_data@@@Z 10063cae f i libucrt:_file.obj
 0001:00062cc4       ??0?$__crt_unique_heap_ptr@PAU__crt_stdio_stream_data@@U__crt_internal_free_policy@@@@QAE@QAPAU__crt_stdio_stream_data@@@Z 10063cc4 f i libucrt:_file.obj
 0001:00062cd8       ??0__crt_stdio_stream@@QAE@QAU_iobuf@@@Z 10063cd8 f i libucrt:_file.obj
 0001:00062cec       ??1?$__crt_unique_heap_ptr@PAU__crt_stdio_stream_data@@U__crt_internal_free_policy@@@@QAE@XZ 10063cec f i libucrt:_file.obj
 0001:00062d02       ??C__crt_stdio_stream@@QBEPAU__crt_stdio_stream_data@@XZ 10063d02 f i libucrt:_file.obj
 0001:00062d05       ?detach@?$__crt_unique_heap_ptr@PAU__crt_stdio_stream_data@@U__crt_internal_free_policy@@@@QAEPAPAU__crt_stdio_stream_data@@XZ 10063d05 f i libucrt:_file.obj
 0001:00062d0b       ?release@?$__crt_unique_heap_ptr@PAU__crt_stdio_stream_data@@U__crt_internal_free_policy@@@@QAEXXZ 10063d0b f i libucrt:_file.obj
 0001:00062d21       ___acrt_initialize_stdio   10063d21 f   libucrt:_file.obj
 0001:00062e1b       ___acrt_iob_func           10063e1b f   libucrt:_file.obj
 0001:00062e2f       ___acrt_uninitialize_stdio 10063e2f f   libucrt:_file.obj
 0001:00062e8e       __get_stream_buffer_pointers 10063e8e f   libucrt:_file.obj
 0001:00062ee5       __lock_file                10063ee5 f   libucrt:_file.obj
 0001:00062efe       __unlock_file              10063efe f   libucrt:_file.obj
 0001:00062f17       ??$?0ABV?$stream_output_adapter@D@__crt_stdio_output@@AB_KABQBDABQAU__crt_locale_pointers@@ABQAD@?$format_validation_base@DV?$stream_output_adapter@D@__crt_stdio_output@@@__crt_stdio_output@@IAE@ABV?$stream_output_adapter@D@1@AB_KABQBDABQAU__crt_locale_pointers@@ABQAD@Z 10063f17 f i libucrt:output.obj
 0001:00062f42       ??$?0ABV?$stream_output_adapter@D@__crt_stdio_output@@AB_KABQBDABQAU__crt_locale_pointers@@ABQAD@?$positional_parameter_base@DV?$stream_output_adapter@D@__crt_stdio_output@@@__crt_stdio_output@@IAE@ABV?$stream_output_adapter@D@1@AB_KABQBDABQAU__crt_locale_pointers@@ABQAD@Z 10063f42 f i libucrt:output.obj
 0001:00062f9c       ??$?0ABV?$stream_output_adapter@D@__crt_stdio_output@@AB_KABQBDABQAU__crt_locale_pointers@@ABQAD@?$standard_base@DV?$stream_output_adapter@D@__crt_stdio_output@@@__crt_stdio_output@@IAE@ABV?$stream_output_adapter@D@1@AB_KABQBDABQAU__crt_locale_pointers@@ABQAD@Z 10063f9c f i libucrt:output.obj
 0001:00062fde       ??$?0ABV?$stream_output_adapter@_W@__crt_stdio_output@@AB_KABQB_WABQAU__crt_locale_pointers@@ABQAD@?$format_validation_base@_WV?$stream_output_adapter@_W@__crt_stdio_output@@@__crt_stdio_output@@IAE@ABV?$stream_output_adapter@_W@1@AB_KABQB_WABQAU__crt_locale_pointers@@ABQAD@Z 10063fde f i libucrt:output.obj
 0001:00063009       ??$?0ABV?$stream_output_adapter@_W@__crt_stdio_output@@AB_KABQB_WABQAU__crt_locale_pointers@@ABQAD@?$positional_parameter_base@_WV?$stream_output_adapter@_W@__crt_stdio_output@@@__crt_stdio_output@@IAE@ABV?$stream_output_adapter@_W@1@AB_KABQB_WABQAU__crt_locale_pointers@@ABQAD@Z 10064009 f i libucrt:output.obj
 0001:00063063       ??$?0ABV?$stream_output_adapter@_W@__crt_stdio_output@@AB_KABQB_WABQAU__crt_locale_pointers@@ABQAD@?$standard_base@_WV?$stream_output_adapter@_W@__crt_stdio_output@@@__crt_stdio_output@@IAE@ABV?$stream_output_adapter@_W@1@AB_KABQB_WABQAU__crt_locale_pointers@@ABQAD@Z 10064063 f i libucrt:output.obj
 0001:000630a5       ??$?0ABV?$string_output_adapter@D@__crt_stdio_output@@AB_KABQBDABQAU__crt_locale_pointers@@ABQAD@?$format_validation_base@DV?$string_output_adapter@D@__crt_stdio_output@@@__crt_stdio_output@@IAE@ABV?$string_output_adapter@D@1@AB_KABQBDABQAU__crt_locale_pointers@@ABQAD@Z 100640a5 f i libucrt:output.obj
 0001:000630d0       ??$?0ABV?$string_output_adapter@D@__crt_stdio_output@@AB_KABQBDABQAU__crt_locale_pointers@@ABQAD@?$positional_parameter_base@DV?$string_output_adapter@D@__crt_stdio_output@@@__crt_stdio_output@@IAE@ABV?$string_output_adapter@D@1@AB_KABQBDABQAU__crt_locale_pointers@@ABQAD@Z 100640d0 f i libucrt:output.obj
 0001:0006312a       ??$?0ABV?$string_output_adapter@D@__crt_stdio_output@@AB_KABQBDABQAU__crt_locale_pointers@@ABQAD@?$standard_base@DV?$string_output_adapter@D@__crt_stdio_output@@@__crt_stdio_output@@IAE@ABV?$string_output_adapter@D@1@AB_KABQBDABQAU__crt_locale_pointers@@ABQAD@Z 1006412a f i libucrt:output.obj
 0001:0006316c       ??$?0ABV?$string_output_adapter@_W@__crt_stdio_output@@AB_KABQB_WABQAU__crt_locale_pointers@@ABQAD@?$format_validation_base@_WV?$string_output_adapter@_W@__crt_stdio_output@@@__crt_stdio_output@@IAE@ABV?$string_output_adapter@_W@1@AB_KABQB_WABQAU__crt_locale_pointers@@ABQAD@Z 1006416c f i libucrt:output.obj
 0001:00063197       ??$?0ABV?$string_output_adapter@_W@__crt_stdio_output@@AB_KABQB_WABQAU__crt_locale_pointers@@ABQAD@?$positional_parameter_base@_WV?$string_output_adapter@_W@__crt_stdio_output@@@__crt_stdio_output@@IAE@ABV?$string_output_adapter@_W@1@AB_KABQB_WABQAU__crt_locale_pointers@@ABQAD@Z 10064197 f i libucrt:output.obj
 0001:000631f1       ??$?0ABV?$string_output_adapter@_W@__crt_stdio_output@@AB_KABQB_WABQAU__crt_locale_pointers@@ABQAD@?$standard_base@_WV?$string_output_adapter@_W@__crt_stdio_output@@@__crt_stdio_output@@IAE@ABV?$string_output_adapter@_W@1@AB_KABQB_WABQAU__crt_locale_pointers@@ABQAD@Z 100641f1 f i libucrt:output.obj
 0001:000635bd       ??$__crt_interlocked_read@J@@YAJPDJ@Z 100645bd f i libucrt:output.obj
 0001:00064826       ??$count@D@formatting_buffer@__crt_stdio_output@@QBEIXZ 10065826 f i libucrt:output.obj
 0001:00064844       ??$count@_W@formatting_buffer@__crt_stdio_output@@QBEIXZ 10065844 f i libucrt:output.obj
 0001:00064863       ??$data@D@formatting_buffer@__crt_stdio_output@@QAEPADXZ 10065863 f i libucrt:output.obj
 0001:00064873       ??$data@_W@formatting_buffer@__crt_stdio_output@@QAEPA_WXZ 10065873 f i libucrt:output.obj
 0001:00064883       ??$ensure_buffer_is_big_enough@D@formatting_buffer@__crt_stdio_output@@QAE_NI@Z 10065883 f i libucrt:output.obj
 0001:00064921       ??$ensure_buffer_is_big_enough@_W@formatting_buffer@__crt_stdio_output@@QAE_NI@Z 10065921 f i libucrt:output.obj
 0001:000649c1       ??$extract_argument_from_va_list@C_J@?$positional_parameter_base@DV?$stream_output_adapter@D@__crt_stdio_output@@@__crt_stdio_output@@IAE_NAA_J@Z 100659c1 f i libucrt:output.obj
 0001:00064a58       ??$extract_argument_from_va_list@C_J@?$positional_parameter_base@DV?$string_output_adapter@D@__crt_stdio_output@@@__crt_stdio_output@@IAE_NAA_J@Z 10065a58 f i libucrt:output.obj
 0001:00064aef       ??$extract_argument_from_va_list@C_J@?$positional_parameter_base@_WV?$stream_output_adapter@_W@__crt_stdio_output@@@__crt_stdio_output@@IAE_NAA_J@Z 10065aef f i libucrt:output.obj
 0001:00064b86       ??$extract_argument_from_va_list@C_J@?$positional_parameter_base@_WV?$string_output_adapter@_W@__crt_stdio_output@@@__crt_stdio_output@@IAE_NAA_J@Z 10065b86 f i libucrt:output.obj
 0001:00064c1d       ??$extract_argument_from_va_list@C_J@?$standard_base@DV?$stream_output_adapter@D@__crt_stdio_output@@@__crt_stdio_output@@IAE_NAA_J@Z 10065c1d f i libucrt:output.obj
 0001:00064c43       ??$extract_argument_from_va_list@C_J@?$standard_base@DV?$string_output_adapter@D@__crt_stdio_output@@@__crt_stdio_output@@IAE_NAA_J@Z 10065c43 f i libucrt:output.obj
 0001:00064c69       ??$extract_argument_from_va_list@C_J@?$standard_base@_WV?$stream_output_adapter@_W@__crt_stdio_output@@@__crt_stdio_output@@IAE_NAA_J@Z 10065c69 f i libucrt:output.obj
 0001:00064c8f       ??$extract_argument_from_va_list@C_J@?$standard_base@_WV?$string_output_adapter@_W@__crt_stdio_output@@@__crt_stdio_output@@IAE_NAA_J@Z 10065c8f f i libucrt:output.obj
 0001:00064cb5       ??$extract_argument_from_va_list@E_J@?$positional_parameter_base@DV?$stream_output_adapter@D@__crt_stdio_output@@@__crt_stdio_output@@IAE_NAA_J@Z 10065cb5 f i libucrt:output.obj
 0001:00064d4c       ??$extract_argument_from_va_list@E_J@?$positional_parameter_base@DV?$string_output_adapter@D@__crt_stdio_output@@@__crt_stdio_output@@IAE_NAA_J@Z 10065d4c f i libucrt:output.obj
 0001:00064de3       ??$extract_argument_from_va_list@E_J@?$positional_parameter_base@_WV?$stream_output_adapter@_W@__crt_stdio_output@@@__crt_stdio_output@@IAE_NAA_J@Z 10065de3 f i libucrt:output.obj
 0001:00064e7a       ??$extract_argument_from_va_list@E_J@?$positional_parameter_base@_WV?$string_output_adapter@_W@__crt_stdio_output@@@__crt_stdio_output@@IAE_NAA_J@Z 10065e7a f i libucrt:output.obj
 0001:00064f11       ??$extract_argument_from_va_list@E_J@?$standard_base@DV?$stream_output_adapter@D@__crt_stdio_output@@@__crt_stdio_output@@IAE_NAA_J@Z 10065f11 f i libucrt:output.obj
 0001:00064f37       ??$extract_argument_from_va_list@E_J@?$standard_base@DV?$string_output_adapter@D@__crt_stdio_output@@@__crt_stdio_output@@IAE_NAA_J@Z 10065f37 f i libucrt:output.obj
 0001:00064f5d       ??$extract_argument_from_va_list@E_J@?$standard_base@_WV?$stream_output_adapter@_W@__crt_stdio_output@@@__crt_stdio_output@@IAE_NAA_J@Z 10065f5d f i libucrt:output.obj
 0001:00064f83       ??$extract_argument_from_va_list@E_J@?$standard_base@_WV?$string_output_adapter@_W@__crt_stdio_output@@@__crt_stdio_output@@IAE_NAA_J@Z 10065f83 f i libucrt:output.obj
 0001:00064fa9       ??$extract_argument_from_va_list@F_J@?$positional_parameter_base@DV?$stream_output_adapter@D@__crt_stdio_output@@@__crt_stdio_output@@IAE_NAA_J@Z 10065fa9 f i libucrt:output.obj
 0001:00065040       ??$extract_argument_from_va_list@F_J@?$positional_parameter_base@DV?$string_output_adapter@D@__crt_stdio_output@@@__crt_stdio_output@@IAE_NAA_J@Z 10066040 f i libucrt:output.obj
 0001:000650d7       ??$extract_argument_from_va_list@F_J@?$positional_parameter_base@_WV?$stream_output_adapter@_W@__crt_stdio_output@@@__crt_stdio_output@@IAE_NAA_J@Z 100660d7 f i libucrt:output.obj
 0001:0006516e       ??$extract_argument_from_va_list@F_J@?$positional_parameter_base@_WV?$string_output_adapter@_W@__crt_stdio_output@@@__crt_stdio_output@@IAE_NAA_J@Z 1006616e f i libucrt:output.obj
 0001:00065205       ??$extract_argument_from_va_list@F_J@?$standard_base@DV?$stream_output_adapter@D@__crt_stdio_output@@@__crt_stdio_output@@IAE_NAA_J@Z 10066205 f i libucrt:output.obj
 0001:0006522b       ??$extract_argument_from_va_list@F_J@?$standard_base@DV?$string_output_adapter@D@__crt_stdio_output@@@__crt_stdio_output@@IAE_NAA_J@Z 1006622b f i libucrt:output.obj
 0001:00065251       ??$extract_argument_from_va_list@F_J@?$standard_base@_WV?$stream_output_adapter@_W@__crt_stdio_output@@@__crt_stdio_output@@IAE_NAA_J@Z 10066251 f i libucrt:output.obj
 0001:00065277       ??$extract_argument_from_va_list@F_J@?$standard_base@_WV?$string_output_adapter@_W@__crt_stdio_output@@@__crt_stdio_output@@IAE_NAA_J@Z 10066277 f i libucrt:output.obj
 0001:0006529d       ??$extract_argument_from_va_list@GD@?$positional_parameter_base@DV?$stream_output_adapter@D@__crt_stdio_output@@@__crt_stdio_output@@IAE_NAAD@Z 1006629d f i libucrt:output.obj
 0001:00065333       ??$extract_argument_from_va_list@GD@?$positional_parameter_base@DV?$string_output_adapter@D@__crt_stdio_output@@@__crt_stdio_output@@IAE_NAAD@Z 10066333 f i libucrt:output.obj
 0001:000653c9       ??$extract_argument_from_va_list@GD@?$standard_base@DV?$stream_output_adapter@D@__crt_stdio_output@@@__crt_stdio_output@@IAE_NAAD@Z 100663c9 f i libucrt:output.obj
 0001:000653e9       ??$extract_argument_from_va_list@GD@?$standard_base@DV?$string_output_adapter@D@__crt_stdio_output@@@__crt_stdio_output@@IAE_NAAD@Z 100663e9 f i libucrt:output.obj
 0001:00065409       ??$extract_argument_from_va_list@G_J@?$positional_parameter_base@DV?$stream_output_adapter@D@__crt_stdio_output@@@__crt_stdio_output@@IAE_NAA_J@Z 10066409 f i libucrt:output.obj
 0001:000654a0       ??$extract_argument_from_va_list@G_J@?$positional_parameter_base@DV?$string_output_adapter@D@__crt_stdio_output@@@__crt_stdio_output@@IAE_NAA_J@Z 100664a0 f i libucrt:output.obj
 0001:00065537       ??$extract_argument_from_va_list@G_J@?$positional_parameter_base@_WV?$stream_output_adapter@_W@__crt_stdio_output@@@__crt_stdio_output@@IAE_NAA_J@Z 10066537 f i libucrt:output.obj
 0001:000655ce       ??$extract_argument_from_va_list@G_J@?$positional_parameter_base@_WV?$string_output_adapter@_W@__crt_stdio_output@@@__crt_stdio_output@@IAE_NAA_J@Z 100665ce f i libucrt:output.obj
 0001:00065665       ??$extract_argument_from_va_list@G_J@?$standard_base@DV?$stream_output_adapter@D@__crt_stdio_output@@@__crt_stdio_output@@IAE_NAA_J@Z 10066665 f i libucrt:output.obj
 0001:0006568b       ??$extract_argument_from_va_list@G_J@?$standard_base@DV?$string_output_adapter@D@__crt_stdio_output@@@__crt_stdio_output@@IAE_NAA_J@Z 1006668b f i libucrt:output.obj
 0001:000656b1       ??$extract_argument_from_va_list@G_J@?$standard_base@_WV?$stream_output_adapter@_W@__crt_stdio_output@@@__crt_stdio_output@@IAE_NAA_J@Z 100666b1 f i libucrt:output.obj
 0001:000656d7       ??$extract_argument_from_va_list@G_J@?$standard_base@_WV?$string_output_adapter@_W@__crt_stdio_output@@@__crt_stdio_output@@IAE_NAA_J@Z 100666d7 f i libucrt:output.obj
 0001:000656fd       ??$extract_argument_from_va_list@H_J@?$positional_parameter_base@DV?$stream_output_adapter@D@__crt_stdio_output@@@__crt_stdio_output@@IAE_NAA_J@Z 100666fd f i libucrt:output.obj
 0001:00065791       ??$extract_argument_from_va_list@H_J@?$positional_parameter_base@DV?$string_output_adapter@D@__crt_stdio_output@@@__crt_stdio_output@@IAE_NAA_J@Z 10066791 f i libucrt:output.obj
 0001:00065825       ??$extract_argument_from_va_list@H_J@?$positional_parameter_base@_WV?$stream_output_adapter@_W@__crt_stdio_output@@@__crt_stdio_output@@IAE_NAA_J@Z 10066825 f i libucrt:output.obj
 0001:000658b9       ??$extract_argument_from_va_list@H_J@?$positional_parameter_base@_WV?$string_output_adapter@_W@__crt_stdio_output@@@__crt_stdio_output@@IAE_NAA_J@Z 100668b9 f i libucrt:output.obj
 0001:0006594d       ??$extract_argument_from_va_list@H_J@?$standard_base@DV?$stream_output_adapter@D@__crt_stdio_output@@@__crt_stdio_output@@IAE_NAA_J@Z 1006694d f i libucrt:output.obj
 0001:00065972       ??$extract_argument_from_va_list@H_J@?$standard_base@DV?$string_output_adapter@D@__crt_stdio_output@@@__crt_stdio_output@@IAE_NAA_J@Z 10066972 f i libucrt:output.obj
 0001:00065997       ??$extract_argument_from_va_list@H_J@?$standard_base@_WV?$stream_output_adapter@_W@__crt_stdio_output@@@__crt_stdio_output@@IAE_NAA_J@Z 10066997 f i libucrt:output.obj
 0001:000659bc       ??$extract_argument_from_va_list@H_J@?$standard_base@_WV?$string_output_adapter@_W@__crt_stdio_output@@@__crt_stdio_output@@IAE_NAA_J@Z 100669bc f i libucrt:output.obj
 0001:000659e1       ??$extract_argument_from_va_list@I_J@?$positional_parameter_base@DV?$stream_output_adapter@D@__crt_stdio_output@@@__crt_stdio_output@@IAE_NAA_J@Z 100669e1 f i libucrt:output.obj
 0001:00065a81       ??$extract_argument_from_va_list@I_J@?$positional_parameter_base@DV?$string_output_adapter@D@__crt_stdio_output@@@__crt_stdio_output@@IAE_NAA_J@Z 10066a81 f i libucrt:output.obj
 0001:00065b21       ??$extract_argument_from_va_list@I_J@?$positional_parameter_base@_WV?$stream_output_adapter@_W@__crt_stdio_output@@@__crt_stdio_output@@IAE_NAA_J@Z 10066b21 f i libucrt:output.obj
 0001:00065bc1       ??$extract_argument_from_va_list@I_J@?$positional_parameter_base@_WV?$string_output_adapter@_W@__crt_stdio_output@@@__crt_stdio_output@@IAE_NAA_J@Z 10066bc1 f i libucrt:output.obj
 0001:00065c61       ??$extract_argument_from_va_list@I_J@?$standard_base@DV?$stream_output_adapter@D@__crt_stdio_output@@@__crt_stdio_output@@IAE_NAA_J@Z 10066c61 f i libucrt:output.obj
 0001:00065c86       ??$extract_argument_from_va_list@I_J@?$standard_base@DV?$string_output_adapter@D@__crt_stdio_output@@@__crt_stdio_output@@IAE_NAA_J@Z 10066c86 f i libucrt:output.obj
 0001:00065cab       ??$extract_argument_from_va_list@I_J@?$standard_base@_WV?$stream_output_adapter@_W@__crt_stdio_output@@@__crt_stdio_output@@IAE_NAA_J@Z 10066cab f i libucrt:output.obj
 0001:00065cd0       ??$extract_argument_from_va_list@I_J@?$standard_base@_WV?$string_output_adapter@_W@__crt_stdio_output@@@__crt_stdio_output@@IAE_NAA_J@Z 10066cd0 f i libucrt:output.obj
 0001:00065cf5       ??$extract_argument_from_va_list@PADPAD@?$positional_parameter_base@DV?$stream_output_adapter@D@__crt_stdio_output@@@__crt_stdio_output@@IAE_NAAPAD@Z 10066cf5 f i libucrt:output.obj
 0001:00065d8b       ??$extract_argument_from_va_list@PADPAD@?$positional_parameter_base@DV?$string_output_adapter@D@__crt_stdio_output@@@__crt_stdio_output@@IAE_NAAPAD@Z 10066d8b f i libucrt:output.obj
 0001:00065e21       ??$extract_argument_from_va_list@PADPAD@?$positional_parameter_base@_WV?$stream_output_adapter@_W@__crt_stdio_output@@@__crt_stdio_output@@IAE_NAAPAD@Z 10066e21 f i libucrt:output.obj
 0001:00065eb7       ??$extract_argument_from_va_list@PADPAD@?$positional_parameter_base@_WV?$string_output_adapter@_W@__crt_stdio_output@@@__crt_stdio_output@@IAE_NAAPAD@Z 10066eb7 f i libucrt:output.obj
 0001:00065f4d       ??$extract_argument_from_va_list@PADPAD@?$standard_base@DV?$stream_output_adapter@D@__crt_stdio_output@@@__crt_stdio_output@@IAE_NAAPAD@Z 10066f4d f i libucrt:output.obj
 0001:00065f6d       ??$extract_argument_from_va_list@PADPAD@?$standard_base@DV?$string_output_adapter@D@__crt_stdio_output@@@__crt_stdio_output@@IAE_NAAPAD@Z 10066f6d f i libucrt:output.obj
 0001:00065f8d       ??$extract_argument_from_va_list@PADPAD@?$standard_base@_WV?$stream_output_adapter@_W@__crt_stdio_output@@@__crt_stdio_output@@IAE_NAAPAD@Z 10066f8d f i libucrt:output.obj
 0001:00065fad       ??$extract_argument_from_va_list@PADPAD@?$standard_base@_WV?$string_output_adapter@_W@__crt_stdio_output@@@__crt_stdio_output@@IAE_NAAPAD@Z 10066fad f i libucrt:output.obj
 0001:000663a5       ??$extract_argument_from_va_list@PAXPAX@?$positional_parameter_base@DV?$stream_output_adapter@D@__crt_stdio_output@@@__crt_stdio_output@@IAE_NAAPAX@Z 100673a5 f i libucrt:output.obj
 0001:0006643b       ??$extract_argument_from_va_list@PAXPAX@?$positional_parameter_base@DV?$string_output_adapter@D@__crt_stdio_output@@@__crt_stdio_output@@IAE_NAAPAX@Z 1006743b f i libucrt:output.obj
 0001:000664d1       ??$extract_argument_from_va_list@PAXPAX@?$positional_parameter_base@_WV?$stream_output_adapter@_W@__crt_stdio_output@@@__crt_stdio_output@@IAE_NAAPAX@Z 100674d1 f i libucrt:output.obj
 0001:00066567       ??$extract_argument_from_va_list@PAXPAX@?$positional_parameter_base@_WV?$string_output_adapter@_W@__crt_stdio_output@@@__crt_stdio_output@@IAE_NAAPAX@Z 10067567 f i libucrt:output.obj
 0001:000665fd       ??$extract_argument_from_va_list@PAXPAX@?$standard_base@DV?$stream_output_adapter@D@__crt_stdio_output@@@__crt_stdio_output@@IAE_NAAPAX@Z 100675fd f i libucrt:output.obj
 0001:0006661d       ??$extract_argument_from_va_list@PAXPAX@?$standard_base@DV?$string_output_adapter@D@__crt_stdio_output@@@__crt_stdio_output@@IAE_NAAPAX@Z 1006761d f i libucrt:output.obj
 0001:0006663d       ??$extract_argument_from_va_list@PAXPAX@?$standard_base@_WV?$stream_output_adapter@_W@__crt_stdio_output@@@__crt_stdio_output@@IAE_NAAPAX@Z 1006763d f i libucrt:output.obj
 0001:0006665d       ??$extract_argument_from_va_list@PAXPAX@?$standard_base@_WV?$string_output_adapter@_W@__crt_stdio_output@@@__crt_stdio_output@@IAE_NAAPAX@Z 1006765d f i libucrt:output.obj
 0001:0006667d       ??$extract_argument_from_va_list@U_CRT_DOUBLE@@U1@@?$positional_parameter_base@DV?$stream_output_adapter@D@__crt_stdio_output@@@__crt_stdio_output@@IAE_NAAU_CRT_DOUBLE@@@Z 1006767d f i libucrt:output.obj
 0001:00066724       ??$extract_argument_from_va_list@U_CRT_DOUBLE@@U1@@?$positional_parameter_base@DV?$string_output_adapter@D@__crt_stdio_output@@@__crt_stdio_output@@IAE_NAAU_CRT_DOUBLE@@@Z 10067724 f i libucrt:output.obj
 0001:000667cb       ??$extract_argument_from_va_list@U_CRT_DOUBLE@@U1@@?$positional_parameter_base@_WV?$stream_output_adapter@_W@__crt_stdio_output@@@__crt_stdio_output@@IAE_NAAU_CRT_DOUBLE@@@Z 100677cb f i libucrt:output.obj
 0001:00066872       ??$extract_argument_from_va_list@U_CRT_DOUBLE@@U1@@?$positional_parameter_base@_WV?$string_output_adapter@_W@__crt_stdio_output@@@__crt_stdio_output@@IAE_NAAU_CRT_DOUBLE@@@Z 10067872 f i libucrt:output.obj
 0001:00066919       ??$extract_argument_from_va_list@U_CRT_DOUBLE@@U1@@?$standard_base@DV?$stream_output_adapter@D@__crt_stdio_output@@@__crt_stdio_output@@IAE_NAAU_CRT_DOUBLE@@@Z 10067919 f i libucrt:output.obj
 0001:00066941       ??$extract_argument_from_va_list@U_CRT_DOUBLE@@U1@@?$standard_base@DV?$string_output_adapter@D@__crt_stdio_output@@@__crt_stdio_output@@IAE_NAAU_CRT_DOUBLE@@@Z 10067941 f i libucrt:output.obj
 0001:00066969       ??$extract_argument_from_va_list@U_CRT_DOUBLE@@U1@@?$standard_base@_WV?$stream_output_adapter@_W@__crt_stdio_output@@@__crt_stdio_output@@IAE_NAAU_CRT_DOUBLE@@@Z 10067969 f i libucrt:output.obj
 0001:00066991       ??$extract_argument_from_va_list@U_CRT_DOUBLE@@U1@@?$standard_base@_WV?$string_output_adapter@_W@__crt_stdio_output@@@__crt_stdio_output@@IAE_NAAU_CRT_DOUBLE@@@Z 10067991 f i libucrt:output.obj
 0001:000669b9       ??$extract_argument_from_va_list@_J_J@?$positional_parameter_base@DV?$stream_output_adapter@D@__crt_stdio_output@@@__crt_stdio_output@@IAE_NAA_J@Z 100679b9 f i libucrt:output.obj
 0001:00066a60       ??$extract_argument_from_va_list@_J_J@?$positional_parameter_base@DV?$string_output_adapter@D@__crt_stdio_output@@@__crt_stdio_output@@IAE_NAA_J@Z 10067a60 f i libucrt:output.obj
 0001:00066b07       ??$extract_argument_from_va_list@_J_J@?$positional_parameter_base@_WV?$stream_output_adapter@_W@__crt_stdio_output@@@__crt_stdio_output@@IAE_NAA_J@Z 10067b07 f i libucrt:output.obj
 0001:00066bae       ??$extract_argument_from_va_list@_J_J@?$positional_parameter_base@_WV?$string_output_adapter@_W@__crt_stdio_output@@@__crt_stdio_output@@IAE_NAA_J@Z 10067bae f i libucrt:output.obj
 0001:00066c55       ??$extract_argument_from_va_list@_J_J@?$standard_base@DV?$stream_output_adapter@D@__crt_stdio_output@@@__crt_stdio_output@@IAE_NAA_J@Z 10067c55 f i libucrt:output.obj
 0001:00066c7d       ??$extract_argument_from_va_list@_J_J@?$standard_base@DV?$string_output_adapter@D@__crt_stdio_output@@@__crt_stdio_output@@IAE_NAA_J@Z 10067c7d f i libucrt:output.obj
 0001:00066ca5       ??$extract_argument_from_va_list@_J_J@?$standard_base@_WV?$stream_output_adapter@_W@__crt_stdio_output@@@__crt_stdio_output@@IAE_NAA_J@Z 10067ca5 f i libucrt:output.obj
 0001:00066ccd       ??$extract_argument_from_va_list@_J_J@?$standard_base@_WV?$string_output_adapter@_W@__crt_stdio_output@@@__crt_stdio_output@@IAE_NAA_J@Z 10067ccd f i libucrt:output.obj
 0001:00066cf5       ??$extract_argument_from_va_list@_K_J@?$positional_parameter_base@DV?$stream_output_adapter@D@__crt_stdio_output@@@__crt_stdio_output@@IAE_NAA_J@Z 10067cf5 f i libucrt:output.obj
 0001:00066d9c       ??$extract_argument_from_va_list@_K_J@?$positional_parameter_base@DV?$string_output_adapter@D@__crt_stdio_output@@@__crt_stdio_output@@IAE_NAA_J@Z 10067d9c f i libucrt:output.obj
 0001:00066e43       ??$extract_argument_from_va_list@_K_J@?$positional_parameter_base@_WV?$stream_output_adapter@_W@__crt_stdio_output@@@__crt_stdio_output@@IAE_NAA_J@Z 10067e43 f i libucrt:output.obj
 0001:00066eea       ??$extract_argument_from_va_list@_K_J@?$positional_parameter_base@_WV?$string_output_adapter@_W@__crt_stdio_output@@@__crt_stdio_output@@IAE_NAA_J@Z 10067eea f i libucrt:output.obj
 0001:00066f91       ??$extract_argument_from_va_list@_K_J@?$standard_base@DV?$stream_output_adapter@D@__crt_stdio_output@@@__crt_stdio_output@@IAE_NAA_J@Z 10067f91 f i libucrt:output.obj
 0001:00066fb9       ??$extract_argument_from_va_list@_K_J@?$standard_base@DV?$string_output_adapter@D@__crt_stdio_output@@@__crt_stdio_output@@IAE_NAA_J@Z 10067fb9 f i libucrt:output.obj
 0001:00066fe1       ??$extract_argument_from_va_list@_K_J@?$standard_base@_WV?$stream_output_adapter@_W@__crt_stdio_output@@@__crt_stdio_output@@IAE_NAA_J@Z 10067fe1 f i libucrt:output.obj
 0001:00067009       ??$extract_argument_from_va_list@_K_J@?$standard_base@_WV?$string_output_adapter@_W@__crt_stdio_output@@@__crt_stdio_output@@IAE_NAA_J@Z 10068009 f i libucrt:output.obj
 0001:00067031       ??$extract_argument_from_va_list@_W_W@?$positional_parameter_base@DV?$stream_output_adapter@D@__crt_stdio_output@@@__crt_stdio_output@@IAE_NAA_W@Z 10068031 f i libucrt:output.obj
 0001:000670cc       ??$extract_argument_from_va_list@_W_W@?$positional_parameter_base@DV?$string_output_adapter@D@__crt_stdio_output@@@__crt_stdio_output@@IAE_NAA_W@Z 100680cc f i libucrt:output.obj
 0001:00067167       ??$extract_argument_from_va_list@_W_W@?$positional_parameter_base@_WV?$stream_output_adapter@_W@__crt_stdio_output@@@__crt_stdio_output@@IAE_NAA_W@Z 10068167 f i libucrt:output.obj
 0001:00067202       ??$extract_argument_from_va_list@_W_W@?$positional_parameter_base@_WV?$string_output_adapter@_W@__crt_stdio_output@@@__crt_stdio_output@@IAE_NAA_W@Z 10068202 f i libucrt:output.obj
 0001:0006729d       ??$extract_argument_from_va_list@_W_W@?$standard_base@DV?$stream_output_adapter@D@__crt_stdio_output@@@__crt_stdio_output@@IAE_NAA_W@Z 1006829d f i libucrt:output.obj
 0001:000672c0       ??$extract_argument_from_va_list@_W_W@?$standard_base@DV?$string_output_adapter@D@__crt_stdio_output@@@__crt_stdio_output@@IAE_NAA_W@Z 100682c0 f i libucrt:output.obj
 0001:000672e3       ??$extract_argument_from_va_list@_W_W@?$standard_base@_WV?$stream_output_adapter@_W@__crt_stdio_output@@@__crt_stdio_output@@IAE_NAA_W@Z 100682e3 f i libucrt:output.obj
 0001:00067306       ??$extract_argument_from_va_list@_W_W@?$standard_base@_WV?$string_output_adapter@_W@__crt_stdio_output@@@__crt_stdio_output@@IAE_NAA_W@Z 10068306 f i libucrt:output.obj
 0001:00067329       ??$get_parameter_type@D@?$positional_parameter_base@DV?$stream_output_adapter@D@__crt_stdio_output@@@__crt_stdio_output@@CA?AW4parameter_type@01@PAD@Z 10068329 f i libucrt:output.obj
 0001:0006732d       ??$get_parameter_type@D@?$positional_parameter_base@DV?$string_output_adapter@D@__crt_stdio_output@@@__crt_stdio_output@@CA?AW4parameter_type@01@PAD@Z 1006832d f i libucrt:output.obj
 0001:00067331       ??$get_parameter_type@D@?$positional_parameter_base@_WV?$stream_output_adapter@_W@__crt_stdio_output@@@__crt_stdio_output@@CA?AW4parameter_type@01@PAD@Z 10068331 f i libucrt:output.obj
 0001:00067335       ??$get_parameter_type@D@?$positional_parameter_base@_WV?$string_output_adapter@_W@__crt_stdio_output@@@__crt_stdio_output@@CA?AW4parameter_type@01@PAD@Z 10068335 f i libucrt:output.obj
 0001:00067349       ??$get_parameter_type@X@?$positional_parameter_base@DV?$stream_output_adapter@D@__crt_stdio_output@@@__crt_stdio_output@@CA?AW4parameter_type@01@PAX@Z 10068349 f i libucrt:output.obj
 0001:0006734d       ??$get_parameter_type@X@?$positional_parameter_base@DV?$string_output_adapter@D@__crt_stdio_output@@@__crt_stdio_output@@CA?AW4parameter_type@01@PAX@Z 1006834d f i libucrt:output.obj
 0001:00067351       ??$get_parameter_type@X@?$positional_parameter_base@_WV?$stream_output_adapter@_W@__crt_stdio_output@@@__crt_stdio_output@@CA?AW4parameter_type@01@PAX@Z 10068351 f i libucrt:output.obj
 0001:00067355       ??$get_parameter_type@X@?$positional_parameter_base@_WV?$string_output_adapter@_W@__crt_stdio_output@@@__crt_stdio_output@@CA?AW4parameter_type@01@PAX@Z 10068355 f i libucrt:output.obj
 0001:00067359       ??$is_character_specifier@D@?$positional_parameter_base@DV?$stream_output_adapter@D@__crt_stdio_output@@@__crt_stdio_output@@CA_ND@Z 10068359 f i libucrt:output.obj
 0001:00067377       ??$is_character_specifier@D@?$positional_parameter_base@DV?$string_output_adapter@D@__crt_stdio_output@@@__crt_stdio_output@@CA_ND@Z 10068377 f i libucrt:output.obj
 0001:00067395       ??$is_character_specifier@_W@?$positional_parameter_base@_WV?$stream_output_adapter@_W@__crt_stdio_output@@@__crt_stdio_output@@CA_N_W@Z 10068395 f i libucrt:output.obj
 0001:000673b6       ??$is_character_specifier@_W@?$positional_parameter_base@_WV?$string_output_adapter@_W@__crt_stdio_output@@@__crt_stdio_output@@CA_N_W@Z 100683b6 f i libucrt:output.obj
 0001:000673d7       ??$is_integral_specifier@D@?$positional_parameter_base@DV?$stream_output_adapter@D@__crt_stdio_output@@@__crt_stdio_output@@CA_ND@Z 100683d7 f i libucrt:output.obj
 0001:0006740e       ??$is_integral_specifier@D@?$positional_parameter_base@DV?$string_output_adapter@D@__crt_stdio_output@@@__crt_stdio_output@@CA_ND@Z 1006840e f i libucrt:output.obj
 0001:00067445       ??$is_integral_specifier@_W@?$positional_parameter_base@_WV?$stream_output_adapter@_W@__crt_stdio_output@@@__crt_stdio_output@@CA_N_W@Z 10068445 f i libucrt:output.obj
 0001:0006748e       ??$is_integral_specifier@_W@?$positional_parameter_base@_WV?$string_output_adapter@_W@__crt_stdio_output@@@__crt_stdio_output@@CA_N_W@Z 1006848e f i libucrt:output.obj
 0001:000674d7       ??$is_pointer_specifier@D@?$positional_parameter_base@DV?$stream_output_adapter@D@__crt_stdio_output@@@__crt_stdio_output@@CA_ND@Z 100684d7 f i libucrt:output.obj
 0001:000674e8       ??$is_pointer_specifier@D@?$positional_parameter_base@DV?$string_output_adapter@D@__crt_stdio_output@@@__crt_stdio_output@@CA_ND@Z 100684e8 f i libucrt:output.obj
 0001:000674f9       ??$is_pointer_specifier@_W@?$positional_parameter_base@_WV?$stream_output_adapter@_W@__crt_stdio_output@@@__crt_stdio_output@@CA_N_W@Z 100684f9 f i libucrt:output.obj
 0001:0006750b       ??$is_pointer_specifier@_W@?$positional_parameter_base@_WV?$string_output_adapter@_W@__crt_stdio_output@@@__crt_stdio_output@@CA_N_W@Z 1006850b f i libucrt:output.obj
 0001:0006751d       ??$is_string_specifier@D@?$positional_parameter_base@DV?$stream_output_adapter@D@__crt_stdio_output@@@__crt_stdio_output@@CA_ND@Z 1006851d f i libucrt:output.obj
 0001:0006753b       ??$is_string_specifier@D@?$positional_parameter_base@DV?$string_output_adapter@D@__crt_stdio_output@@@__crt_stdio_output@@CA_ND@Z 1006853b f i libucrt:output.obj
 0001:00067559       ??$is_string_specifier@_W@?$positional_parameter_base@_WV?$stream_output_adapter@_W@__crt_stdio_output@@@__crt_stdio_output@@CA_N_W@Z 10068559 f i libucrt:output.obj
 0001:0006757a       ??$is_string_specifier@_W@?$positional_parameter_base@_WV?$string_output_adapter@_W@__crt_stdio_output@@@__crt_stdio_output@@CA_N_W@Z 1006857a f i libucrt:output.obj
 0001:0006759b       ??$is_wide_character_specifier@D@__crt_stdio_output@@YA_N_KDW4length_modifier@0@@Z 1006859b f i libucrt:output.obj
 0001:000675d8       ??$is_wide_character_specifier@_W@__crt_stdio_output@@YA_N_K_WW4length_modifier@0@@Z 100685d8 f i libucrt:output.obj
 0001:00067639       ??$peek_va_arg@C@__crt_stdio_output@@YACPAD@Z 10068639 f i libucrt:output.obj
 0001:00067648       ??$peek_va_arg@E@__crt_stdio_output@@YAEPAD@Z 10068648 f i libucrt:output.obj
 0001:00067657       ??$peek_va_arg@F@__crt_stdio_output@@YAFPAD@Z 10068657 f i libucrt:output.obj
 0001:00067667       ??$peek_va_arg@G@__crt_stdio_output@@YAGPAD@Z 10068667 f i libucrt:output.obj
 0001:00067677       ??$peek_va_arg@H@__crt_stdio_output@@YAHPAD@Z 10068677 f i libucrt:output.obj
 0001:00067686       ??$peek_va_arg@I@__crt_stdio_output@@YAIPAD@Z 10068686 f i libucrt:output.obj
 0001:00067695       ??$peek_va_arg@PAD@__crt_stdio_output@@YAPADPAD@Z 10068695 f i libucrt:output.obj
 0001:000676e0       ??$peek_va_arg@PAX@__crt_stdio_output@@YAPAXPAD@Z 100686e0 f i libucrt:output.obj
 0001:000676ef       ??$peek_va_arg@U_CRT_DOUBLE@@@__crt_stdio_output@@YA?AU_CRT_DOUBLE@@PAD@Z 100686ef f i libucrt:output.obj
 0001:00067701       ??$peek_va_arg@_J@__crt_stdio_output@@YA_JPAD@Z 10068701 f i libucrt:output.obj
 0001:00067713       ??$peek_va_arg@_K@__crt_stdio_output@@YA_KPAD@Z 10068713 f i libucrt:output.obj
 0001:00067725       ??$peek_va_arg@_W@__crt_stdio_output@@YA_WPAD@Z 10068725 f i libucrt:output.obj
 0001:00067735       ??$puttc_nolock@ABDPAU_iobuf@@@?$__crt_char_traits@D@@SAHABD$$QAPAU_iobuf@@@Z 10068735 f i libucrt:output.obj
 0001:00067755       ??$puttc_nolock@AB_WPAU_iobuf@@@?$__crt_char_traits@_W@@SAGAB_W$$QAPAU_iobuf@@@Z 10068755 f i libucrt:output.obj
 0001:00067775       ??$read_va_arg@C@__crt_stdio_output@@YACAAPAD@Z 10068775 f i libucrt:output.obj
 0001:0006778b       ??$read_va_arg@E@__crt_stdio_output@@YAEAAPAD@Z 1006878b f i libucrt:output.obj
 0001:000677a1       ??$read_va_arg@F@__crt_stdio_output@@YAFAAPAD@Z 100687a1 f i libucrt:output.obj
 0001:000677b8       ??$read_va_arg@G@__crt_stdio_output@@YAGAAPAD@Z 100687b8 f i libucrt:output.obj
 0001:000677cf       ??$read_va_arg@H@__crt_stdio_output@@YAHAAPAD@Z 100687cf f i libucrt:output.obj
 0001:000677e5       ??$read_va_arg@I@__crt_stdio_output@@YAIAAPAD@Z 100687e5 f i libucrt:output.obj
 0001:000677fb       ??$read_va_arg@PAD@__crt_stdio_output@@YAPADAAPAD@Z 100687fb f i libucrt:output.obj
 0001:00067919       ??$read_va_arg@PAX@__crt_stdio_output@@YAPAXAAPAD@Z 10068919 f i libucrt:output.obj
 0001:0006792f       ??$read_va_arg@U_CRT_DOUBLE@@@__crt_stdio_output@@YA?AU_CRT_DOUBLE@@AAPAD@Z 1006892f f i libucrt:output.obj
 0001:0006794a       ??$read_va_arg@_J@__crt_stdio_output@@YA_JAAPAD@Z 1006894a f i libucrt:output.obj
 0001:00067964       ??$read_va_arg@_K@__crt_stdio_output@@YA_KAAPAD@Z 10068964 f i libucrt:output.obj
 0001:0006797e       ??$read_va_arg@_W@__crt_stdio_output@@YA_WAAPAD@Z 1006897e f i libucrt:output.obj
 0001:00067995       ??$scratch_count@D@formatting_buffer@__crt_stdio_output@@QBEIXZ 10068995 f i libucrt:output.obj
 0001:0006799a       ??$scratch_data@D@formatting_buffer@__crt_stdio_output@@QAEPADXZ 1006899a f i libucrt:output.obj
 0001:000679bf       ??$tcstol@AAPBDPAPADH@?$__crt_char_traits@D@@SAJAAPBD$$QAPAPAD$$QAH@Z 100689bf f i libucrt:output.obj
 0001:000679e4       ??$tcstol@AAPB_WPAPA_WH@?$__crt_char_traits@_W@@SAJAAPB_W$$QAPAPA_W$$QAH@Z 100689e4 f i libucrt:output.obj
 0001:00067a09       ??$tcstol@PBDPAPADH@?$__crt_char_traits@D@@SAJ$$QAPBD$$QAPAPAD$$QAH@Z 10068a09 f i libucrt:output.obj
 0001:00067a2e       ??$tcstol@PB_WPAPA_WH@?$__crt_char_traits@_W@@SAJ$$QAPB_W$$QAPAPA_W$$QAH@Z 10068a2e f i libucrt:output.obj
 0001:00067a53       ??$type_case_integer_parse_into_buffer@I@?$output_processor@DV?$stream_output_adapter@D@__crt_stdio_output@@V?$format_validation_base@DV?$stream_output_adapter@D@__crt_stdio_output@@@2@@__crt_stdio_output@@AAEXII_N@Z 10068a53 f i libucrt:output.obj
 0001:00067ae2       ??$type_case_integer_parse_into_buffer@I@?$output_processor@DV?$stream_output_adapter@D@__crt_stdio_output@@V?$positional_parameter_base@DV?$stream_output_adapter@D@__crt_stdio_output@@@2@@__crt_stdio_output@@AAEXII_N@Z 10068ae2 f i libucrt:output.obj
 0001:00067b71       ??$type_case_integer_parse_into_buffer@I@?$output_processor@DV?$stream_output_adapter@D@__crt_stdio_output@@V?$standard_base@DV?$stream_output_adapter@D@__crt_stdio_output@@@2@@__crt_stdio_output@@AAEXII_N@Z 10068b71 f i libucrt:output.obj
 0001:00067c00       ??$type_case_integer_parse_into_buffer@I@?$output_processor@DV?$string_output_adapter@D@__crt_stdio_output@@V?$format_validation_base@DV?$string_output_adapter@D@__crt_stdio_output@@@2@@__crt_stdio_output@@AAEXII_N@Z 10068c00 f i libucrt:output.obj
 0001:00067c8f       ??$type_case_integer_parse_into_buffer@I@?$output_processor@DV?$string_output_adapter@D@__crt_stdio_output@@V?$positional_parameter_base@DV?$string_output_adapter@D@__crt_stdio_output@@@2@@__crt_stdio_output@@AAEXII_N@Z 10068c8f f i libucrt:output.obj
 0001:00067d1e       ??$type_case_integer_parse_into_buffer@I@?$output_processor@DV?$string_output_adapter@D@__crt_stdio_output@@V?$standard_base@DV?$string_output_adapter@D@__crt_stdio_output@@@2@@__crt_stdio_output@@AAEXII_N@Z 10068d1e f i libucrt:output.obj
 0001:00067dad       ??$type_case_integer_parse_into_buffer@I@?$output_processor@_WV?$stream_output_adapter@_W@__crt_stdio_output@@V?$format_validation_base@_WV?$stream_output_adapter@_W@__crt_stdio_output@@@2@@__crt_stdio_output@@AAEXII_N@Z 10068dad f i libucrt:output.obj
 0001:00067e4d       ??$type_case_integer_parse_into_buffer@I@?$output_processor@_WV?$stream_output_adapter@_W@__crt_stdio_output@@V?$positional_parameter_base@_WV?$stream_output_adapter@_W@__crt_stdio_output@@@2@@__crt_stdio_output@@AAEXII_N@Z 10068e4d f i libucrt:output.obj
 0001:00067eed       ??$type_case_integer_parse_into_buffer@I@?$output_processor@_WV?$stream_output_adapter@_W@__crt_stdio_output@@V?$standard_base@_WV?$stream_output_adapter@_W@__crt_stdio_output@@@2@@__crt_stdio_output@@AAEXII_N@Z 10068eed f i libucrt:output.obj
 0001:00067f8d       ??$type_case_integer_parse_into_buffer@I@?$output_processor@_WV?$string_output_adapter@_W@__crt_stdio_output@@V?$format_validation_base@_WV?$string_output_adapter@_W@__crt_stdio_output@@@2@@__crt_stdio_output@@AAEXII_N@Z 10068f8d f i libucrt:output.obj
 0001:0006802d       ??$type_case_integer_parse_into_buffer@I@?$output_processor@_WV?$string_output_adapter@_W@__crt_stdio_output@@V?$positional_parameter_base@_WV?$string_output_adapter@_W@__crt_stdio_output@@@2@@__crt_stdio_output@@AAEXII_N@Z 1006902d f i libucrt:output.obj
 0001:000680cd       ??$type_case_integer_parse_into_buffer@I@?$output_processor@_WV?$string_output_adapter@_W@__crt_stdio_output@@V?$standard_base@_WV?$string_output_adapter@_W@__crt_stdio_output@@@2@@__crt_stdio_output@@AAEXII_N@Z 100690cd f i libucrt:output.obj
 0001:0006816d       ??$type_case_integer_parse_into_buffer@_K@?$output_processor@DV?$stream_output_adapter@D@__crt_stdio_output@@V?$format_validation_base@DV?$stream_output_adapter@D@__crt_stdio_output@@@2@@__crt_stdio_output@@AAEX_KI_N@Z 1006916d f i libucrt:output.obj
 0001:0006821f       ??$type_case_integer_parse_into_buffer@_K@?$output_processor@DV?$stream_output_adapter@D@__crt_stdio_output@@V?$positional_parameter_base@DV?$stream_output_adapter@D@__crt_stdio_output@@@2@@__crt_stdio_output@@AAEX_KI_N@Z 1006921f f i libucrt:output.obj
 0001:000682d1       ??$type_case_integer_parse_into_buffer@_K@?$output_processor@DV?$stream_output_adapter@D@__crt_stdio_output@@V?$standard_base@DV?$stream_output_adapter@D@__crt_stdio_output@@@2@@__crt_stdio_output@@AAEX_KI_N@Z 100692d1 f i libucrt:output.obj
 0001:00068383       ??$type_case_integer_parse_into_buffer@_K@?$output_processor@DV?$string_output_adapter@D@__crt_stdio_output@@V?$format_validation_base@DV?$string_output_adapter@D@__crt_stdio_output@@@2@@__crt_stdio_output@@AAEX_KI_N@Z 10069383 f i libucrt:output.obj
 0001:00068435       ??$type_case_integer_parse_into_buffer@_K@?$output_processor@DV?$string_output_adapter@D@__crt_stdio_output@@V?$positional_parameter_base@DV?$string_output_adapter@D@__crt_stdio_output@@@2@@__crt_stdio_output@@AAEX_KI_N@Z 10069435 f i libucrt:output.obj
 0001:000684e7       ??$type_case_integer_parse_into_buffer@_K@?$output_processor@DV?$string_output_adapter@D@__crt_stdio_output@@V?$standard_base@DV?$string_output_adapter@D@__crt_stdio_output@@@2@@__crt_stdio_output@@AAEX_KI_N@Z 100694e7 f i libucrt:output.obj
 0001:00068599       ??$type_case_integer_parse_into_buffer@_K@?$output_processor@_WV?$stream_output_adapter@_W@__crt_stdio_output@@V?$format_validation_base@_WV?$stream_output_adapter@_W@__crt_stdio_output@@@2@@__crt_stdio_output@@AAEX_KI_N@Z 10069599 f i libucrt:output.obj
 0001:0006865c       ??$type_case_integer_parse_into_buffer@_K@?$output_processor@_WV?$stream_output_adapter@_W@__crt_stdio_output@@V?$positional_parameter_base@_WV?$stream_output_adapter@_W@__crt_stdio_output@@@2@@__crt_stdio_output@@AAEX_KI_N@Z 1006965c f i libucrt:output.obj
 0001:0006871f       ??$type_case_integer_parse_into_buffer@_K@?$output_processor@_WV?$stream_output_adapter@_W@__crt_stdio_output@@V?$standard_base@_WV?$stream_output_adapter@_W@__crt_stdio_output@@@2@@__crt_stdio_output@@AAEX_KI_N@Z 1006971f f i libucrt:output.obj
 0001:000687e2       ??$type_case_integer_parse_into_buffer@_K@?$output_processor@_WV?$string_output_adapter@_W@__crt_stdio_output@@V?$format_validation_base@_WV?$string_output_adapter@_W@__crt_stdio_output@@@2@@__crt_stdio_output@@AAEX_KI_N@Z 100697e2 f i libucrt:output.obj
 0001:000688a5       ??$type_case_integer_parse_into_buffer@_K@?$output_processor@_WV?$string_output_adapter@_W@__crt_stdio_output@@V?$positional_parameter_base@_WV?$string_output_adapter@_W@__crt_stdio_output@@@2@@__crt_stdio_output@@AAEX_KI_N@Z 100698a5 f i libucrt:output.obj
 0001:00068968       ??$type_case_integer_parse_into_buffer@_K@?$output_processor@_WV?$string_output_adapter@_W@__crt_stdio_output@@V?$standard_base@_WV?$string_output_adapter@_W@__crt_stdio_output@@@2@@__crt_stdio_output@@AAEX_KI_N@Z 10069968 f i libucrt:output.obj
 0001:00068a2b       ??$write_multiple_characters@V?$stream_output_adapter@D@__crt_stdio_output@@D@__crt_stdio_output@@YAXABV?$stream_output_adapter@D@0@DHQAH@Z 10069a2b f i libucrt:output.obj
 0001:00068a74       ??$write_multiple_characters@V?$stream_output_adapter@_W@__crt_stdio_output@@D@__crt_stdio_output@@YAXABV?$stream_output_adapter@_W@0@DHQAH@Z 10069a74 f i libucrt:output.obj
 0001:00068ac4       ??$write_multiple_characters@V?$string_output_adapter@D@__crt_stdio_output@@D@__crt_stdio_output@@YAXABV?$string_output_adapter@D@0@DHQAH@Z 10069ac4 f i libucrt:output.obj
 0001:00068afb       ??$write_multiple_characters@V?$string_output_adapter@_W@__crt_stdio_output@@D@__crt_stdio_output@@YAXABV?$string_output_adapter@_W@0@DHQAH@Z 10069afb f i libucrt:output.obj
 0001:00068d6c       ??0?$common_data@D@__crt_stdio_output@@IAE@XZ 10069d6c f i libucrt:output.obj
 0001:00068dc4       ??0?$common_data@_W@__crt_stdio_output@@IAE@XZ 10069dc4 f i libucrt:output.obj
 0001:00068e23       ??0?$output_adapter_data@DV?$stream_output_adapter@D@__crt_stdio_output@@@__crt_stdio_output@@IAE@ABV?$stream_output_adapter@D@1@_KQBDQAU__crt_locale_pointers@@QAD@Z 10069e23 f i libucrt:output.obj
 0001:00068e6e       ??0?$output_adapter_data@DV?$string_output_adapter@D@__crt_stdio_output@@@__crt_stdio_output@@IAE@ABV?$string_output_adapter@D@1@_KQBDQAU__crt_locale_pointers@@QAD@Z 10069e6e f i libucrt:output.obj
 0001:00068eb9       ??0?$output_adapter_data@_WV?$stream_output_adapter@_W@__crt_stdio_output@@@__crt_stdio_output@@IAE@ABV?$stream_output_adapter@_W@1@_KQB_WQAU__crt_locale_pointers@@QAD@Z 10069eb9 f i libucrt:output.obj
 0001:00068f04       ??0?$output_adapter_data@_WV?$string_output_adapter@_W@__crt_stdio_output@@@__crt_stdio_output@@IAE@ABV?$string_output_adapter@_W@1@_KQB_WQAU__crt_locale_pointers@@QAD@Z 10069f04 f i libucrt:output.obj
 0001:00068f4f       ??0?$output_processor@DV?$stream_output_adapter@D@__crt_stdio_output@@V?$format_validation_base@DV?$stream_output_adapter@D@__crt_stdio_output@@@2@@__crt_stdio_output@@QAE@ABV?$stream_output_adapter@D@1@_KQBDQAU__crt_locale_pointers@@QAD@Z 10069f4f f i libucrt:output.obj
 0001:00068f87       ??0?$output_processor@DV?$stream_output_adapter@D@__crt_stdio_output@@V?$positional_parameter_base@DV?$stream_output_adapter@D@__crt_stdio_output@@@2@@__crt_stdio_output@@QAE@ABV?$stream_output_adapter@D@1@_KQBDQAU__crt_locale_pointers@@QAD@Z 10069f87 f i libucrt:output.obj
 0001:00068fb7       ??0?$output_processor@DV?$stream_output_adapter@D@__crt_stdio_output@@V?$standard_base@DV?$stream_output_adapter@D@__crt_stdio_output@@@2@@__crt_stdio_output@@QAE@ABV?$stream_output_adapter@D@1@_KQBDQAU__crt_locale_pointers@@QAD@Z 10069fb7 f i libucrt:output.obj
 0001:00068fef       ??0?$output_processor@DV?$string_output_adapter@D@__crt_stdio_output@@V?$format_validation_base@DV?$string_output_adapter@D@__crt_stdio_output@@@2@@__crt_stdio_output@@QAE@ABV?$string_output_adapter@D@1@_KQBDQAU__crt_locale_pointers@@QAD@Z 10069fef f i libucrt:output.obj
 0001:00069027       ??0?$output_processor@DV?$string_output_adapter@D@__crt_stdio_output@@V?$positional_parameter_base@DV?$string_output_adapter@D@__crt_stdio_output@@@2@@__crt_stdio_output@@QAE@ABV?$string_output_adapter@D@1@_KQBDQAU__crt_locale_pointers@@QAD@Z 1006a027 f i libucrt:output.obj
 0001:00069057       ??0?$output_processor@DV?$string_output_adapter@D@__crt_stdio_output@@V?$standard_base@DV?$string_output_adapter@D@__crt_stdio_output@@@2@@__crt_stdio_output@@QAE@ABV?$string_output_adapter@D@1@_KQBDQAU__crt_locale_pointers@@QAD@Z 1006a057 f i libucrt:output.obj
 0001:0006908f       ??0?$output_processor@_WV?$stream_output_adapter@_W@__crt_stdio_output@@V?$format_validation_base@_WV?$stream_output_adapter@_W@__crt_stdio_output@@@2@@__crt_stdio_output@@QAE@ABV?$stream_output_adapter@_W@1@_KQB_WQAU__crt_locale_pointers@@QAD@Z 1006a08f f i libucrt:output.obj
 0001:000690c7       ??0?$output_processor@_WV?$stream_output_adapter@_W@__crt_stdio_output@@V?$positional_parameter_base@_WV?$stream_output_adapter@_W@__crt_stdio_output@@@2@@__crt_stdio_output@@QAE@ABV?$stream_output_adapter@_W@1@_KQB_WQAU__crt_locale_pointers@@QAD@Z 1006a0c7 f i libucrt:output.obj
 0001:000690f7       ??0?$output_processor@_WV?$stream_output_adapter@_W@__crt_stdio_output@@V?$standard_base@_WV?$stream_output_adapter@_W@__crt_stdio_output@@@2@@__crt_stdio_output@@QAE@ABV?$stream_output_adapter@_W@1@_KQB_WQAU__crt_locale_pointers@@QAD@Z 1006a0f7 f i libucrt:output.obj
 0001:0006912f       ??0?$output_processor@_WV?$string_output_adapter@_W@__crt_stdio_output@@V?$format_validation_base@_WV?$string_output_adapter@_W@__crt_stdio_output@@@2@@__crt_stdio_output@@QAE@ABV?$string_output_adapter@_W@1@_KQB_WQAU__crt_locale_pointers@@QAD@Z 1006a12f f i libucrt:output.obj
 0001:00069167       ??0?$output_processor@_WV?$string_output_adapter@_W@__crt_stdio_output@@V?$positional_parameter_base@_WV?$string_output_adapter@_W@__crt_stdio_output@@@2@@__crt_stdio_output@@QAE@ABV?$string_output_adapter@_W@1@_KQB_WQAU__crt_locale_pointers@@QAD@Z 1006a167 f i libucrt:output.obj
 0001:00069197       ??0?$output_processor@_WV?$string_output_adapter@_W@__crt_stdio_output@@V?$standard_base@_WV?$string_output_adapter@_W@__crt_stdio_output@@@2@@__crt_stdio_output@@QAE@ABV?$string_output_adapter@_W@1@_KQB_WQAU__crt_locale_pointers@@QAD@Z 1006a197 f i libucrt:output.obj
 0001:000691cf       ??0?$stream_output_adapter@D@__crt_stdio_output@@QAE@QAU_iobuf@@@Z 1006a1cf f i libucrt:output.obj
 0001:000691e3       ??0?$stream_output_adapter@_W@__crt_stdio_output@@QAE@QAU_iobuf@@@Z 1006a1e3 f i libucrt:output.obj
 0001:000691f7       ??0?$string_output_adapter@D@__crt_stdio_output@@QAE@QAU?$string_output_adapter_context@D@1@@Z 1006a1f7 f i libucrt:output.obj
 0001:0006920b       ??0?$string_output_adapter@_W@__crt_stdio_output@@QAE@QAU?$string_output_adapter_context@_W@1@@Z 1006a20b f i libucrt:output.obj
 0001:0006921f       ??0_LocaleUpdate@@QAE@QAU__crt_locale_pointers@@@Z 1006a21f f i libucrt:output.obj
 0001:000692c2       ??0__acrt_stdio_temporary_buffering_guard@@QAE@QAU_iobuf@@@Z 1006a2c2 f i libucrt:output.obj
 0001:000692e7       ??0__crt_deferred_errno_cache@@QAE@XZ 1006a2e7 f i libucrt:output.obj
 0001:000692ed       ??0__crt_errno_guard@@QAE@QAH@Z 1006a2ed f i libucrt:output.obj
 0001:0006930b       ??0formatting_buffer@__crt_stdio_output@@QAE@XZ 1006a30b f i libucrt:output.obj
 0001:00069320       ??1?$common_data@D@__crt_stdio_output@@QAE@XZ 1006a320 f i libucrt:output.obj
 0001:0006932a       ??1?$common_data@_W@__crt_stdio_output@@QAE@XZ 1006a32a f i libucrt:output.obj
 0001:00069334       ??1?$format_validation_base@DV?$stream_output_adapter@D@__crt_stdio_output@@@__crt_stdio_output@@QAE@XZ 1006a334 f i libucrt:output.obj
 0001:0006933e       ??1?$format_validation_base@DV?$string_output_adapter@D@__crt_stdio_output@@@__crt_stdio_output@@QAE@XZ 1006a33e f i libucrt:output.obj
 0001:00069348       ??1?$format_validation_base@_WV?$stream_output_adapter@_W@__crt_stdio_output@@@__crt_stdio_output@@QAE@XZ 1006a348 f i libucrt:output.obj
 0001:00069352       ??1?$format_validation_base@_WV?$string_output_adapter@_W@__crt_stdio_output@@@__crt_stdio_output@@QAE@XZ 1006a352 f i libucrt:output.obj
 0001:0006935c       ??1?$output_adapter_data@DV?$stream_output_adapter@D@__crt_stdio_output@@@__crt_stdio_output@@QAE@XZ 1006a35c f i libucrt:output.obj
 0001:00069366       ??1?$output_adapter_data@DV?$string_output_adapter@D@__crt_stdio_output@@@__crt_stdio_output@@QAE@XZ 1006a366 f i libucrt:output.obj
 0001:00069370       ??1?$output_adapter_data@_WV?$stream_output_adapter@_W@__crt_stdio_output@@@__crt_stdio_output@@QAE@XZ 1006a370 f i libucrt:output.obj
 0001:0006937a       ??1?$output_adapter_data@_WV?$string_output_adapter@_W@__crt_stdio_output@@@__crt_stdio_output@@QAE@XZ 1006a37a f i libucrt:output.obj
 0001:00069384       ??1?$output_processor@DV?$stream_output_adapter@D@__crt_stdio_output@@V?$format_validation_base@DV?$stream_output_adapter@D@__crt_stdio_output@@@2@@__crt_stdio_output@@QAE@XZ 1006a384 f i libucrt:output.obj
 0001:0006938e       ??1?$output_processor@DV?$stream_output_adapter@D@__crt_stdio_output@@V?$positional_parameter_base@DV?$stream_output_adapter@D@__crt_stdio_output@@@2@@__crt_stdio_output@@QAE@XZ 1006a38e f i libucrt:output.obj
 0001:00069398       ??1?$output_processor@DV?$stream_output_adapter@D@__crt_stdio_output@@V?$standard_base@DV?$stream_output_adapter@D@__crt_stdio_output@@@2@@__crt_stdio_output@@QAE@XZ 1006a398 f i libucrt:output.obj
 0001:000693a2       ??1?$output_processor@DV?$string_output_adapter@D@__crt_stdio_output@@V?$format_validation_base@DV?$string_output_adapter@D@__crt_stdio_output@@@2@@__crt_stdio_output@@QAE@XZ 1006a3a2 f i libucrt:output.obj
 0001:000693ac       ??1?$output_processor@DV?$string_output_adapter@D@__crt_stdio_output@@V?$positional_parameter_base@DV?$string_output_adapter@D@__crt_stdio_output@@@2@@__crt_stdio_output@@QAE@XZ 1006a3ac f i libucrt:output.obj
 0001:000693b6       ??1?$output_processor@DV?$string_output_adapter@D@__crt_stdio_output@@V?$standard_base@DV?$string_output_adapter@D@__crt_stdio_output@@@2@@__crt_stdio_output@@QAE@XZ 1006a3b6 f i libucrt:output.obj
 0001:000693c0       ??1?$output_processor@_WV?$stream_output_adapter@_W@__crt_stdio_output@@V?$format_validation_base@_WV?$stream_output_adapter@_W@__crt_stdio_output@@@2@@__crt_stdio_output@@QAE@XZ 1006a3c0 f i libucrt:output.obj
 0001:000693ca       ??1?$output_processor@_WV?$stream_output_adapter@_W@__crt_stdio_output@@V?$positional_parameter_base@_WV?$stream_output_adapter@_W@__crt_stdio_output@@@2@@__crt_stdio_output@@QAE@XZ 1006a3ca f i libucrt:output.obj
 0001:000693d4       ??1?$output_processor@_WV?$stream_output_adapter@_W@__crt_stdio_output@@V?$standard_base@_WV?$stream_output_adapter@_W@__crt_stdio_output@@@2@@__crt_stdio_output@@QAE@XZ 1006a3d4 f i libucrt:output.obj
 0001:000693de       ??1?$output_processor@_WV?$string_output_adapter@_W@__crt_stdio_output@@V?$format_validation_base@_WV?$string_output_adapter@_W@__crt_stdio_output@@@2@@__crt_stdio_output@@QAE@XZ 1006a3de f i libucrt:output.obj
 0001:000693e8       ??1?$output_processor@_WV?$string_output_adapter@_W@__crt_stdio_output@@V?$positional_parameter_base@_WV?$string_output_adapter@_W@__crt_stdio_output@@@2@@__crt_stdio_output@@QAE@XZ 1006a3e8 f i libucrt:output.obj
 0001:000693f2       ??1?$output_processor@_WV?$string_output_adapter@_W@__crt_stdio_output@@V?$standard_base@_WV?$string_output_adapter@_W@__crt_stdio_output@@@2@@__crt_stdio_output@@QAE@XZ 1006a3f2 f i libucrt:output.obj
 0001:000693fc       ??1?$positional_parameter_base@DV?$stream_output_adapter@D@__crt_stdio_output@@@__crt_stdio_output@@QAE@XZ 1006a3fc f i libucrt:output.obj
 0001:00069406       ??1?$positional_parameter_base@DV?$string_output_adapter@D@__crt_stdio_output@@@__crt_stdio_output@@QAE@XZ 1006a406 f i libucrt:output.obj
 0001:00069410       ??1?$positional_parameter_base@_WV?$stream_output_adapter@_W@__crt_stdio_output@@@__crt_stdio_output@@QAE@XZ 1006a410 f i libucrt:output.obj
 0001:0006941a       ??1?$positional_parameter_base@_WV?$string_output_adapter@_W@__crt_stdio_output@@@__crt_stdio_output@@QAE@XZ 1006a41a f i libucrt:output.obj
 0001:00069424       ??1?$standard_base@DV?$stream_output_adapter@D@__crt_stdio_output@@@__crt_stdio_output@@QAE@XZ 1006a424 f i libucrt:output.obj
 0001:0006942e       ??1?$standard_base@DV?$string_output_adapter@D@__crt_stdio_output@@@__crt_stdio_output@@QAE@XZ 1006a42e f i libucrt:output.obj
 0001:00069438       ??1?$standard_base@_WV?$stream_output_adapter@_W@__crt_stdio_output@@@__crt_stdio_output@@QAE@XZ 1006a438 f i libucrt:output.obj
 0001:00069442       ??1?$standard_base@_WV?$string_output_adapter@_W@__crt_stdio_output@@@__crt_stdio_output@@QAE@XZ 1006a442 f i libucrt:output.obj
 0001:0006944c       ??1_LocaleUpdate@@QAE@XZ   1006a44c f i libucrt:output.obj
 0001:00069460       ??1__acrt_stdio_temporary_buffering_guard@@QAE@XZ 1006a460 f i libucrt:output.obj
 0001:00069472       ??1__crt_errno_guard@@QAE@XZ 1006a472 f i libucrt:output.obj
 0001:00069487       ??1formatting_buffer@__crt_stdio_output@@QAE@XZ 1006a487 f i libucrt:output.obj
 0001:000694a7       ??4?$__crt_unique_heap_ptr@DU__crt_internal_free_policy@@@@QAEAAV0@$$QAV0@@Z 1006a4a7 f i libucrt:output.obj
 0001:00069b82       ?GetLocaleT@_LocaleUpdate@@QAEPAU__crt_locale_pointers@@XZ 1006ab82 f i libucrt:output.obj
 0001:00069b86       ?adjust_hexit@?$output_processor@DV?$stream_output_adapter@D@__crt_stdio_output@@V?$format_validation_base@DV?$stream_output_adapter@D@__crt_stdio_output@@@2@@__crt_stdio_output@@CADH_N@Z 1006ab86 f i libucrt:output.obj
 0001:00069b9f       ?adjust_hexit@?$output_processor@DV?$stream_output_adapter@D@__crt_stdio_output@@V?$positional_parameter_base@DV?$stream_output_adapter@D@__crt_stdio_output@@@2@@__crt_stdio_output@@CADH_N@Z 1006ab9f f i libucrt:output.obj
 0001:00069bb8       ?adjust_hexit@?$output_processor@DV?$stream_output_adapter@D@__crt_stdio_output@@V?$standard_base@DV?$stream_output_adapter@D@__crt_stdio_output@@@2@@__crt_stdio_output@@CADH_N@Z 1006abb8 f i libucrt:output.obj
 0001:00069bd1       ?adjust_hexit@?$output_processor@DV?$string_output_adapter@D@__crt_stdio_output@@V?$format_validation_base@DV?$string_output_adapter@D@__crt_stdio_output@@@2@@__crt_stdio_output@@CADH_N@Z 1006abd1 f i libucrt:output.obj
 0001:00069bea       ?adjust_hexit@?$output_processor@DV?$string_output_adapter@D@__crt_stdio_output@@V?$positional_parameter_base@DV?$string_output_adapter@D@__crt_stdio_output@@@2@@__crt_stdio_output@@CADH_N@Z 1006abea f i libucrt:output.obj
 0001:00069c03       ?adjust_hexit@?$output_processor@DV?$string_output_adapter@D@__crt_stdio_output@@V?$standard_base@DV?$string_output_adapter@D@__crt_stdio_output@@@2@@__crt_stdio_output@@CADH_N@Z 1006ac03 f i libucrt:output.obj
 0001:00069c1c       ?adjust_hexit@?$output_processor@_WV?$stream_output_adapter@_W@__crt_stdio_output@@V?$format_validation_base@_WV?$stream_output_adapter@_W@__crt_stdio_output@@@2@@__crt_stdio_output@@CADH_N@Z 1006ac1c f i libucrt:output.obj
 0001:00069c35       ?adjust_hexit@?$output_processor@_WV?$stream_output_adapter@_W@__crt_stdio_output@@V?$positional_parameter_base@_WV?$stream_output_adapter@_W@__crt_stdio_output@@@2@@__crt_stdio_output@@CADH_N@Z 1006ac35 f i libucrt:output.obj
 0001:00069c4e       ?adjust_hexit@?$output_processor@_WV?$stream_output_adapter@_W@__crt_stdio_output@@V?$standard_base@_WV?$stream_output_adapter@_W@__crt_stdio_output@@@2@@__crt_stdio_output@@CADH_N@Z 1006ac4e f i libucrt:output.obj
 0001:00069c67       ?adjust_hexit@?$output_processor@_WV?$string_output_adapter@_W@__crt_stdio_output@@V?$format_validation_base@_WV?$string_output_adapter@_W@__crt_stdio_output@@@2@@__crt_stdio_output@@CADH_N@Z 1006ac67 f i libucrt:output.obj
 0001:00069c80       ?adjust_hexit@?$output_processor@_WV?$string_output_adapter@_W@__crt_stdio_output@@V?$positional_parameter_base@_WV?$string_output_adapter@_W@__crt_stdio_output@@@2@@__crt_stdio_output@@CADH_N@Z 1006ac80 f i libucrt:output.obj
 0001:00069c99       ?adjust_hexit@?$output_processor@_WV?$string_output_adapter@_W@__crt_stdio_output@@V?$standard_base@_WV?$string_output_adapter@_W@__crt_stdio_output@@@2@@__crt_stdio_output@@CADH_N@Z 1006ac99 f i libucrt:output.obj
 0001:00069cb2       ?advance_to_next_pass@?$positional_parameter_base@DV?$stream_output_adapter@D@__crt_stdio_output@@@__crt_stdio_output@@IAE_NXZ 1006acb2 f i libucrt:output.obj
 0001:00069d11       ?advance_to_next_pass@?$positional_parameter_base@DV?$string_output_adapter@D@__crt_stdio_output@@@__crt_stdio_output@@IAE_NXZ 1006ad11 f i libucrt:output.obj
 0001:00069d70       ?advance_to_next_pass@?$positional_parameter_base@_WV?$stream_output_adapter@_W@__crt_stdio_output@@@__crt_stdio_output@@IAE_NXZ 1006ad70 f i libucrt:output.obj
 0001:00069dcf       ?advance_to_next_pass@?$positional_parameter_base@_WV?$string_output_adapter@_W@__crt_stdio_output@@@__crt_stdio_output@@IAE_NXZ 1006adcf f i libucrt:output.obj
 0001:00069e2e       ?advance_to_next_pass@?$standard_base@DV?$stream_output_adapter@D@__crt_stdio_output@@@__crt_stdio_output@@IAE_NXZ 1006ae2e f i libucrt:output.obj
 0001:00069e43       ?advance_to_next_pass@?$standard_base@DV?$string_output_adapter@D@__crt_stdio_output@@@__crt_stdio_output@@IAE_NXZ 1006ae43 f i libucrt:output.obj
 0001:00069e58       ?advance_to_next_pass@?$standard_base@_WV?$stream_output_adapter@_W@__crt_stdio_output@@@__crt_stdio_output@@IAE_NXZ 1006ae58 f i libucrt:output.obj
 0001:00069e6d       ?advance_to_next_pass@?$standard_base@_WV?$string_output_adapter@_W@__crt_stdio_output@@@__crt_stdio_output@@IAE_NXZ 1006ae6d f i libucrt:output.obj
 0001:00069e82       ?crop_zeroes@__crt_stdio_output@@YAXPADQAU__crt_locale_pointers@@@Z 1006ae82 f i libucrt:output.obj
 0001:00069efa       ?find_next_state@?$output_processor@DV?$stream_output_adapter@D@__crt_stdio_output@@V?$format_validation_base@DV?$stream_output_adapter@D@__crt_stdio_output@@@2@@__crt_stdio_output@@ABE?AW4state@2@DW432@@Z 1006aefa f i libucrt:output.obj
 0001:00069f4c       ?find_next_state@?$output_processor@DV?$stream_output_adapter@D@__crt_stdio_output@@V?$positional_parameter_base@DV?$stream_output_adapter@D@__crt_stdio_output@@@2@@__crt_stdio_output@@ABE?AW4state@2@DW432@@Z 1006af4c f i libucrt:output.obj
 0001:00069f9e       ?find_next_state@?$output_processor@DV?$stream_output_adapter@D@__crt_stdio_output@@V?$standard_base@DV?$stream_output_adapter@D@__crt_stdio_output@@@2@@__crt_stdio_output@@ABE?AW4state@2@DW432@@Z 1006af9e f i libucrt:output.obj
 0001:00069fec       ?find_next_state@?$output_processor@DV?$string_output_adapter@D@__crt_stdio_output@@V?$format_validation_base@DV?$string_output_adapter@D@__crt_stdio_output@@@2@@__crt_stdio_output@@ABE?AW4state@2@DW432@@Z 1006afec f i libucrt:output.obj
 0001:0006a03e       ?find_next_state@?$output_processor@DV?$string_output_adapter@D@__crt_stdio_output@@V?$positional_parameter_base@DV?$string_output_adapter@D@__crt_stdio_output@@@2@@__crt_stdio_output@@ABE?AW4state@2@DW432@@Z 1006b03e f i libucrt:output.obj
 0001:0006a090       ?find_next_state@?$output_processor@DV?$string_output_adapter@D@__crt_stdio_output@@V?$standard_base@DV?$string_output_adapter@D@__crt_stdio_output@@@2@@__crt_stdio_output@@ABE?AW4state@2@DW432@@Z 1006b090 f i libucrt:output.obj
 0001:0006a0de       ?find_next_state@?$output_processor@_WV?$stream_output_adapter@_W@__crt_stdio_output@@V?$format_validation_base@_WV?$stream_output_adapter@_W@__crt_stdio_output@@@2@@__crt_stdio_output@@ABE?AW4state@2@_WW432@@Z 1006b0de f i libucrt:output.obj
 0001:0006a133       ?find_next_state@?$output_processor@_WV?$stream_output_adapter@_W@__crt_stdio_output@@V?$positional_parameter_base@_WV?$stream_output_adapter@_W@__crt_stdio_output@@@2@@__crt_stdio_output@@ABE?AW4state@2@_WW432@@Z 1006b133 f i libucrt:output.obj
 0001:0006a188       ?find_next_state@?$output_processor@_WV?$stream_output_adapter@_W@__crt_stdio_output@@V?$standard_base@_WV?$stream_output_adapter@_W@__crt_stdio_output@@@2@@__crt_stdio_output@@ABE?AW4state@2@_WW432@@Z 1006b188 f i libucrt:output.obj
 0001:0006a1d9       ?find_next_state@?$output_processor@_WV?$string_output_adapter@_W@__crt_stdio_output@@V?$format_validation_base@_WV?$string_output_adapter@_W@__crt_stdio_output@@@2@@__crt_stdio_output@@ABE?AW4state@2@_WW432@@Z 1006b1d9 f i libucrt:output.obj
 0001:0006a22e       ?find_next_state@?$output_processor@_WV?$string_output_adapter@_W@__crt_stdio_output@@V?$positional_parameter_base@_WV?$string_output_adapter@_W@__crt_stdio_output@@@2@@__crt_stdio_output@@ABE?AW4state@2@_WW432@@Z 1006b22e f i libucrt:output.obj
 0001:0006a283       ?find_next_state@?$output_processor@_WV?$string_output_adapter@_W@__crt_stdio_output@@V?$standard_base@_WV?$string_output_adapter@_W@__crt_stdio_output@@@2@@__crt_stdio_output@@ABE?AW4state@2@_WW432@@Z 1006b283 f i libucrt:output.obj
 0001:0006a2d4       ?force_decimal_point@__crt_stdio_output@@YAXPADQAU__crt_locale_pointers@@@Z 1006b2d4 f i libucrt:output.obj
 0001:0006a347       ?get@__crt_deferred_errno_cache@@QAEAAHXZ 1006b347 f i libucrt:output.obj
 0001:0006a360       ?get_flags@__crt_stdio_stream@@QBEJXZ 1006b360 f i libucrt:output.obj
 0001:0006a366       ?get_parameter_type@?$positional_parameter_base@DV?$stream_output_adapter@D@__crt_stdio_output@@@__crt_stdio_output@@CA?AW4parameter_type@12@F@Z 1006b366 f i libucrt:output.obj
 0001:0006a36a       ?get_parameter_type@?$positional_parameter_base@DV?$stream_output_adapter@D@__crt_stdio_output@@@__crt_stdio_output@@CA?AW4parameter_type@12@G@Z 1006b36a f i libucrt:output.obj
 0001:0006a36e       ?get_parameter_type@?$positional_parameter_base@DV?$stream_output_adapter@D@__crt_stdio_output@@@__crt_stdio_output@@CA?AW4parameter_type@12@H@Z 1006b36e f i libucrt:output.obj
 0001:0006a372       ?get_parameter_type@?$positional_parameter_base@DV?$stream_output_adapter@D@__crt_stdio_output@@@__crt_stdio_output@@CA?AW4parameter_type@12@I@Z 1006b372 f i libucrt:output.obj
 0001:0006a376       ?get_parameter_type@?$positional_parameter_base@DV?$stream_output_adapter@D@__crt_stdio_output@@@__crt_stdio_output@@CA?AW4parameter_type@12@U_CRT_DOUBLE@@@Z 1006b376 f i libucrt:output.obj
 0001:0006a37a       ?get_parameter_type@?$positional_parameter_base@DV?$stream_output_adapter@D@__crt_stdio_output@@@__crt_stdio_output@@CA?AW4parameter_type@12@_J@Z 1006b37a f i libucrt:output.obj
 0001:0006a37e       ?get_parameter_type@?$positional_parameter_base@DV?$stream_output_adapter@D@__crt_stdio_output@@@__crt_stdio_output@@CA?AW4parameter_type@12@_K@Z 1006b37e f i libucrt:output.obj
 0001:0006a382       ?get_parameter_type@?$positional_parameter_base@DV?$stream_output_adapter@D@__crt_stdio_output@@@__crt_stdio_output@@CA?AW4parameter_type@12@_W@Z 1006b382 f i libucrt:output.obj
 0001:0006a386       ?get_parameter_type@?$positional_parameter_base@DV?$string_output_adapter@D@__crt_stdio_output@@@__crt_stdio_output@@CA?AW4parameter_type@12@F@Z 1006b386 f i libucrt:output.obj
 0001:0006a38a       ?get_parameter_type@?$positional_parameter_base@DV?$string_output_adapter@D@__crt_stdio_output@@@__crt_stdio_output@@CA?AW4parameter_type@12@G@Z 1006b38a f i libucrt:output.obj
 0001:0006a38e       ?get_parameter_type@?$positional_parameter_base@DV?$string_output_adapter@D@__crt_stdio_output@@@__crt_stdio_output@@CA?AW4parameter_type@12@H@Z 1006b38e f i libucrt:output.obj
 0001:0006a392       ?get_parameter_type@?$positional_parameter_base@DV?$string_output_adapter@D@__crt_stdio_output@@@__crt_stdio_output@@CA?AW4parameter_type@12@I@Z 1006b392 f i libucrt:output.obj
 0001:0006a396       ?get_parameter_type@?$positional_parameter_base@DV?$string_output_adapter@D@__crt_stdio_output@@@__crt_stdio_output@@CA?AW4parameter_type@12@U_CRT_DOUBLE@@@Z 1006b396 f i libucrt:output.obj
 0001:0006a39a       ?get_parameter_type@?$positional_parameter_base@DV?$string_output_adapter@D@__crt_stdio_output@@@__crt_stdio_output@@CA?AW4parameter_type@12@_J@Z 1006b39a f i libucrt:output.obj
 0001:0006a39e       ?get_parameter_type@?$positional_parameter_base@DV?$string_output_adapter@D@__crt_stdio_output@@@__crt_stdio_output@@CA?AW4parameter_type@12@_K@Z 1006b39e f i libucrt:output.obj
 0001:0006a3a2       ?get_parameter_type@?$positional_parameter_base@DV?$string_output_adapter@D@__crt_stdio_output@@@__crt_stdio_output@@CA?AW4parameter_type@12@_W@Z 1006b3a2 f i libucrt:output.obj
 0001:0006a3a6       ?get_parameter_type@?$positional_parameter_base@_WV?$stream_output_adapter@_W@__crt_stdio_output@@@__crt_stdio_output@@CA?AW4parameter_type@12@F@Z 1006b3a6 f i libucrt:output.obj
 0001:0006a3aa       ?get_parameter_type@?$positional_parameter_base@_WV?$stream_output_adapter@_W@__crt_stdio_output@@@__crt_stdio_output@@CA?AW4parameter_type@12@G@Z 1006b3aa f i libucrt:output.obj
 0001:0006a3ae       ?get_parameter_type@?$positional_parameter_base@_WV?$stream_output_adapter@_W@__crt_stdio_output@@@__crt_stdio_output@@CA?AW4parameter_type@12@H@Z 1006b3ae f i libucrt:output.obj
 0001:0006a3b2       ?get_parameter_type@?$positional_parameter_base@_WV?$stream_output_adapter@_W@__crt_stdio_output@@@__crt_stdio_output@@CA?AW4parameter_type@12@I@Z 1006b3b2 f i libucrt:output.obj
 0001:0006a3b6       ?get_parameter_type@?$positional_parameter_base@_WV?$stream_output_adapter@_W@__crt_stdio_output@@@__crt_stdio_output@@CA?AW4parameter_type@12@U_CRT_DOUBLE@@@Z 1006b3b6 f i libucrt:output.obj
 0001:0006a3ba       ?get_parameter_type@?$positional_parameter_base@_WV?$stream_output_adapter@_W@__crt_stdio_output@@@__crt_stdio_output@@CA?AW4parameter_type@12@_J@Z 1006b3ba f i libucrt:output.obj
 0001:0006a3be       ?get_parameter_type@?$positional_parameter_base@_WV?$stream_output_adapter@_W@__crt_stdio_output@@@__crt_stdio_output@@CA?AW4parameter_type@12@_K@Z 1006b3be f i libucrt:output.obj
 0001:0006a3c2       ?get_parameter_type@?$positional_parameter_base@_WV?$stream_output_adapter@_W@__crt_stdio_output@@@__crt_stdio_output@@CA?AW4parameter_type@12@_W@Z 1006b3c2 f i libucrt:output.obj
 0001:0006a3c6       ?get_parameter_type@?$positional_parameter_base@_WV?$string_output_adapter@_W@__crt_stdio_output@@@__crt_stdio_output@@CA?AW4parameter_type@12@F@Z 1006b3c6 f i libucrt:output.obj
 0001:0006a3ca       ?get_parameter_type@?$positional_parameter_base@_WV?$string_output_adapter@_W@__crt_stdio_output@@@__crt_stdio_output@@CA?AW4parameter_type@12@G@Z 1006b3ca f i libucrt:output.obj
 0001:0006a3ce       ?get_parameter_type@?$positional_parameter_base@_WV?$string_output_adapter@_W@__crt_stdio_output@@@__crt_stdio_output@@CA?AW4parameter_type@12@H@Z 1006b3ce f i libucrt:output.obj
 0001:0006a3d2       ?get_parameter_type@?$positional_parameter_base@_WV?$string_output_adapter@_W@__crt_stdio_output@@@__crt_stdio_output@@CA?AW4parameter_type@12@I@Z 1006b3d2 f i libucrt:output.obj
 0001:0006a3d6       ?get_parameter_type@?$positional_parameter_base@_WV?$string_output_adapter@_W@__crt_stdio_output@@@__crt_stdio_output@@CA?AW4parameter_type@12@U_CRT_DOUBLE@@@Z 1006b3d6 f i libucrt:output.obj
 0001:0006a3da       ?get_parameter_type@?$positional_parameter_base@_WV?$string_output_adapter@_W@__crt_stdio_output@@@__crt_stdio_output@@CA?AW4parameter_type@12@_J@Z 1006b3da f i libucrt:output.obj
 0001:0006a3de       ?get_parameter_type@?$positional_parameter_base@_WV?$string_output_adapter@_W@__crt_stdio_output@@@__crt_stdio_output@@CA?AW4parameter_type@12@_K@Z 1006b3de f i libucrt:output.obj
 0001:0006a3e2       ?get_parameter_type@?$positional_parameter_base@_WV?$string_output_adapter@_W@__crt_stdio_output@@@__crt_stdio_output@@CA?AW4parameter_type@12@_W@Z 1006b3e2 f i libucrt:output.obj
 0001:0006a3e6       ?has_flag@?$output_processor@DV?$stream_output_adapter@D@__crt_stdio_output@@V?$format_validation_base@DV?$stream_output_adapter@D@__crt_stdio_output@@@2@@__crt_stdio_output@@ABE_NI@Z 1006b3e6 f i libucrt:output.obj
 0001:0006a3fc       ?has_flag@?$output_processor@DV?$stream_output_adapter@D@__crt_stdio_output@@V?$positional_parameter_base@DV?$stream_output_adapter@D@__crt_stdio_output@@@2@@__crt_stdio_output@@ABE_NI@Z 1006b3fc f i libucrt:output.obj
 0001:0006a412       ?has_flag@?$output_processor@DV?$stream_output_adapter@D@__crt_stdio_output@@V?$standard_base@DV?$stream_output_adapter@D@__crt_stdio_output@@@2@@__crt_stdio_output@@ABE_NI@Z 1006b412 f i libucrt:output.obj
 0001:0006a428       ?has_flag@?$output_processor@DV?$string_output_adapter@D@__crt_stdio_output@@V?$format_validation_base@DV?$string_output_adapter@D@__crt_stdio_output@@@2@@__crt_stdio_output@@ABE_NI@Z 1006b428 f i libucrt:output.obj
 0001:0006a43e       ?has_flag@?$output_processor@DV?$string_output_adapter@D@__crt_stdio_output@@V?$positional_parameter_base@DV?$string_output_adapter@D@__crt_stdio_output@@@2@@__crt_stdio_output@@ABE_NI@Z 1006b43e f i libucrt:output.obj
 0001:0006a454       ?has_flag@?$output_processor@DV?$string_output_adapter@D@__crt_stdio_output@@V?$standard_base@DV?$string_output_adapter@D@__crt_stdio_output@@@2@@__crt_stdio_output@@ABE_NI@Z 1006b454 f i libucrt:output.obj
 0001:0006a46a       ?has_flag@?$output_processor@_WV?$stream_output_adapter@_W@__crt_stdio_output@@V?$format_validation_base@_WV?$stream_output_adapter@_W@__crt_stdio_output@@@2@@__crt_stdio_output@@ABE_NI@Z 1006b46a f i libucrt:output.obj
 0001:0006a480       ?has_flag@?$output_processor@_WV?$stream_output_adapter@_W@__crt_stdio_output@@V?$positional_parameter_base@_WV?$stream_output_adapter@_W@__crt_stdio_output@@@2@@__crt_stdio_output@@ABE_NI@Z 1006b480 f i libucrt:output.obj
 0001:0006a496       ?has_flag@?$output_processor@_WV?$stream_output_adapter@_W@__crt_stdio_output@@V?$standard_base@_WV?$stream_output_adapter@_W@__crt_stdio_output@@@2@@__crt_stdio_output@@ABE_NI@Z 1006b496 f i libucrt:output.obj
 0001:0006a4ac       ?has_flag@?$output_processor@_WV?$string_output_adapter@_W@__crt_stdio_output@@V?$format_validation_base@_WV?$string_output_adapter@_W@__crt_stdio_output@@@2@@__crt_stdio_output@@ABE_NI@Z 1006b4ac f i libucrt:output.obj
 0001:0006a4c2       ?has_flag@?$output_processor@_WV?$string_output_adapter@_W@__crt_stdio_output@@V?$positional_parameter_base@_WV?$string_output_adapter@_W@__crt_stdio_output@@@2@@__crt_stdio_output@@ABE_NI@Z 1006b4c2 f i libucrt:output.obj
 0001:0006a4d8       ?has_flag@?$output_processor@_WV?$string_output_adapter@_W@__crt_stdio_output@@V?$standard_base@_WV?$string_output_adapter@_W@__crt_stdio_output@@@2@@__crt_stdio_output@@ABE_NI@Z 1006b4d8 f i libucrt:output.obj
 0001:0006a4ee       ?is_positional_parameter_reappearance_consistent@?$positional_parameter_base@DV?$stream_output_adapter@D@__crt_stdio_output@@@__crt_stdio_output@@AAE_NABUparameter_data@12@W4parameter_type@12@DW4length_modifier@2@@Z 1006b4ee f i libucrt:output.obj
 0001:0006a64e       ?is_positional_parameter_reappearance_consistent@?$positional_parameter_base@DV?$string_output_adapter@D@__crt_stdio_output@@@__crt_stdio_output@@AAE_NABUparameter_data@12@W4parameter_type@12@DW4length_modifier@2@@Z 1006b64e f i libucrt:output.obj
 0001:0006a7ae       ?is_positional_parameter_reappearance_consistent@?$positional_parameter_base@_WV?$stream_output_adapter@_W@__crt_stdio_output@@@__crt_stdio_output@@AAE_NABUparameter_data@12@W4parameter_type@12@_WW4length_modifier@2@@Z 1006b7ae f i libucrt:output.obj
 0001:0006a90d       ?is_positional_parameter_reappearance_consistent@?$positional_parameter_base@_WV?$string_output_adapter@_W@__crt_stdio_output@@@__crt_stdio_output@@AAE_NABUparameter_data@12@W4parameter_type@12@_WW4length_modifier@2@@Z 1006b90d f i libucrt:output.obj
 0001:0006aa6c       ?is_string_backed@__crt_stdio_stream@@QBE_NXZ 1006ba6c f i libucrt:output.obj
 0001:0006aa79       ?narrow_null_string@?$output_processor@DV?$stream_output_adapter@D@__crt_stdio_output@@V?$format_validation_base@DV?$stream_output_adapter@D@__crt_stdio_output@@@2@@__crt_stdio_output@@CAPADXZ 1006ba79 f i libucrt:output.obj
 0001:0006aa7f       ?narrow_null_string@?$output_processor@DV?$stream_output_adapter@D@__crt_stdio_output@@V?$positional_parameter_base@DV?$stream_output_adapter@D@__crt_stdio_output@@@2@@__crt_stdio_output@@CAPADXZ 1006ba7f f i libucrt:output.obj
 0001:0006aa85       ?narrow_null_string@?$output_processor@DV?$stream_output_adapter@D@__crt_stdio_output@@V?$standard_base@DV?$stream_output_adapter@D@__crt_stdio_output@@@2@@__crt_stdio_output@@CAPADXZ 1006ba85 f i libucrt:output.obj
 0001:0006aa8b       ?narrow_null_string@?$output_processor@DV?$string_output_adapter@D@__crt_stdio_output@@V?$format_validation_base@DV?$string_output_adapter@D@__crt_stdio_output@@@2@@__crt_stdio_output@@CAPADXZ 1006ba8b f i libucrt:output.obj
 0001:0006aa91       ?narrow_null_string@?$output_processor@DV?$string_output_adapter@D@__crt_stdio_output@@V?$positional_parameter_base@DV?$string_output_adapter@D@__crt_stdio_output@@@2@@__crt_stdio_output@@CAPADXZ 1006ba91 f i libucrt:output.obj
 0001:0006aa97       ?narrow_null_string@?$output_processor@DV?$string_output_adapter@D@__crt_stdio_output@@V?$standard_base@DV?$string_output_adapter@D@__crt_stdio_output@@@2@@__crt_stdio_output@@CAPADXZ 1006ba97 f i libucrt:output.obj
 0001:0006aa9d       ?narrow_null_string@?$output_processor@_WV?$stream_output_adapter@_W@__crt_stdio_output@@V?$format_validation_base@_WV?$stream_output_adapter@_W@__crt_stdio_output@@@2@@__crt_stdio_output@@CAPADXZ 1006ba9d f i libucrt:output.obj
 0001:0006aaa3       ?narrow_null_string@?$output_processor@_WV?$stream_output_adapter@_W@__crt_stdio_output@@V?$positional_parameter_base@_WV?$stream_output_adapter@_W@__crt_stdio_output@@@2@@__crt_stdio_output@@CAPADXZ 1006baa3 f i libucrt:output.obj
 0001:0006aaa9       ?narrow_null_string@?$output_processor@_WV?$stream_output_adapter@_W@__crt_stdio_output@@V?$standard_base@_WV?$stream_output_adapter@_W@__crt_stdio_output@@@2@@__crt_stdio_output@@CAPADXZ 1006baa9 f i libucrt:output.obj
 0001:0006aaaf       ?narrow_null_string@?$output_processor@_WV?$string_output_adapter@_W@__crt_stdio_output@@V?$format_validation_base@_WV?$string_output_adapter@_W@__crt_stdio_output@@@2@@__crt_stdio_output@@CAPADXZ 1006baaf f i libucrt:output.obj
 0001:0006aab5       ?narrow_null_string@?$output_processor@_WV?$string_output_adapter@_W@__crt_stdio_output@@V?$positional_parameter_base@_WV?$string_output_adapter@_W@__crt_stdio_output@@@2@@__crt_stdio_output@@CAPADXZ 1006bab5 f i libucrt:output.obj
 0001:0006aabb       ?narrow_null_string@?$output_processor@_WV?$string_output_adapter@_W@__crt_stdio_output@@V?$standard_base@_WV?$string_output_adapter@_W@__crt_stdio_output@@@2@@__crt_stdio_output@@CAPADXZ 1006babb f i libucrt:output.obj
 0001:0006aac1       ?parse_int_from_format_string@?$output_processor@DV?$stream_output_adapter@D@__crt_stdio_output@@V?$format_validation_base@DV?$stream_output_adapter@D@__crt_stdio_output@@@2@@__crt_stdio_output@@AAE_NQAH@Z 1006bac1 f i libucrt:output.obj
 0001:0006ab54       ?parse_int_from_format_string@?$output_processor@DV?$stream_output_adapter@D@__crt_stdio_output@@V?$positional_parameter_base@DV?$stream_output_adapter@D@__crt_stdio_output@@@2@@__crt_stdio_output@@AAE_NQAH@Z 1006bb54 f i libucrt:output.obj
 0001:0006abe7       ?parse_int_from_format_string@?$output_processor@DV?$stream_output_adapter@D@__crt_stdio_output@@V?$standard_base@DV?$stream_output_adapter@D@__crt_stdio_output@@@2@@__crt_stdio_output@@AAE_NQAH@Z 1006bbe7 f i libucrt:output.obj
 0001:0006ac7a       ?parse_int_from_format_string@?$output_processor@DV?$string_output_adapter@D@__crt_stdio_output@@V?$format_validation_base@DV?$string_output_adapter@D@__crt_stdio_output@@@2@@__crt_stdio_output@@AAE_NQAH@Z 1006bc7a f i libucrt:output.obj
 0001:0006ad0d       ?parse_int_from_format_string@?$output_processor@DV?$string_output_adapter@D@__crt_stdio_output@@V?$positional_parameter_base@DV?$string_output_adapter@D@__crt_stdio_output@@@2@@__crt_stdio_output@@AAE_NQAH@Z 1006bd0d f i libucrt:output.obj
 0001:0006ada0       ?parse_int_from_format_string@?$output_processor@DV?$string_output_adapter@D@__crt_stdio_output@@V?$standard_base@DV?$string_output_adapter@D@__crt_stdio_output@@@2@@__crt_stdio_output@@AAE_NQAH@Z 1006bda0 f i libucrt:output.obj
 0001:0006ae33       ?parse_int_from_format_string@?$output_processor@_WV?$stream_output_adapter@_W@__crt_stdio_output@@V?$format_validation_base@_WV?$stream_output_adapter@_W@__crt_stdio_output@@@2@@__crt_stdio_output@@AAE_NQAH@Z 1006be33 f i libucrt:output.obj
 0001:0006aec9       ?parse_int_from_format_string@?$output_processor@_WV?$stream_output_adapter@_W@__crt_stdio_output@@V?$positional_parameter_base@_WV?$stream_output_adapter@_W@__crt_stdio_output@@@2@@__crt_stdio_output@@AAE_NQAH@Z 1006bec9 f i libucrt:output.obj
 0001:0006af5f       ?parse_int_from_format_string@?$output_processor@_WV?$stream_output_adapter@_W@__crt_stdio_output@@V?$standard_base@_WV?$stream_output_adapter@_W@__crt_stdio_output@@@2@@__crt_stdio_output@@AAE_NQAH@Z 1006bf5f f i libucrt:output.obj
 0001:0006aff5       ?parse_int_from_format_string@?$output_processor@_WV?$string_output_adapter@_W@__crt_stdio_output@@V?$format_validation_base@_WV?$string_output_adapter@_W@__crt_stdio_output@@@2@@__crt_stdio_output@@AAE_NQAH@Z 1006bff5 f i libucrt:output.obj
 0001:0006b08b       ?parse_int_from_format_string@?$output_processor@_WV?$string_output_adapter@_W@__crt_stdio_output@@V?$positional_parameter_base@_WV?$string_output_adapter@_W@__crt_stdio_output@@@2@@__crt_stdio_output@@AAE_NQAH@Z 1006c08b f i libucrt:output.obj
 0001:0006b121       ?parse_int_from_format_string@?$output_processor@_WV?$string_output_adapter@_W@__crt_stdio_output@@V?$standard_base@_WV?$string_output_adapter@_W@__crt_stdio_output@@@2@@__crt_stdio_output@@AAE_NQAH@Z 1006c121 f i libucrt:output.obj
 0001:0006b1b7       ?process@?$output_processor@DV?$stream_output_adapter@D@__crt_stdio_output@@V?$format_validation_base@DV?$stream_output_adapter@D@__crt_stdio_output@@@2@@__crt_stdio_output@@QAEHXZ 1006c1b7 f i libucrt:output.obj
 0001:0006b329       ?process@?$output_processor@DV?$stream_output_adapter@D@__crt_stdio_output@@V?$positional_parameter_base@DV?$stream_output_adapter@D@__crt_stdio_output@@@2@@__crt_stdio_output@@QAEHXZ 1006c329 f i libucrt:output.obj
 0001:0006b4dc       ?process@?$output_processor@DV?$stream_output_adapter@D@__crt_stdio_output@@V?$standard_base@DV?$stream_output_adapter@D@__crt_stdio_output@@@2@@__crt_stdio_output@@QAEHXZ 1006c4dc f i libucrt:output.obj
 0001:0006b63f       ?process@?$output_processor@DV?$string_output_adapter@D@__crt_stdio_output@@V?$format_validation_base@DV?$string_output_adapter@D@__crt_stdio_output@@@2@@__crt_stdio_output@@QAEHXZ 1006c63f f i libucrt:output.obj
 0001:0006b7b1       ?process@?$output_processor@DV?$string_output_adapter@D@__crt_stdio_output@@V?$positional_parameter_base@DV?$string_output_adapter@D@__crt_stdio_output@@@2@@__crt_stdio_output@@QAEHXZ 1006c7b1 f i libucrt:output.obj
 0001:0006b964       ?process@?$output_processor@DV?$string_output_adapter@D@__crt_stdio_output@@V?$standard_base@DV?$string_output_adapter@D@__crt_stdio_output@@@2@@__crt_stdio_output@@QAEHXZ 1006c964 f i libucrt:output.obj
 0001:0006bac7       ?process@?$output_processor@_WV?$stream_output_adapter@_W@__crt_stdio_output@@V?$format_validation_base@_WV?$stream_output_adapter@_W@__crt_stdio_output@@@2@@__crt_stdio_output@@QAEHXZ 1006cac7 f i libucrt:output.obj
 0001:0006bc43       ?process@?$output_processor@_WV?$stream_output_adapter@_W@__crt_stdio_output@@V?$positional_parameter_base@_WV?$stream_output_adapter@_W@__crt_stdio_output@@@2@@__crt_stdio_output@@QAEHXZ 1006cc43 f i libucrt:output.obj
 0001:0006bdfb       ?process@?$output_processor@_WV?$stream_output_adapter@_W@__crt_stdio_output@@V?$standard_base@_WV?$stream_output_adapter@_W@__crt_stdio_output@@@2@@__crt_stdio_output@@QAEHXZ 1006cdfb f i libucrt:output.obj
 0001:0006bf63       ?process@?$output_processor@_WV?$string_output_adapter@_W@__crt_stdio_output@@V?$format_validation_base@_WV?$string_output_adapter@_W@__crt_stdio_output@@@2@@__crt_stdio_output@@QAEHXZ 1006cf63 f i libucrt:output.obj
 0001:0006c0df       ?process@?$output_processor@_WV?$string_output_adapter@_W@__crt_stdio_output@@V?$positional_parameter_base@_WV?$string_output_adapter@_W@__crt_stdio_output@@@2@@__crt_stdio_output@@QAEHXZ 1006d0df f i libucrt:output.obj
 0001:0006c297       ?process@?$output_processor@_WV?$string_output_adapter@_W@__crt_stdio_output@@V?$standard_base@_WV?$string_output_adapter@_W@__crt_stdio_output@@@2@@__crt_stdio_output@@QAEHXZ 1006d297 f i libucrt:output.obj
 0001:0006c3ff       ?public_stream@__crt_stdio_stream@@QBEPAU_iobuf@@XZ 1006d3ff f i libucrt:output.obj
 0001:0006c402       ?set_flag@?$output_processor@DV?$stream_output_adapter@D@__crt_stdio_output@@V?$format_validation_base@DV?$stream_output_adapter@D@__crt_stdio_output@@@2@@__crt_stdio_output@@AAEXI@Z 1006d402 f i libucrt:output.obj
 0001:0006c414       ?set_flag@?$output_processor@DV?$stream_output_adapter@D@__crt_stdio_output@@V?$positional_parameter_base@DV?$stream_output_adapter@D@__crt_stdio_output@@@2@@__crt_stdio_output@@AAEXI@Z 1006d414 f i libucrt:output.obj
 0001:0006c426       ?set_flag@?$output_processor@DV?$stream_output_adapter@D@__crt_stdio_output@@V?$standard_base@DV?$stream_output_adapter@D@__crt_stdio_output@@@2@@__crt_stdio_output@@AAEXI@Z 1006d426 f i libucrt:output.obj
 0001:0006c438       ?set_flag@?$output_processor@DV?$string_output_adapter@D@__crt_stdio_output@@V?$format_validation_base@DV?$string_output_adapter@D@__crt_stdio_output@@@2@@__crt_stdio_output@@AAEXI@Z 1006d438 f i libucrt:output.obj
 0001:0006c44a       ?set_flag@?$output_processor@DV?$string_output_adapter@D@__crt_stdio_output@@V?$positional_parameter_base@DV?$string_output_adapter@D@__crt_stdio_output@@@2@@__crt_stdio_output@@AAEXI@Z 1006d44a f i libucrt:output.obj
 0001:0006c45c       ?set_flag@?$output_processor@DV?$string_output_adapter@D@__crt_stdio_output@@V?$standard_base@DV?$string_output_adapter@D@__crt_stdio_output@@@2@@__crt_stdio_output@@AAEXI@Z 1006d45c f i libucrt:output.obj
 0001:0006c46e       ?set_flag@?$output_processor@_WV?$stream_output_adapter@_W@__crt_stdio_output@@V?$format_validation_base@_WV?$stream_output_adapter@_W@__crt_stdio_output@@@2@@__crt_stdio_output@@AAEXI@Z 1006d46e f i libucrt:output.obj
 0001:0006c480       ?set_flag@?$output_processor@_WV?$stream_output_adapter@_W@__crt_stdio_output@@V?$positional_parameter_base@_WV?$stream_output_adapter@_W@__crt_stdio_output@@@2@@__crt_stdio_output@@AAEXI@Z 1006d480 f i libucrt:output.obj
 0001:0006c492       ?set_flag@?$output_processor@_WV?$stream_output_adapter@_W@__crt_stdio_output@@V?$standard_base@_WV?$stream_output_adapter@_W@__crt_stdio_output@@@2@@__crt_stdio_output@@AAEXI@Z 1006d492 f i libucrt:output.obj
 0001:0006c4a4       ?set_flag@?$output_processor@_WV?$string_output_adapter@_W@__crt_stdio_output@@V?$format_validation_base@_WV?$string_output_adapter@_W@__crt_stdio_output@@@2@@__crt_stdio_output@@AAEXI@Z 1006d4a4 f i libucrt:output.obj
 0001:0006c4b6       ?set_flag@?$output_processor@_WV?$string_output_adapter@_W@__crt_stdio_output@@V?$positional_parameter_base@_WV?$string_output_adapter@_W@__crt_stdio_output@@@2@@__crt_stdio_output@@AAEXI@Z 1006d4b6 f i libucrt:output.obj
 0001:0006c4c8       ?set_flag@?$output_processor@_WV?$string_output_adapter@_W@__crt_stdio_output@@V?$standard_base@_WV?$string_output_adapter@_W@__crt_stdio_output@@@2@@__crt_stdio_output@@AAEXI@Z 1006d4c8 f i libucrt:output.obj
 0001:0006c4da       ?should_format@?$positional_parameter_base@DV?$stream_output_adapter@D@__crt_stdio_output@@@__crt_stdio_output@@IAE_NXZ 1006d4da f i libucrt:output.obj
 0001:0006c4f5       ?should_format@?$positional_parameter_base@DV?$string_output_adapter@D@__crt_stdio_output@@@__crt_stdio_output@@IAE_NXZ 1006d4f5 f i libucrt:output.obj
 0001:0006c510       ?should_format@?$positional_parameter_base@_WV?$stream_output_adapter@_W@__crt_stdio_output@@@__crt_stdio_output@@IAE_NXZ 1006d510 f i libucrt:output.obj
 0001:0006c52b       ?should_format@?$positional_parameter_base@_WV?$string_output_adapter@_W@__crt_stdio_output@@@__crt_stdio_output@@IAE_NXZ 1006d52b f i libucrt:output.obj
 0001:0006c546       ?should_format@?$standard_base@DV?$stream_output_adapter@D@__crt_stdio_output@@@__crt_stdio_output@@IAE_NXZ 1006d546 f i libucrt:output.obj
 0001:0006c549       ?should_format@?$standard_base@DV?$string_output_adapter@D@__crt_stdio_output@@@__crt_stdio_output@@IAE_NXZ 1006d549 f i libucrt:output.obj
 0001:0006c54c       ?should_format@?$standard_base@_WV?$stream_output_adapter@_W@__crt_stdio_output@@@__crt_stdio_output@@IAE_NXZ 1006d54c f i libucrt:output.obj
 0001:0006c54f       ?should_format@?$standard_base@_WV?$string_output_adapter@_W@__crt_stdio_output@@@__crt_stdio_output@@IAE_NXZ 1006d54f f i libucrt:output.obj
 0001:0006c552       ?should_skip_normal_state_processing@?$positional_parameter_base@DV?$stream_output_adapter@D@__crt_stdio_output@@@__crt_stdio_output@@IAE_NXZ 1006d552 f i libucrt:output.obj
 0001:0006c584       ?should_skip_normal_state_processing@?$positional_parameter_base@DV?$string_output_adapter@D@__crt_stdio_output@@@__crt_stdio_output@@IAE_NXZ 1006d584 f i libucrt:output.obj
 0001:0006c5b6       ?should_skip_normal_state_processing@?$positional_parameter_base@_WV?$stream_output_adapter@_W@__crt_stdio_output@@@__crt_stdio_output@@IAE_NXZ 1006d5b6 f i libucrt:output.obj
 0001:0006c5e8       ?should_skip_normal_state_processing@?$positional_parameter_base@_WV?$string_output_adapter@_W@__crt_stdio_output@@@__crt_stdio_output@@IAE_NXZ 1006d5e8 f i libucrt:output.obj
 0001:0006c61a       ?should_skip_normal_state_processing@?$standard_base@DV?$stream_output_adapter@D@__crt_stdio_output@@@__crt_stdio_output@@IAE_NXZ 1006d61a f i libucrt:output.obj
 0001:0006c61d       ?should_skip_normal_state_processing@?$standard_base@DV?$string_output_adapter@D@__crt_stdio_output@@@__crt_stdio_output@@IAE_NXZ 1006d61d f i libucrt:output.obj
 0001:0006c620       ?should_skip_normal_state_processing@?$standard_base@_WV?$stream_output_adapter@_W@__crt_stdio_output@@@__crt_stdio_output@@IAE_NXZ 1006d620 f i libucrt:output.obj
 0001:0006c623       ?should_skip_normal_state_processing@?$standard_base@_WV?$string_output_adapter@_W@__crt_stdio_output@@@__crt_stdio_output@@IAE_NXZ 1006d623 f i libucrt:output.obj
 0001:0006c626       ?should_skip_type_state_output@?$positional_parameter_base@DV?$stream_output_adapter@D@__crt_stdio_output@@@__crt_stdio_output@@IBE_NXZ 1006d626 f i libucrt:output.obj
 0001:0006c642       ?should_skip_type_state_output@?$positional_parameter_base@DV?$string_output_adapter@D@__crt_stdio_output@@@__crt_stdio_output@@IBE_NXZ 1006d642 f i libucrt:output.obj
 0001:0006c65e       ?should_skip_type_state_output@?$positional_parameter_base@_WV?$stream_output_adapter@_W@__crt_stdio_output@@@__crt_stdio_output@@IBE_NXZ 1006d65e f i libucrt:output.obj
 0001:0006c67a       ?should_skip_type_state_output@?$positional_parameter_base@_WV?$string_output_adapter@_W@__crt_stdio_output@@@__crt_stdio_output@@IBE_NXZ 1006d67a f i libucrt:output.obj
 0001:0006c696       ?should_skip_type_state_output@?$standard_base@DV?$stream_output_adapter@D@__crt_stdio_output@@@__crt_stdio_output@@IBE_NXZ 1006d696 f i libucrt:output.obj
 0001:0006c699       ?should_skip_type_state_output@?$standard_base@DV?$string_output_adapter@D@__crt_stdio_output@@@__crt_stdio_output@@IBE_NXZ 1006d699 f i libucrt:output.obj
 0001:0006c69c       ?should_skip_type_state_output@?$standard_base@_WV?$stream_output_adapter@_W@__crt_stdio_output@@@__crt_stdio_output@@IBE_NXZ 1006d69c f i libucrt:output.obj
 0001:0006c69f       ?should_skip_type_state_output@?$standard_base@_WV?$string_output_adapter@_W@__crt_stdio_output@@@__crt_stdio_output@@IBE_NXZ 1006d69f f i libucrt:output.obj
 0001:0006c6a2       ?state_case_dot@?$output_processor@DV?$stream_output_adapter@D@__crt_stdio_output@@V?$format_validation_base@DV?$stream_output_adapter@D@__crt_stdio_output@@@2@@__crt_stdio_output@@AAE_NXZ 1006d6a2 f i libucrt:output.obj
 0001:0006c6a9       ?state_case_dot@?$output_processor@DV?$stream_output_adapter@D@__crt_stdio_output@@V?$positional_parameter_base@DV?$stream_output_adapter@D@__crt_stdio_output@@@2@@__crt_stdio_output@@AAE_NXZ 1006d6a9 f i libucrt:output.obj
 0001:0006c6b0       ?state_case_dot@?$output_processor@DV?$stream_output_adapter@D@__crt_stdio_output@@V?$standard_base@DV?$stream_output_adapter@D@__crt_stdio_output@@@2@@__crt_stdio_output@@AAE_NXZ 1006d6b0 f i libucrt:output.obj
 0001:0006c6b7       ?state_case_dot@?$output_processor@DV?$string_output_adapter@D@__crt_stdio_output@@V?$format_validation_base@DV?$string_output_adapter@D@__crt_stdio_output@@@2@@__crt_stdio_output@@AAE_NXZ 1006d6b7 f i libucrt:output.obj
 0001:0006c6be       ?state_case_dot@?$output_processor@DV?$string_output_adapter@D@__crt_stdio_output@@V?$positional_parameter_base@DV?$string_output_adapter@D@__crt_stdio_output@@@2@@__crt_stdio_output@@AAE_NXZ 1006d6be f i libucrt:output.obj
 0001:0006c6c5       ?state_case_dot@?$output_processor@DV?$string_output_adapter@D@__crt_stdio_output@@V?$standard_base@DV?$string_output_adapter@D@__crt_stdio_output@@@2@@__crt_stdio_output@@AAE_NXZ 1006d6c5 f i libucrt:output.obj
 0001:0006c6cc       ?state_case_dot@?$output_processor@_WV?$stream_output_adapter@_W@__crt_stdio_output@@V?$format_validation_base@_WV?$stream_output_adapter@_W@__crt_stdio_output@@@2@@__crt_stdio_output@@AAE_NXZ 1006d6cc f i libucrt:output.obj
 0001:0006c6d3       ?state_case_dot@?$output_processor@_WV?$stream_output_adapter@_W@__crt_stdio_output@@V?$positional_parameter_base@_WV?$stream_output_adapter@_W@__crt_stdio_output@@@2@@__crt_stdio_output@@AAE_NXZ 1006d6d3 f i libucrt:output.obj
 0001:0006c6da       ?state_case_dot@?$output_processor@_WV?$stream_output_adapter@_W@__crt_stdio_output@@V?$standard_base@_WV?$stream_output_adapter@_W@__crt_stdio_output@@@2@@__crt_stdio_output@@AAE_NXZ 1006d6da f i libucrt:output.obj
 0001:0006c6e1       ?state_case_dot@?$output_processor@_WV?$string_output_adapter@_W@__crt_stdio_output@@V?$format_validation_base@_WV?$string_output_adapter@_W@__crt_stdio_output@@@2@@__crt_stdio_output@@AAE_NXZ 1006d6e1 f i libucrt:output.obj
 0001:0006c6e8       ?state_case_dot@?$output_processor@_WV?$string_output_adapter@_W@__crt_stdio_output@@V?$positional_parameter_base@_WV?$string_output_adapter@_W@__crt_stdio_output@@@2@@__crt_stdio_output@@AAE_NXZ 1006d6e8 f i libucrt:output.obj
 0001:0006c6ef       ?state_case_dot@?$output_processor@_WV?$string_output_adapter@_W@__crt_stdio_output@@V?$standard_base@_WV?$string_output_adapter@_W@__crt_stdio_output@@@2@@__crt_stdio_output@@AAE_NXZ 1006d6ef f i libucrt:output.obj
 0001:0006c6f6       ?state_case_flag@?$output_processor@DV?$stream_output_adapter@D@__crt_stdio_output@@V?$format_validation_base@DV?$stream_output_adapter@D@__crt_stdio_output@@@2@@__crt_stdio_output@@AAE_NXZ 1006d6f6 f i libucrt:output.obj
 0001:0006c742       ?state_case_flag@?$output_processor@DV?$stream_output_adapter@D@__crt_stdio_output@@V?$positional_parameter_base@DV?$stream_output_adapter@D@__crt_stdio_output@@@2@@__crt_stdio_output@@AAE_NXZ 1006d742 f i libucrt:output.obj
 0001:0006c78e       ?state_case_flag@?$output_processor@DV?$stream_output_adapter@D@__crt_stdio_output@@V?$standard_base@DV?$stream_output_adapter@D@__crt_stdio_output@@@2@@__crt_stdio_output@@AAE_NXZ 1006d78e f i libucrt:output.obj
 0001:0006c7da       ?state_case_flag@?$output_processor@DV?$string_output_adapter@D@__crt_stdio_output@@V?$format_validation_base@DV?$string_output_adapter@D@__crt_stdio_output@@@2@@__crt_stdio_output@@AAE_NXZ 1006d7da f i libucrt:output.obj
 0001:0006c826       ?state_case_flag@?$output_processor@DV?$string_output_adapter@D@__crt_stdio_output@@V?$positional_parameter_base@DV?$string_output_adapter@D@__crt_stdio_output@@@2@@__crt_stdio_output@@AAE_NXZ 1006d826 f i libucrt:output.obj
 0001:0006c872       ?state_case_flag@?$output_processor@DV?$string_output_adapter@D@__crt_stdio_output@@V?$standard_base@DV?$string_output_adapter@D@__crt_stdio_output@@@2@@__crt_stdio_output@@AAE_NXZ 1006d872 f i libucrt:output.obj
 0001:0006c8be       ?state_case_flag@?$output_processor@_WV?$stream_output_adapter@_W@__crt_stdio_output@@V?$format_validation_base@_WV?$stream_output_adapter@_W@__crt_stdio_output@@@2@@__crt_stdio_output@@AAE_NXZ 1006d8be f i libucrt:output.obj
 0001:0006c90a       ?state_case_flag@?$output_processor@_WV?$stream_output_adapter@_W@__crt_stdio_output@@V?$positional_parameter_base@_WV?$stream_output_adapter@_W@__crt_stdio_output@@@2@@__crt_stdio_output@@AAE_NXZ 1006d90a f i libucrt:output.obj
 0001:0006c956       ?state_case_flag@?$output_processor@_WV?$stream_output_adapter@_W@__crt_stdio_output@@V?$standard_base@_WV?$stream_output_adapter@_W@__crt_stdio_output@@@2@@__crt_stdio_output@@AAE_NXZ 1006d956 f i libucrt:output.obj
 0001:0006c9a2       ?state_case_flag@?$output_processor@_WV?$string_output_adapter@_W@__crt_stdio_output@@V?$format_validation_base@_WV?$string_output_adapter@_W@__crt_stdio_output@@@2@@__crt_stdio_output@@AAE_NXZ 1006d9a2 f i libucrt:output.obj
 0001:0006c9ee       ?state_case_flag@?$output_processor@_WV?$string_output_adapter@_W@__crt_stdio_output@@V?$positional_parameter_base@_WV?$string_output_adapter@_W@__crt_stdio_output@@@2@@__crt_stdio_output@@AAE_NXZ 1006d9ee f i libucrt:output.obj
 0001:0006ca3a       ?state_case_flag@?$output_processor@_WV?$string_output_adapter@_W@__crt_stdio_output@@V?$standard_base@_WV?$string_output_adapter@_W@__crt_stdio_output@@@2@@__crt_stdio_output@@AAE_NXZ 1006da3a f i libucrt:output.obj
 0001:0006ca86       ?state_case_normal@?$output_processor@DV?$stream_output_adapter@D@__crt_stdio_output@@V?$format_validation_base@DV?$stream_output_adapter@D@__crt_stdio_output@@@2@@__crt_stdio_output@@AAE_NXZ 1006da86 f i libucrt:output.obj
 0001:0006caac       ?state_case_normal@?$output_processor@DV?$stream_output_adapter@D@__crt_stdio_output@@V?$positional_parameter_base@DV?$stream_output_adapter@D@__crt_stdio_output@@@2@@__crt_stdio_output@@AAE_NXZ 1006daac f i libucrt:output.obj
 0001:0006cae9       ?state_case_normal@?$output_processor@DV?$stream_output_adapter@D@__crt_stdio_output@@V?$standard_base@DV?$stream_output_adapter@D@__crt_stdio_output@@@2@@__crt_stdio_output@@AAE_NXZ 1006dae9 f i libucrt:output.obj
 0001:0006cb0f       ?state_case_normal@?$output_processor@DV?$string_output_adapter@D@__crt_stdio_output@@V?$format_validation_base@DV?$string_output_adapter@D@__crt_stdio_output@@@2@@__crt_stdio_output@@AAE_NXZ 1006db0f f i libucrt:output.obj
 0001:0006cb35       ?state_case_normal@?$output_processor@DV?$string_output_adapter@D@__crt_stdio_output@@V?$positional_parameter_base@DV?$string_output_adapter@D@__crt_stdio_output@@@2@@__crt_stdio_output@@AAE_NXZ 1006db35 f i libucrt:output.obj
 0001:0006cb72       ?state_case_normal@?$output_processor@DV?$string_output_adapter@D@__crt_stdio_output@@V?$standard_base@DV?$string_output_adapter@D@__crt_stdio_output@@@2@@__crt_stdio_output@@AAE_NXZ 1006db72 f i libucrt:output.obj
 0001:0006cb98       ?state_case_normal@?$output_processor@_WV?$stream_output_adapter@_W@__crt_stdio_output@@V?$format_validation_base@_WV?$stream_output_adapter@_W@__crt_stdio_output@@@2@@__crt_stdio_output@@AAE_NXZ 1006db98 f i libucrt:output.obj
 0001:0006cbbe       ?state_case_normal@?$output_processor@_WV?$stream_output_adapter@_W@__crt_stdio_output@@V?$positional_parameter_base@_WV?$stream_output_adapter@_W@__crt_stdio_output@@@2@@__crt_stdio_output@@AAE_NXZ 1006dbbe f i libucrt:output.obj
 0001:0006cbfb       ?state_case_normal@?$output_processor@_WV?$stream_output_adapter@_W@__crt_stdio_output@@V?$standard_base@_WV?$stream_output_adapter@_W@__crt_stdio_output@@@2@@__crt_stdio_output@@AAE_NXZ 1006dbfb f i libucrt:output.obj
 0001:0006cc21       ?state_case_normal@?$output_processor@_WV?$string_output_adapter@_W@__crt_stdio_output@@V?$format_validation_base@_WV?$string_output_adapter@_W@__crt_stdio_output@@@2@@__crt_stdio_output@@AAE_NXZ 1006dc21 f i libucrt:output.obj
 0001:0006cc47       ?state_case_normal@?$output_processor@_WV?$string_output_adapter@_W@__crt_stdio_output@@V?$positional_parameter_base@_WV?$string_output_adapter@_W@__crt_stdio_output@@@2@@__crt_stdio_output@@AAE_NXZ 1006dc47 f i libucrt:output.obj
 0001:0006cc84       ?state_case_normal@?$output_processor@_WV?$string_output_adapter@_W@__crt_stdio_output@@V?$standard_base@_WV?$string_output_adapter@_W@__crt_stdio_output@@@2@@__crt_stdio_output@@AAE_NXZ 1006dc84 f i libucrt:output.obj
 0001:0006ccaa       ?state_case_normal_common@?$output_processor@DV?$stream_output_adapter@D@__crt_stdio_output@@V?$format_validation_base@DV?$stream_output_adapter@D@__crt_stdio_output@@@2@@__crt_stdio_output@@AAE_NXZ 1006dcaa f i libucrt:output.obj
 0001:0006ccf5       ?state_case_normal_common@?$output_processor@DV?$stream_output_adapter@D@__crt_stdio_output@@V?$positional_parameter_base@DV?$stream_output_adapter@D@__crt_stdio_output@@@2@@__crt_stdio_output@@AAE_NXZ 1006dcf5 f i libucrt:output.obj
 0001:0006cd40       ?state_case_normal_common@?$output_processor@DV?$stream_output_adapter@D@__crt_stdio_output@@V?$standard_base@DV?$stream_output_adapter@D@__crt_stdio_output@@@2@@__crt_stdio_output@@AAE_NXZ 1006dd40 f i libucrt:output.obj
 0001:0006cd8b       ?state_case_normal_common@?$output_processor@DV?$string_output_adapter@D@__crt_stdio_output@@V?$format_validation_base@DV?$string_output_adapter@D@__crt_stdio_output@@@2@@__crt_stdio_output@@AAE_NXZ 1006dd8b f i libucrt:output.obj
 0001:0006cdbf       ?state_case_normal_common@?$output_processor@DV?$string_output_adapter@D@__crt_stdio_output@@V?$positional_parameter_base@DV?$string_output_adapter@D@__crt_stdio_output@@@2@@__crt_stdio_output@@AAE_NXZ 1006ddbf f i libucrt:output.obj
 0001:0006cdf3       ?state_case_normal_common@?$output_processor@DV?$string_output_adapter@D@__crt_stdio_output@@V?$standard_base@DV?$string_output_adapter@D@__crt_stdio_output@@@2@@__crt_stdio_output@@AAE_NXZ 1006ddf3 f i libucrt:output.obj
 0001:0006ce27       ?state_case_normal_common@?$output_processor@_WV?$stream_output_adapter@_W@__crt_stdio_output@@V?$format_validation_base@_WV?$stream_output_adapter@_W@__crt_stdio_output@@@2@@__crt_stdio_output@@AAE_NXZ 1006de27 f i libucrt:output.obj
 0001:0006ce5b       ?state_case_normal_common@?$output_processor@_WV?$stream_output_adapter@_W@__crt_stdio_output@@V?$positional_parameter_base@_WV?$stream_output_adapter@_W@__crt_stdio_output@@@2@@__crt_stdio_output@@AAE_NXZ 1006de5b f i libucrt:output.obj
 0001:0006ce8f       ?state_case_normal_common@?$output_processor@_WV?$stream_output_adapter@_W@__crt_stdio_output@@V?$standard_base@_WV?$stream_output_adapter@_W@__crt_stdio_output@@@2@@__crt_stdio_output@@AAE_NXZ 1006de8f f i libucrt:output.obj
 0001:0006cec3       ?state_case_normal_common@?$output_processor@_WV?$string_output_adapter@_W@__crt_stdio_output@@V?$format_validation_base@_WV?$string_output_adapter@_W@__crt_stdio_output@@@2@@__crt_stdio_output@@AAE_NXZ 1006dec3 f i libucrt:output.obj
 0001:0006cee4       ?state_case_normal_common@?$output_processor@_WV?$string_output_adapter@_W@__crt_stdio_output@@V?$positional_parameter_base@_WV?$string_output_adapter@_W@__crt_stdio_output@@@2@@__crt_stdio_output@@AAE_NXZ 1006dee4 f i libucrt:output.obj
 0001:0006cf05       ?state_case_normal_common@?$output_processor@_WV?$string_output_adapter@_W@__crt_stdio_output@@V?$standard_base@_WV?$string_output_adapter@_W@__crt_stdio_output@@@2@@__crt_stdio_output@@AAE_NXZ 1006df05 f i libucrt:output.obj
 0001:0006cf26       ?state_case_normal_tchar@?$output_processor@DV?$stream_output_adapter@D@__crt_stdio_output@@V?$format_validation_base@DV?$stream_output_adapter@D@__crt_stdio_output@@@2@@__crt_stdio_output@@AAE_ND@Z 1006df26 f i libucrt:output.obj
 0001:0006cfa0       ?state_case_normal_tchar@?$output_processor@DV?$stream_output_adapter@D@__crt_stdio_output@@V?$positional_parameter_base@DV?$stream_output_adapter@D@__crt_stdio_output@@@2@@__crt_stdio_output@@AAE_ND@Z 1006dfa0 f i libucrt:output.obj
 0001:0006d01a       ?state_case_normal_tchar@?$output_processor@DV?$stream_output_adapter@D@__crt_stdio_output@@V?$standard_base@DV?$stream_output_adapter@D@__crt_stdio_output@@@2@@__crt_stdio_output@@AAE_ND@Z 1006e01a f i libucrt:output.obj
 0001:0006d094       ?state_case_normal_tchar@?$output_processor@DV?$string_output_adapter@D@__crt_stdio_output@@V?$format_validation_base@DV?$string_output_adapter@D@__crt_stdio_output@@@2@@__crt_stdio_output@@AAE_ND@Z 1006e094 f i libucrt:output.obj
 0001:0006d103       ?state_case_normal_tchar@?$output_processor@DV?$string_output_adapter@D@__crt_stdio_output@@V?$positional_parameter_base@DV?$string_output_adapter@D@__crt_stdio_output@@@2@@__crt_stdio_output@@AAE_ND@Z 1006e103 f i libucrt:output.obj
 0001:0006d172       ?state_case_normal_tchar@?$output_processor@DV?$string_output_adapter@D@__crt_stdio_output@@V?$standard_base@DV?$string_output_adapter@D@__crt_stdio_output@@@2@@__crt_stdio_output@@AAE_ND@Z 1006e172 f i libucrt:output.obj
 0001:0006d1e1       ?state_case_normal_tchar@?$output_processor@_WV?$stream_output_adapter@_W@__crt_stdio_output@@V?$format_validation_base@_WV?$stream_output_adapter@_W@__crt_stdio_output@@@2@@__crt_stdio_output@@AAE_N_W@Z 1006e1e1 f i libucrt:output.obj
 0001:0006d1ec       ?state_case_normal_tchar@?$output_processor@_WV?$stream_output_adapter@_W@__crt_stdio_output@@V?$positional_parameter_base@_WV?$stream_output_adapter@_W@__crt_stdio_output@@@2@@__crt_stdio_output@@AAE_N_W@Z 1006e1ec f i libucrt:output.obj
 0001:0006d1f7       ?state_case_normal_tchar@?$output_processor@_WV?$stream_output_adapter@_W@__crt_stdio_output@@V?$standard_base@_WV?$stream_output_adapter@_W@__crt_stdio_output@@@2@@__crt_stdio_output@@AAE_N_W@Z 1006e1f7 f i libucrt:output.obj
 0001:0006d202       ?state_case_normal_tchar@?$output_processor@_WV?$string_output_adapter@_W@__crt_stdio_output@@V?$format_validation_base@_WV?$string_output_adapter@_W@__crt_stdio_output@@@2@@__crt_stdio_output@@AAE_N_W@Z 1006e202 f i libucrt:output.obj
 0001:0006d20d       ?state_case_normal_tchar@?$output_processor@_WV?$string_output_adapter@_W@__crt_stdio_output@@V?$positional_parameter_base@_WV?$string_output_adapter@_W@__crt_stdio_output@@@2@@__crt_stdio_output@@AAE_N_W@Z 1006e20d f i libucrt:output.obj
 0001:0006d218       ?state_case_normal_tchar@?$output_processor@_WV?$string_output_adapter@_W@__crt_stdio_output@@V?$standard_base@_WV?$string_output_adapter@_W@__crt_stdio_output@@@2@@__crt_stdio_output@@AAE_N_W@Z 1006e218 f i libucrt:output.obj
 0001:0006d223       ?state_case_percent@?$output_processor@DV?$stream_output_adapter@D@__crt_stdio_output@@V?$format_validation_base@DV?$stream_output_adapter@D@__crt_stdio_output@@@2@@__crt_stdio_output@@AAE_NXZ 1006e223 f i libucrt:output.obj
 0001:0006d241       ?state_case_percent@?$output_processor@DV?$stream_output_adapter@D@__crt_stdio_output@@V?$positional_parameter_base@DV?$stream_output_adapter@D@__crt_stdio_output@@@2@@__crt_stdio_output@@AAE_NXZ 1006e241 f i libucrt:output.obj
 0001:0006d25f       ?state_case_percent@?$output_processor@DV?$stream_output_adapter@D@__crt_stdio_output@@V?$standard_base@DV?$stream_output_adapter@D@__crt_stdio_output@@@2@@__crt_stdio_output@@AAE_NXZ 1006e25f f i libucrt:output.obj
 0001:0006d27d       ?state_case_percent@?$output_processor@DV?$string_output_adapter@D@__crt_stdio_output@@V?$format_validation_base@DV?$string_output_adapter@D@__crt_stdio_output@@@2@@__crt_stdio_output@@AAE_NXZ 1006e27d f i libucrt:output.obj
 0001:0006d29b       ?state_case_percent@?$output_processor@DV?$string_output_adapter@D@__crt_stdio_output@@V?$positional_parameter_base@DV?$string_output_adapter@D@__crt_stdio_output@@@2@@__crt_stdio_output@@AAE_NXZ 1006e29b f i libucrt:output.obj
 0001:0006d2b9       ?state_case_percent@?$output_processor@DV?$string_output_adapter@D@__crt_stdio_output@@V?$standard_base@DV?$string_output_adapter@D@__crt_stdio_output@@@2@@__crt_stdio_output@@AAE_NXZ 1006e2b9 f i libucrt:output.obj
 0001:0006d2d7       ?state_case_percent@?$output_processor@_WV?$stream_output_adapter@_W@__crt_stdio_output@@V?$format_validation_base@_WV?$stream_output_adapter@_W@__crt_stdio_output@@@2@@__crt_stdio_output@@AAE_NXZ 1006e2d7 f i libucrt:output.obj
 0001:0006d2f5       ?state_case_percent@?$output_processor@_WV?$stream_output_adapter@_W@__crt_stdio_output@@V?$positional_parameter_base@_WV?$stream_output_adapter@_W@__crt_stdio_output@@@2@@__crt_stdio_output@@AAE_NXZ 1006e2f5 f i libucrt:output.obj
 0001:0006d313       ?state_case_percent@?$output_processor@_WV?$stream_output_adapter@_W@__crt_stdio_output@@V?$standard_base@_WV?$stream_output_adapter@_W@__crt_stdio_output@@@2@@__crt_stdio_output@@AAE_NXZ 1006e313 f i libucrt:output.obj
 0001:0006d331       ?state_case_percent@?$output_processor@_WV?$string_output_adapter@_W@__crt_stdio_output@@V?$format_validation_base@_WV?$string_output_adapter@_W@__crt_stdio_output@@@2@@__crt_stdio_output@@AAE_NXZ 1006e331 f i libucrt:output.obj
 0001:0006d34f       ?state_case_percent@?$output_processor@_WV?$string_output_adapter@_W@__crt_stdio_output@@V?$positional_parameter_base@_WV?$string_output_adapter@_W@__crt_stdio_output@@@2@@__crt_stdio_output@@AAE_NXZ 1006e34f f i libucrt:output.obj
 0001:0006d36d       ?state_case_percent@?$output_processor@_WV?$string_output_adapter@_W@__crt_stdio_output@@V?$standard_base@_WV?$string_output_adapter@_W@__crt_stdio_output@@@2@@__crt_stdio_output@@AAE_NXZ 1006e36d f i libucrt:output.obj
 0001:0006d38b       ?state_case_precision@?$output_processor@DV?$stream_output_adapter@D@__crt_stdio_output@@V?$format_validation_base@DV?$stream_output_adapter@D@__crt_stdio_output@@@2@@__crt_stdio_output@@AAE_NXZ 1006e38b f i libucrt:output.obj
 0001:0006d3ba       ?state_case_precision@?$output_processor@DV?$stream_output_adapter@D@__crt_stdio_output@@V?$positional_parameter_base@DV?$stream_output_adapter@D@__crt_stdio_output@@@2@@__crt_stdio_output@@AAE_NXZ 1006e3ba f i libucrt:output.obj
 0001:0006d402       ?state_case_precision@?$output_processor@DV?$stream_output_adapter@D@__crt_stdio_output@@V?$standard_base@DV?$stream_output_adapter@D@__crt_stdio_output@@@2@@__crt_stdio_output@@AAE_NXZ 1006e402 f i libucrt:output.obj
 0001:0006d431       ?state_case_precision@?$output_processor@DV?$string_output_adapter@D@__crt_stdio_output@@V?$format_validation_base@DV?$string_output_adapter@D@__crt_stdio_output@@@2@@__crt_stdio_output@@AAE_NXZ 1006e431 f i libucrt:output.obj
 0001:0006d460       ?state_case_precision@?$output_processor@DV?$string_output_adapter@D@__crt_stdio_output@@V?$positional_parameter_base@DV?$string_output_adapter@D@__crt_stdio_output@@@2@@__crt_stdio_output@@AAE_NXZ 1006e460 f i libucrt:output.obj
 0001:0006d4a8       ?state_case_precision@?$output_processor@DV?$string_output_adapter@D@__crt_stdio_output@@V?$standard_base@DV?$string_output_adapter@D@__crt_stdio_output@@@2@@__crt_stdio_output@@AAE_NXZ 1006e4a8 f i libucrt:output.obj
 0001:0006d4d7       ?state_case_precision@?$output_processor@_WV?$stream_output_adapter@_W@__crt_stdio_output@@V?$format_validation_base@_WV?$stream_output_adapter@_W@__crt_stdio_output@@@2@@__crt_stdio_output@@AAE_NXZ 1006e4d7 f i libucrt:output.obj
 0001:0006d507       ?state_case_precision@?$output_processor@_WV?$stream_output_adapter@_W@__crt_stdio_output@@V?$positional_parameter_base@_WV?$stream_output_adapter@_W@__crt_stdio_output@@@2@@__crt_stdio_output@@AAE_NXZ 1006e507 f i libucrt:output.obj
 0001:0006d550       ?state_case_precision@?$output_processor@_WV?$stream_output_adapter@_W@__crt_stdio_output@@V?$standard_base@_WV?$stream_output_adapter@_W@__crt_stdio_output@@@2@@__crt_stdio_output@@AAE_NXZ 1006e550 f i libucrt:output.obj
 0001:0006d580       ?state_case_precision@?$output_processor@_WV?$string_output_adapter@_W@__crt_stdio_output@@V?$format_validation_base@_WV?$string_output_adapter@_W@__crt_stdio_output@@@2@@__crt_stdio_output@@AAE_NXZ 1006e580 f i libucrt:output.obj
 0001:0006d5b0       ?state_case_precision@?$output_processor@_WV?$string_output_adapter@_W@__crt_stdio_output@@V?$positional_parameter_base@_WV?$string_output_adapter@_W@__crt_stdio_output@@@2@@__crt_stdio_output@@AAE_NXZ 1006e5b0 f i libucrt:output.obj
 0001:0006d5f9       ?state_case_precision@?$output_processor@_WV?$string_output_adapter@_W@__crt_stdio_output@@V?$standard_base@_WV?$string_output_adapter@_W@__crt_stdio_output@@@2@@__crt_stdio_output@@AAE_NXZ 1006e5f9 f i libucrt:output.obj
 0001:0006d629       ?state_case_size@?$output_processor@DV?$stream_output_adapter@D@__crt_stdio_output@@V?$format_validation_base@DV?$stream_output_adapter@D@__crt_stdio_output@@@2@@__crt_stdio_output@@AAE_NXZ 1006e629 f i libucrt:output.obj
 0001:0006d7d9       ?state_case_size@?$output_processor@DV?$stream_output_adapter@D@__crt_stdio_output@@V?$positional_parameter_base@DV?$stream_output_adapter@D@__crt_stdio_output@@@2@@__crt_stdio_output@@AAE_NXZ 1006e7d9 f i libucrt:output.obj
 0001:0006d989       ?state_case_size@?$output_processor@DV?$stream_output_adapter@D@__crt_stdio_output@@V?$standard_base@DV?$stream_output_adapter@D@__crt_stdio_output@@@2@@__crt_stdio_output@@AAE_NXZ 1006e989 f i libucrt:output.obj
 0001:0006db39       ?state_case_size@?$output_processor@DV?$string_output_adapter@D@__crt_stdio_output@@V?$format_validation_base@DV?$string_output_adapter@D@__crt_stdio_output@@@2@@__crt_stdio_output@@AAE_NXZ 1006eb39 f i libucrt:output.obj
 0001:0006dce9       ?state_case_size@?$output_processor@DV?$string_output_adapter@D@__crt_stdio_output@@V?$positional_parameter_base@DV?$string_output_adapter@D@__crt_stdio_output@@@2@@__crt_stdio_output@@AAE_NXZ 1006ece9 f i libucrt:output.obj
 0001:0006de99       ?state_case_size@?$output_processor@DV?$string_output_adapter@D@__crt_stdio_output@@V?$standard_base@DV?$string_output_adapter@D@__crt_stdio_output@@@2@@__crt_stdio_output@@AAE_NXZ 1006ee99 f i libucrt:output.obj
 0001:0006e049       ?state_case_size@?$output_processor@_WV?$stream_output_adapter@_W@__crt_stdio_output@@V?$format_validation_base@_WV?$stream_output_adapter@_W@__crt_stdio_output@@@2@@__crt_stdio_output@@AAE_NXZ 1006f049 f i libucrt:output.obj
 0001:0006e211       ?state_case_size@?$output_processor@_WV?$stream_output_adapter@_W@__crt_stdio_output@@V?$positional_parameter_base@_WV?$stream_output_adapter@_W@__crt_stdio_output@@@2@@__crt_stdio_output@@AAE_NXZ 1006f211 f i libucrt:output.obj
 0001:0006e3d9       ?state_case_size@?$output_processor@_WV?$stream_output_adapter@_W@__crt_stdio_output@@V?$standard_base@_WV?$stream_output_adapter@_W@__crt_stdio_output@@@2@@__crt_stdio_output@@AAE_NXZ 1006f3d9 f i libucrt:output.obj
 0001:0006e5a1       ?state_case_size@?$output_processor@_WV?$string_output_adapter@_W@__crt_stdio_output@@V?$format_validation_base@_WV?$string_output_adapter@_W@__crt_stdio_output@@@2@@__crt_stdio_output@@AAE_NXZ 1006f5a1 f i libucrt:output.obj
 0001:0006e769       ?state_case_size@?$output_processor@_WV?$string_output_adapter@_W@__crt_stdio_output@@V?$positional_parameter_base@_WV?$string_output_adapter@_W@__crt_stdio_output@@@2@@__crt_stdio_output@@AAE_NXZ 1006f769 f i libucrt:output.obj
 0001:0006e931       ?state_case_size@?$output_processor@_WV?$string_output_adapter@_W@__crt_stdio_output@@V?$standard_base@_WV?$string_output_adapter@_W@__crt_stdio_output@@@2@@__crt_stdio_output@@AAE_NXZ 1006f931 f i libucrt:output.obj
 0001:0006eaf9       ?state_case_type@?$output_processor@DV?$stream_output_adapter@D@__crt_stdio_output@@V?$format_validation_base@DV?$stream_output_adapter@D@__crt_stdio_output@@@2@@__crt_stdio_output@@AAE_NXZ 1006faf9 f i libucrt:output.obj
 0001:0006edac       ?state_case_type@?$output_processor@DV?$stream_output_adapter@D@__crt_stdio_output@@V?$positional_parameter_base@DV?$stream_output_adapter@D@__crt_stdio_output@@@2@@__crt_stdio_output@@AAE_NXZ 1006fdac f i libucrt:output.obj
 0001:0006f06d       ?state_case_type@?$output_processor@DV?$stream_output_adapter@D@__crt_stdio_output@@V?$standard_base@DV?$stream_output_adapter@D@__crt_stdio_output@@@2@@__crt_stdio_output@@AAE_NXZ 1007006d f i libucrt:output.obj
 0001:0006f320       ?state_case_type@?$output_processor@DV?$string_output_adapter@D@__crt_stdio_output@@V?$format_validation_base@DV?$string_output_adapter@D@__crt_stdio_output@@@2@@__crt_stdio_output@@AAE_NXZ 10070320 f i libucrt:output.obj
 0001:0006f5d3       ?state_case_type@?$output_processor@DV?$string_output_adapter@D@__crt_stdio_output@@V?$positional_parameter_base@DV?$string_output_adapter@D@__crt_stdio_output@@@2@@__crt_stdio_output@@AAE_NXZ 100705d3 f i libucrt:output.obj
 0001:0006f894       ?state_case_type@?$output_processor@DV?$string_output_adapter@D@__crt_stdio_output@@V?$standard_base@DV?$string_output_adapter@D@__crt_stdio_output@@@2@@__crt_stdio_output@@AAE_NXZ 10070894 f i libucrt:output.obj
 0001:0006fb47       ?state_case_type@?$output_processor@_WV?$stream_output_adapter@_W@__crt_stdio_output@@V?$format_validation_base@_WV?$stream_output_adapter@_W@__crt_stdio_output@@@2@@__crt_stdio_output@@AAE_NXZ 10070b47 f i libucrt:output.obj
 0001:0006fe47       ?state_case_type@?$output_processor@_WV?$stream_output_adapter@_W@__crt_stdio_output@@V?$positional_parameter_base@_WV?$stream_output_adapter@_W@__crt_stdio_output@@@2@@__crt_stdio_output@@AAE_NXZ 10070e47 f i libucrt:output.obj
 0001:0007015a       ?state_case_type@?$output_processor@_WV?$stream_output_adapter@_W@__crt_stdio_output@@V?$standard_base@_WV?$stream_output_adapter@_W@__crt_stdio_output@@@2@@__crt_stdio_output@@AAE_NXZ 1007115a f i libucrt:output.obj
 0001:0007045a       ?state_case_type@?$output_processor@_WV?$string_output_adapter@_W@__crt_stdio_output@@V?$format_validation_base@_WV?$string_output_adapter@_W@__crt_stdio_output@@@2@@__crt_stdio_output@@AAE_NXZ 1007145a f i libucrt:output.obj
 0001:0007075a       ?state_case_type@?$output_processor@_WV?$string_output_adapter@_W@__crt_stdio_output@@V?$positional_parameter_base@_WV?$string_output_adapter@_W@__crt_stdio_output@@@2@@__crt_stdio_output@@AAE_NXZ 1007175a f i libucrt:output.obj
 0001:00070a6d       ?state_case_type@?$output_processor@_WV?$string_output_adapter@_W@__crt_stdio_output@@V?$standard_base@_WV?$string_output_adapter@_W@__crt_stdio_output@@@2@@__crt_stdio_output@@AAE_NXZ 10071a6d f i libucrt:output.obj
 0001:00070d6d       ?state_case_width@?$output_processor@DV?$stream_output_adapter@D@__crt_stdio_output@@V?$format_validation_base@DV?$stream_output_adapter@D@__crt_stdio_output@@@2@@__crt_stdio_output@@AAE_NXZ 10071d6d f i libucrt:output.obj
 0001:00070da2       ?state_case_width@?$output_processor@DV?$stream_output_adapter@D@__crt_stdio_output@@V?$positional_parameter_base@DV?$stream_output_adapter@D@__crt_stdio_output@@@2@@__crt_stdio_output@@AAE_NXZ 10071da2 f i libucrt:output.obj
 0001:00070df2       ?state_case_width@?$output_processor@DV?$stream_output_adapter@D@__crt_stdio_output@@V?$standard_base@DV?$stream_output_adapter@D@__crt_stdio_output@@@2@@__crt_stdio_output@@AAE_NXZ 10071df2 f i libucrt:output.obj
 0001:00070e27       ?state_case_width@?$output_processor@DV?$string_output_adapter@D@__crt_stdio_output@@V?$format_validation_base@DV?$string_output_adapter@D@__crt_stdio_output@@@2@@__crt_stdio_output@@AAE_NXZ 10071e27 f i libucrt:output.obj
 0001:00070e5c       ?state_case_width@?$output_processor@DV?$string_output_adapter@D@__crt_stdio_output@@V?$positional_parameter_base@DV?$string_output_adapter@D@__crt_stdio_output@@@2@@__crt_stdio_output@@AAE_NXZ 10071e5c f i libucrt:output.obj
 0001:00070eac       ?state_case_width@?$output_processor@DV?$string_output_adapter@D@__crt_stdio_output@@V?$standard_base@DV?$string_output_adapter@D@__crt_stdio_output@@@2@@__crt_stdio_output@@AAE_NXZ 10071eac f i libucrt:output.obj
 0001:00070ee1       ?state_case_width@?$output_processor@_WV?$stream_output_adapter@_W@__crt_stdio_output@@V?$format_validation_base@_WV?$stream_output_adapter@_W@__crt_stdio_output@@@2@@__crt_stdio_output@@AAE_NXZ 10071ee1 f i libucrt:output.obj
 0001:00070f18       ?state_case_width@?$output_processor@_WV?$stream_output_adapter@_W@__crt_stdio_output@@V?$positional_parameter_base@_WV?$stream_output_adapter@_W@__crt_stdio_output@@@2@@__crt_stdio_output@@AAE_NXZ 10071f18 f i libucrt:output.obj
 0001:00070f69       ?state_case_width@?$output_processor@_WV?$stream_output_adapter@_W@__crt_stdio_output@@V?$standard_base@_WV?$stream_output_adapter@_W@__crt_stdio_output@@@2@@__crt_stdio_output@@AAE_NXZ 10071f69 f i libucrt:output.obj
 0001:00070fa0       ?state_case_width@?$output_processor@_WV?$string_output_adapter@_W@__crt_stdio_output@@V?$format_validation_base@_WV?$string_output_adapter@_W@__crt_stdio_output@@@2@@__crt_stdio_output@@AAE_NXZ 10071fa0 f i libucrt:output.obj
 0001:00070fd7       ?state_case_width@?$output_processor@_WV?$string_output_adapter@_W@__crt_stdio_output@@V?$positional_parameter_base@_WV?$string_output_adapter@_W@__crt_stdio_output@@@2@@__crt_stdio_output@@AAE_NXZ 10071fd7 f i libucrt:output.obj
 0001:00071028       ?state_case_width@?$output_processor@_WV?$string_output_adapter@_W@__crt_stdio_output@@V?$standard_base@_WV?$string_output_adapter@_W@__crt_stdio_output@@@2@@__crt_stdio_output@@AAE_NXZ 10072028 f i libucrt:output.obj
 0001:0007105f       ?state_count@?$format_validation_base@DV?$stream_output_adapter@D@__crt_stdio_output@@@__crt_stdio_output@@KAIXZ 1007205f f i libucrt:output.obj
 0001:00071063       ?state_count@?$format_validation_base@DV?$string_output_adapter@D@__crt_stdio_output@@@__crt_stdio_output@@KAIXZ 10072063 f i libucrt:output.obj
 0001:00071067       ?state_count@?$format_validation_base@_WV?$stream_output_adapter@_W@__crt_stdio_output@@@__crt_stdio_output@@KAIXZ 10072067 f i libucrt:output.obj
 0001:0007106b       ?state_count@?$format_validation_base@_WV?$string_output_adapter@_W@__crt_stdio_output@@@__crt_stdio_output@@KAIXZ 1007206b f i libucrt:output.obj
 0001:0007106f       ?state_count@?$standard_base@DV?$stream_output_adapter@D@__crt_stdio_output@@@__crt_stdio_output@@KAIXZ 1007206f f i libucrt:output.obj
 0001:00071073       ?state_count@?$standard_base@DV?$string_output_adapter@D@__crt_stdio_output@@@__crt_stdio_output@@KAIXZ 10072073 f i libucrt:output.obj
 0001:00071077       ?state_count@?$standard_base@_WV?$stream_output_adapter@_W@__crt_stdio_output@@@__crt_stdio_output@@KAIXZ 10072077 f i libucrt:output.obj
 0001:0007107b       ?state_count@?$standard_base@_WV?$string_output_adapter@_W@__crt_stdio_output@@@__crt_stdio_output@@KAIXZ 1007207b f i libucrt:output.obj
 0001:0007107f       ?state_transition_table@?$format_validation_base@DV?$stream_output_adapter@D@__crt_stdio_output@@@__crt_stdio_output@@KAPBEXZ 1007207f f i libucrt:output.obj
 0001:00071085       ?state_transition_table@?$format_validation_base@DV?$string_output_adapter@D@__crt_stdio_output@@@__crt_stdio_output@@KAPBEXZ 10072085 f i libucrt:output.obj
 0001:0007108b       ?state_transition_table@?$format_validation_base@_WV?$stream_output_adapter@_W@__crt_stdio_output@@@__crt_stdio_output@@KAPBEXZ 1007208b f i libucrt:output.obj
 0001:00071091       ?state_transition_table@?$format_validation_base@_WV?$string_output_adapter@_W@__crt_stdio_output@@@__crt_stdio_output@@KAPBEXZ 10072091 f i libucrt:output.obj
 0001:00071097       ?state_transition_table@?$standard_base@DV?$stream_output_adapter@D@__crt_stdio_output@@@__crt_stdio_output@@KAPBEXZ 10072097 f i libucrt:output.obj
 0001:0007109d       ?state_transition_table@?$standard_base@DV?$string_output_adapter@D@__crt_stdio_output@@@__crt_stdio_output@@KAPBEXZ 1007209d f i libucrt:output.obj
 0001:000710a3       ?state_transition_table@?$standard_base@_WV?$stream_output_adapter@_W@__crt_stdio_output@@@__crt_stdio_output@@KAPBEXZ 100720a3 f i libucrt:output.obj
 0001:000710a9       ?state_transition_table@?$standard_base@_WV?$string_output_adapter@_W@__crt_stdio_output@@@__crt_stdio_output@@KAPBEXZ 100720a9 f i libucrt:output.obj
 0001:000710af       ?tchar_string@?$common_data@D@__crt_stdio_output@@IAEAAPADD@Z 100720af f i libucrt:output.obj
 0001:000710b5       ?tchar_string@?$common_data@D@__crt_stdio_output@@IAEAAPADXZ 100720b5 f i libucrt:output.obj
 0001:000710b9       ?tchar_string@?$common_data@_W@__crt_stdio_output@@IAEAAPA_WXZ 100720b9 f i libucrt:output.obj
 0001:000710bd       ?tchar_string@?$common_data@_W@__crt_stdio_output@@IAEAAPA_W_W@Z 100720bd f i libucrt:output.obj
 0001:000710c3       ?to_integer_size@__crt_stdio_output@@YAIW4length_modifier@1@@Z 100720c3 f i libucrt:output.obj
 0001:00071136       ?type_case_X@?$output_processor@DV?$stream_output_adapter@D@__crt_stdio_output@@V?$format_validation_base@DV?$stream_output_adapter@D@__crt_stdio_output@@@2@@__crt_stdio_output@@AAE_NXZ 10072136 f i libucrt:output.obj
 0001:00071142       ?type_case_X@?$output_processor@DV?$stream_output_adapter@D@__crt_stdio_output@@V?$positional_parameter_base@DV?$stream_output_adapter@D@__crt_stdio_output@@@2@@__crt_stdio_output@@AAE_NXZ 10072142 f i libucrt:output.obj
 0001:0007114e       ?type_case_X@?$output_processor@DV?$stream_output_adapter@D@__crt_stdio_output@@V?$standard_base@DV?$stream_output_adapter@D@__crt_stdio_output@@@2@@__crt_stdio_output@@AAE_NXZ 1007214e f i libucrt:output.obj
 0001:0007115a       ?type_case_X@?$output_processor@DV?$string_output_adapter@D@__crt_stdio_output@@V?$format_validation_base@DV?$string_output_adapter@D@__crt_stdio_output@@@2@@__crt_stdio_output@@AAE_NXZ 1007215a f i libucrt:output.obj
 0001:00071166       ?type_case_X@?$output_processor@DV?$string_output_adapter@D@__crt_stdio_output@@V?$positional_parameter_base@DV?$string_output_adapter@D@__crt_stdio_output@@@2@@__crt_stdio_output@@AAE_NXZ 10072166 f i libucrt:output.obj
 0001:00071172       ?type_case_X@?$output_processor@DV?$string_output_adapter@D@__crt_stdio_output@@V?$standard_base@DV?$string_output_adapter@D@__crt_stdio_output@@@2@@__crt_stdio_output@@AAE_NXZ 10072172 f i libucrt:output.obj
 0001:0007117e       ?type_case_X@?$output_processor@_WV?$stream_output_adapter@_W@__crt_stdio_output@@V?$format_validation_base@_WV?$stream_output_adapter@_W@__crt_stdio_output@@@2@@__crt_stdio_output@@AAE_NXZ 1007217e f i libucrt:output.obj
 0001:0007118a       ?type_case_X@?$output_processor@_WV?$stream_output_adapter@_W@__crt_stdio_output@@V?$positional_parameter_base@_WV?$stream_output_adapter@_W@__crt_stdio_output@@@2@@__crt_stdio_output@@AAE_NXZ 1007218a f i libucrt:output.obj
 0001:00071196       ?type_case_X@?$output_processor@_WV?$stream_output_adapter@_W@__crt_stdio_output@@V?$standard_base@_WV?$stream_output_adapter@_W@__crt_stdio_output@@@2@@__crt_stdio_output@@AAE_NXZ 10072196 f i libucrt:output.obj
 0001:000711a2       ?type_case_X@?$output_processor@_WV?$string_output_adapter@_W@__crt_stdio_output@@V?$format_validation_base@_WV?$string_output_adapter@_W@__crt_stdio_output@@@2@@__crt_stdio_output@@AAE_NXZ 100721a2 f i libucrt:output.obj
 0001:000711ae       ?type_case_X@?$output_processor@_WV?$string_output_adapter@_W@__crt_stdio_output@@V?$positional_parameter_base@_WV?$string_output_adapter@_W@__crt_stdio_output@@@2@@__crt_stdio_output@@AAE_NXZ 100721ae f i libucrt:output.obj
 0001:000711ba       ?type_case_X@?$output_processor@_WV?$string_output_adapter@_W@__crt_stdio_output@@V?$standard_base@_WV?$string_output_adapter@_W@__crt_stdio_output@@@2@@__crt_stdio_output@@AAE_NXZ 100721ba f i libucrt:output.obj
 0001:000711c6       ?type_case_Z@?$output_processor@DV?$stream_output_adapter@D@__crt_stdio_output@@V?$format_validation_base@DV?$stream_output_adapter@D@__crt_stdio_output@@@2@@__crt_stdio_output@@AAE_NXZ 100721c6 f i libucrt:output.obj
 0001:0007123f       ?type_case_Z@?$output_processor@DV?$stream_output_adapter@D@__crt_stdio_output@@V?$positional_parameter_base@DV?$stream_output_adapter@D@__crt_stdio_output@@@2@@__crt_stdio_output@@AAE_NXZ 1007223f f i libucrt:output.obj
 0001:00071355       ?type_case_Z@?$output_processor@DV?$stream_output_adapter@D@__crt_stdio_output@@V?$standard_base@DV?$stream_output_adapter@D@__crt_stdio_output@@@2@@__crt_stdio_output@@AAE_NXZ 10072355 f i libucrt:output.obj
 0001:000713ce       ?type_case_Z@?$output_processor@DV?$string_output_adapter@D@__crt_stdio_output@@V?$format_validation_base@DV?$string_output_adapter@D@__crt_stdio_output@@@2@@__crt_stdio_output@@AAE_NXZ 100723ce f i libucrt:output.obj
 0001:00071447       ?type_case_Z@?$output_processor@DV?$string_output_adapter@D@__crt_stdio_output@@V?$positional_parameter_base@DV?$string_output_adapter@D@__crt_stdio_output@@@2@@__crt_stdio_output@@AAE_NXZ 10072447 f i libucrt:output.obj
 0001:0007155d       ?type_case_Z@?$output_processor@DV?$string_output_adapter@D@__crt_stdio_output@@V?$standard_base@DV?$string_output_adapter@D@__crt_stdio_output@@@2@@__crt_stdio_output@@AAE_NXZ 1007255d f i libucrt:output.obj
 0001:000715d6       ?type_case_Z@?$output_processor@_WV?$stream_output_adapter@_W@__crt_stdio_output@@V?$format_validation_base@_WV?$stream_output_adapter@_W@__crt_stdio_output@@@2@@__crt_stdio_output@@AAE_NXZ 100725d6 f i libucrt:output.obj
 0001:0007164f       ?type_case_Z@?$output_processor@_WV?$stream_output_adapter@_W@__crt_stdio_output@@V?$positional_parameter_base@_WV?$stream_output_adapter@_W@__crt_stdio_output@@@2@@__crt_stdio_output@@AAE_NXZ 1007264f f i libucrt:output.obj
 0001:00071765       ?type_case_Z@?$output_processor@_WV?$stream_output_adapter@_W@__crt_stdio_output@@V?$standard_base@_WV?$stream_output_adapter@_W@__crt_stdio_output@@@2@@__crt_stdio_output@@AAE_NXZ 10072765 f i libucrt:output.obj
 0001:000717de       ?type_case_Z@?$output_processor@_WV?$string_output_adapter@_W@__crt_stdio_output@@V?$format_validation_base@_WV?$string_output_adapter@_W@__crt_stdio_output@@@2@@__crt_stdio_output@@AAE_NXZ 100727de f i libucrt:output.obj
 0001:00071857       ?type_case_Z@?$output_processor@_WV?$string_output_adapter@_W@__crt_stdio_output@@V?$positional_parameter_base@_WV?$string_output_adapter@_W@__crt_stdio_output@@@2@@__crt_stdio_output@@AAE_NXZ 10072857 f i libucrt:output.obj
 0001:0007196d       ?type_case_Z@?$output_processor@_WV?$string_output_adapter@_W@__crt_stdio_output@@V?$standard_base@_WV?$string_output_adapter@_W@__crt_stdio_output@@@2@@__crt_stdio_output@@AAE_NXZ 1007296d f i libucrt:output.obj
 0001:000719e6       ?type_case_a@?$output_processor@DV?$stream_output_adapter@D@__crt_stdio_output@@V?$format_validation_base@DV?$stream_output_adapter@D@__crt_stdio_output@@@2@@__crt_stdio_output@@AAE_NXZ 100729e6 f i libucrt:output.obj
 0001:00071b95       ?type_case_a@?$output_processor@DV?$stream_output_adapter@D@__crt_stdio_output@@V?$positional_parameter_base@DV?$stream_output_adapter@D@__crt_stdio_output@@@2@@__crt_stdio_output@@AAE_NXZ 10072b95 f i libucrt:output.obj
 0001:00071d6b       ?type_case_a@?$output_processor@DV?$stream_output_adapter@D@__crt_stdio_output@@V?$standard_base@DV?$stream_output_adapter@D@__crt_stdio_output@@@2@@__crt_stdio_output@@AAE_NXZ 10072d6b f i libucrt:output.obj
 0001:00071f1a       ?type_case_a@?$output_processor@DV?$string_output_adapter@D@__crt_stdio_output@@V?$format_validation_base@DV?$string_output_adapter@D@__crt_stdio_output@@@2@@__crt_stdio_output@@AAE_NXZ 10072f1a f i libucrt:output.obj
 0001:000720c9       ?type_case_a@?$output_processor@DV?$string_output_adapter@D@__crt_stdio_output@@V?$positional_parameter_base@DV?$string_output_adapter@D@__crt_stdio_output@@@2@@__crt_stdio_output@@AAE_NXZ 100730c9 f i libucrt:output.obj
 0001:0007229f       ?type_case_a@?$output_processor@DV?$string_output_adapter@D@__crt_stdio_output@@V?$standard_base@DV?$string_output_adapter@D@__crt_stdio_output@@@2@@__crt_stdio_output@@AAE_NXZ 1007329f f i libucrt:output.obj
 0001:0007244e       ?type_case_a@?$output_processor@_WV?$stream_output_adapter@_W@__crt_stdio_output@@V?$format_validation_base@_WV?$stream_output_adapter@_W@__crt_stdio_output@@@2@@__crt_stdio_output@@AAE_NXZ 1007344e f i libucrt:output.obj
 0001:00072618       ?type_case_a@?$output_processor@_WV?$stream_output_adapter@_W@__crt_stdio_output@@V?$positional_parameter_base@_WV?$stream_output_adapter@_W@__crt_stdio_output@@@2@@__crt_stdio_output@@AAE_NXZ 10073618 f i libucrt:output.obj
 0001:00072809       ?type_case_a@?$output_processor@_WV?$stream_output_adapter@_W@__crt_stdio_output@@V?$standard_base@_WV?$stream_output_adapter@_W@__crt_stdio_output@@@2@@__crt_stdio_output@@AAE_NXZ 10073809 f i libucrt:output.obj
 0001:000729d3       ?type_case_a@?$output_processor@_WV?$string_output_adapter@_W@__crt_stdio_output@@V?$format_validation_base@_WV?$string_output_adapter@_W@__crt_stdio_output@@@2@@__crt_stdio_output@@AAE_NXZ 100739d3 f i libucrt:output.obj
 0001:00072b9d       ?type_case_a@?$output_processor@_WV?$string_output_adapter@_W@__crt_stdio_output@@V?$positional_parameter_base@_WV?$string_output_adapter@_W@__crt_stdio_output@@@2@@__crt_stdio_output@@AAE_NXZ 10073b9d f i libucrt:output.obj
 0001:00072d8e       ?type_case_a@?$output_processor@_WV?$string_output_adapter@_W@__crt_stdio_output@@V?$standard_base@_WV?$string_output_adapter@_W@__crt_stdio_output@@@2@@__crt_stdio_output@@AAE_NXZ 10073d8e f i libucrt:output.obj
 0001:00072f58       ?type_case_c@?$output_processor@DV?$stream_output_adapter@D@__crt_stdio_output@@V?$format_validation_base@DV?$stream_output_adapter@D@__crt_stdio_output@@@2@@__crt_stdio_output@@AAE_NXZ 10073f58 f i libucrt:output.obj
 0001:00072f62       ?type_case_c@?$output_processor@DV?$stream_output_adapter@D@__crt_stdio_output@@V?$positional_parameter_base@DV?$stream_output_adapter@D@__crt_stdio_output@@@2@@__crt_stdio_output@@AAE_NXZ 10073f62 f i libucrt:output.obj
 0001:00072f6c       ?type_case_c@?$output_processor@DV?$stream_output_adapter@D@__crt_stdio_output@@V?$standard_base@DV?$stream_output_adapter@D@__crt_stdio_output@@@2@@__crt_stdio_output@@AAE_NXZ 10073f6c f i libucrt:output.obj
 0001:00072f76       ?type_case_c@?$output_processor@DV?$string_output_adapter@D@__crt_stdio_output@@V?$format_validation_base@DV?$string_output_adapter@D@__crt_stdio_output@@@2@@__crt_stdio_output@@AAE_NXZ 10073f76 f i libucrt:output.obj
 0001:00072f80       ?type_case_c@?$output_processor@DV?$string_output_adapter@D@__crt_stdio_output@@V?$positional_parameter_base@DV?$string_output_adapter@D@__crt_stdio_output@@@2@@__crt_stdio_output@@AAE_NXZ 10073f80 f i libucrt:output.obj
 0001:00072f8a       ?type_case_c@?$output_processor@DV?$string_output_adapter@D@__crt_stdio_output@@V?$standard_base@DV?$string_output_adapter@D@__crt_stdio_output@@@2@@__crt_stdio_output@@AAE_NXZ 10073f8a f i libucrt:output.obj
 0001:00072f94       ?type_case_c@?$output_processor@_WV?$stream_output_adapter@_W@__crt_stdio_output@@V?$format_validation_base@_WV?$stream_output_adapter@_W@__crt_stdio_output@@@2@@__crt_stdio_output@@AAE_NXZ 10073f94 f i libucrt:output.obj
 0001:00072f9e       ?type_case_c@?$output_processor@_WV?$stream_output_adapter@_W@__crt_stdio_output@@V?$positional_parameter_base@_WV?$stream_output_adapter@_W@__crt_stdio_output@@@2@@__crt_stdio_output@@AAE_NXZ 10073f9e f i libucrt:output.obj
 0001:00072fa8       ?type_case_c@?$output_processor@_WV?$stream_output_adapter@_W@__crt_stdio_output@@V?$standard_base@_WV?$stream_output_adapter@_W@__crt_stdio_output@@@2@@__crt_stdio_output@@AAE_NXZ 10073fa8 f i libucrt:output.obj
 0001:00072fb2       ?type_case_c@?$output_processor@_WV?$string_output_adapter@_W@__crt_stdio_output@@V?$format_validation_base@_WV?$string_output_adapter@_W@__crt_stdio_output@@@2@@__crt_stdio_output@@AAE_NXZ 10073fb2 f i libucrt:output.obj
 0001:00072fbc       ?type_case_c@?$output_processor@_WV?$string_output_adapter@_W@__crt_stdio_output@@V?$positional_parameter_base@_WV?$string_output_adapter@_W@__crt_stdio_output@@@2@@__crt_stdio_output@@AAE_NXZ 10073fbc f i libucrt:output.obj
 0001:00072fc6       ?type_case_c@?$output_processor@_WV?$string_output_adapter@_W@__crt_stdio_output@@V?$standard_base@_WV?$string_output_adapter@_W@__crt_stdio_output@@@2@@__crt_stdio_output@@AAE_NXZ 10073fc6 f i libucrt:output.obj
 0001:00072fd0       ?type_case_c_tchar@?$output_processor@DV?$stream_output_adapter@D@__crt_stdio_output@@V?$format_validation_base@DV?$stream_output_adapter@D@__crt_stdio_output@@@2@@__crt_stdio_output@@AAE_ND@Z 10073fd0 f i libucrt:output.obj
 0001:00073084       ?type_case_c_tchar@?$output_processor@DV?$stream_output_adapter@D@__crt_stdio_output@@V?$positional_parameter_base@DV?$stream_output_adapter@D@__crt_stdio_output@@@2@@__crt_stdio_output@@AAE_ND@Z 10074084 f i libucrt:output.obj
 0001:00073174       ?type_case_c_tchar@?$output_processor@DV?$stream_output_adapter@D@__crt_stdio_output@@V?$standard_base@DV?$stream_output_adapter@D@__crt_stdio_output@@@2@@__crt_stdio_output@@AAE_ND@Z 10074174 f i libucrt:output.obj
 0001:00073228       ?type_case_c_tchar@?$output_processor@DV?$string_output_adapter@D@__crt_stdio_output@@V?$format_validation_base@DV?$string_output_adapter@D@__crt_stdio_output@@@2@@__crt_stdio_output@@AAE_ND@Z 10074228 f i libucrt:output.obj
 0001:000732dc       ?type_case_c_tchar@?$output_processor@DV?$string_output_adapter@D@__crt_stdio_output@@V?$positional_parameter_base@DV?$string_output_adapter@D@__crt_stdio_output@@@2@@__crt_stdio_output@@AAE_ND@Z 100742dc f i libucrt:output.obj
 0001:000733cc       ?type_case_c_tchar@?$output_processor@DV?$string_output_adapter@D@__crt_stdio_output@@V?$standard_base@DV?$string_output_adapter@D@__crt_stdio_output@@@2@@__crt_stdio_output@@AAE_ND@Z 100743cc f i libucrt:output.obj
 0001:00073480       ?type_case_c_tchar@?$output_processor@_WV?$stream_output_adapter@_W@__crt_stdio_output@@V?$format_validation_base@_WV?$stream_output_adapter@_W@__crt_stdio_output@@@2@@__crt_stdio_output@@AAE_N_W@Z 10074480 f i libucrt:output.obj
 0001:0007353e       ?type_case_c_tchar@?$output_processor@_WV?$stream_output_adapter@_W@__crt_stdio_output@@V?$positional_parameter_base@_WV?$stream_output_adapter@_W@__crt_stdio_output@@@2@@__crt_stdio_output@@AAE_N_W@Z 1007453e f i libucrt:output.obj
 0001:00073618       ?type_case_c_tchar@?$output_processor@_WV?$stream_output_adapter@_W@__crt_stdio_output@@V?$standard_base@_WV?$stream_output_adapter@_W@__crt_stdio_output@@@2@@__crt_stdio_output@@AAE_N_W@Z 10074618 f i libucrt:output.obj
 0001:000736d6       ?type_case_c_tchar@?$output_processor@_WV?$string_output_adapter@_W@__crt_stdio_output@@V?$format_validation_base@_WV?$string_output_adapter@_W@__crt_stdio_output@@@2@@__crt_stdio_output@@AAE_N_W@Z 100746d6 f i libucrt:output.obj
 0001:00073794       ?type_case_c_tchar@?$output_processor@_WV?$string_output_adapter@_W@__crt_stdio_output@@V?$positional_parameter_base@_WV?$string_output_adapter@_W@__crt_stdio_output@@@2@@__crt_stdio_output@@AAE_N_W@Z 10074794 f i libucrt:output.obj
 0001:0007386e       ?type_case_c_tchar@?$output_processor@_WV?$string_output_adapter@_W@__crt_stdio_output@@V?$standard_base@_WV?$string_output_adapter@_W@__crt_stdio_output@@@2@@__crt_stdio_output@@AAE_N_W@Z 1007486e f i libucrt:output.obj
 0001:0007392c       ?type_case_d@?$output_processor@DV?$stream_output_adapter@D@__crt_stdio_output@@V?$format_validation_base@DV?$stream_output_adapter@D@__crt_stdio_output@@@2@@__crt_stdio_output@@AAE_NXZ 1007492c f i libucrt:output.obj
 0001:0007393d       ?type_case_d@?$output_processor@DV?$stream_output_adapter@D@__crt_stdio_output@@V?$positional_parameter_base@DV?$stream_output_adapter@D@__crt_stdio_output@@@2@@__crt_stdio_output@@AAE_NXZ 1007493d f i libucrt:output.obj
 0001:0007394e       ?type_case_d@?$output_processor@DV?$stream_output_adapter@D@__crt_stdio_output@@V?$standard_base@DV?$stream_output_adapter@D@__crt_stdio_output@@@2@@__crt_stdio_output@@AAE_NXZ 1007494e f i libucrt:output.obj
 0001:0007395f       ?type_case_d@?$output_processor@DV?$string_output_adapter@D@__crt_stdio_output@@V?$format_validation_base@DV?$string_output_adapter@D@__crt_stdio_output@@@2@@__crt_stdio_output@@AAE_NXZ 1007495f f i libucrt:output.obj
 0001:00073970       ?type_case_d@?$output_processor@DV?$string_output_adapter@D@__crt_stdio_output@@V?$positional_parameter_base@DV?$string_output_adapter@D@__crt_stdio_output@@@2@@__crt_stdio_output@@AAE_NXZ 10074970 f i libucrt:output.obj
 0001:00073981       ?type_case_d@?$output_processor@DV?$string_output_adapter@D@__crt_stdio_output@@V?$standard_base@DV?$string_output_adapter@D@__crt_stdio_output@@@2@@__crt_stdio_output@@AAE_NXZ 10074981 f i libucrt:output.obj
 0001:00073992       ?type_case_d@?$output_processor@_WV?$stream_output_adapter@_W@__crt_stdio_output@@V?$format_validation_base@_WV?$stream_output_adapter@_W@__crt_stdio_output@@@2@@__crt_stdio_output@@AAE_NXZ 10074992 f i libucrt:output.obj
 0001:000739a3       ?type_case_d@?$output_processor@_WV?$stream_output_adapter@_W@__crt_stdio_output@@V?$positional_parameter_base@_WV?$stream_output_adapter@_W@__crt_stdio_output@@@2@@__crt_stdio_output@@AAE_NXZ 100749a3 f i libucrt:output.obj
 0001:000739b4       ?type_case_d@?$output_processor@_WV?$stream_output_adapter@_W@__crt_stdio_output@@V?$standard_base@_WV?$stream_output_adapter@_W@__crt_stdio_output@@@2@@__crt_stdio_output@@AAE_NXZ 100749b4 f i libucrt:output.obj
 0001:000739c5       ?type_case_d@?$output_processor@_WV?$string_output_adapter@_W@__crt_stdio_output@@V?$format_validation_base@_WV?$string_output_adapter@_W@__crt_stdio_output@@@2@@__crt_stdio_output@@AAE_NXZ 100749c5 f i libucrt:output.obj
 0001:000739d6       ?type_case_d@?$output_processor@_WV?$string_output_adapter@_W@__crt_stdio_output@@V?$positional_parameter_base@_WV?$string_output_adapter@_W@__crt_stdio_output@@@2@@__crt_stdio_output@@AAE_NXZ 100749d6 f i libucrt:output.obj
 0001:000739e7       ?type_case_d@?$output_processor@_WV?$string_output_adapter@_W@__crt_stdio_output@@V?$standard_base@_WV?$string_output_adapter@_W@__crt_stdio_output@@@2@@__crt_stdio_output@@AAE_NXZ 100749e7 f i libucrt:output.obj
 0001:000739f8       ?type_case_integer@?$output_processor@DV?$stream_output_adapter@D@__crt_stdio_output@@V?$format_validation_base@DV?$stream_output_adapter@D@__crt_stdio_output@@@2@@__crt_stdio_output@@AAE_NI_N@Z 100749f8 f i libucrt:output.obj
 0001:00073b9f       ?type_case_integer@?$output_processor@DV?$stream_output_adapter@D@__crt_stdio_output@@V?$positional_parameter_base@DV?$stream_output_adapter@D@__crt_stdio_output@@@2@@__crt_stdio_output@@AAE_NI_N@Z 10074b9f f i libucrt:output.obj
 0001:00073d82       ?type_case_integer@?$output_processor@DV?$stream_output_adapter@D@__crt_stdio_output@@V?$standard_base@DV?$stream_output_adapter@D@__crt_stdio_output@@@2@@__crt_stdio_output@@AAE_NI_N@Z 10074d82 f i libucrt:output.obj
 0001:00073f29       ?type_case_integer@?$output_processor@DV?$string_output_adapter@D@__crt_stdio_output@@V?$format_validation_base@DV?$string_output_adapter@D@__crt_stdio_output@@@2@@__crt_stdio_output@@AAE_NI_N@Z 10074f29 f i libucrt:output.obj
 0001:000740d0       ?type_case_integer@?$output_processor@DV?$string_output_adapter@D@__crt_stdio_output@@V?$positional_parameter_base@DV?$string_output_adapter@D@__crt_stdio_output@@@2@@__crt_stdio_output@@AAE_NI_N@Z 100750d0 f i libucrt:output.obj
 0001:000742b3       ?type_case_integer@?$output_processor@DV?$string_output_adapter@D@__crt_stdio_output@@V?$standard_base@DV?$string_output_adapter@D@__crt_stdio_output@@@2@@__crt_stdio_output@@AAE_NI_N@Z 100752b3 f i libucrt:output.obj
 0001:0007445a       ?type_case_integer@?$output_processor@_WV?$stream_output_adapter@_W@__crt_stdio_output@@V?$format_validation_base@_WV?$stream_output_adapter@_W@__crt_stdio_output@@@2@@__crt_stdio_output@@AAE_NI_N@Z 1007545a f i libucrt:output.obj
 0001:00074606       ?type_case_integer@?$output_processor@_WV?$stream_output_adapter@_W@__crt_stdio_output@@V?$positional_parameter_base@_WV?$stream_output_adapter@_W@__crt_stdio_output@@@2@@__crt_stdio_output@@AAE_NI_N@Z 10075606 f i libucrt:output.obj
 0001:000747ee       ?type_case_integer@?$output_processor@_WV?$stream_output_adapter@_W@__crt_stdio_output@@V?$standard_base@_WV?$stream_output_adapter@_W@__crt_stdio_output@@@2@@__crt_stdio_output@@AAE_NI_N@Z 100757ee f i libucrt:output.obj
 0001:0007499a       ?type_case_integer@?$output_processor@_WV?$string_output_adapter@_W@__crt_stdio_output@@V?$format_validation_base@_WV?$string_output_adapter@_W@__crt_stdio_output@@@2@@__crt_stdio_output@@AAE_NI_N@Z 1007599a f i libucrt:output.obj
 0001:00074b46       ?type_case_integer@?$output_processor@_WV?$string_output_adapter@_W@__crt_stdio_output@@V?$positional_parameter_base@_WV?$string_output_adapter@_W@__crt_stdio_output@@@2@@__crt_stdio_output@@AAE_NI_N@Z 10075b46 f i libucrt:output.obj
 0001:00074d2e       ?type_case_integer@?$output_processor@_WV?$string_output_adapter@_W@__crt_stdio_output@@V?$standard_base@_WV?$string_output_adapter@_W@__crt_stdio_output@@@2@@__crt_stdio_output@@AAE_NI_N@Z 10075d2e f i libucrt:output.obj
 0001:00074eda       ?type_case_n@?$output_processor@DV?$stream_output_adapter@D@__crt_stdio_output@@V?$format_validation_base@DV?$stream_output_adapter@D@__crt_stdio_output@@@2@@__crt_stdio_output@@AAE_NXZ 10075eda f i libucrt:output.obj
 0001:00074f6b       ?type_case_n@?$output_processor@DV?$stream_output_adapter@D@__crt_stdio_output@@V?$positional_parameter_base@DV?$stream_output_adapter@D@__crt_stdio_output@@@2@@__crt_stdio_output@@AAE_NXZ 10075f6b f i libucrt:output.obj
 0001:0007502a       ?type_case_n@?$output_processor@DV?$stream_output_adapter@D@__crt_stdio_output@@V?$standard_base@DV?$stream_output_adapter@D@__crt_stdio_output@@@2@@__crt_stdio_output@@AAE_NXZ 1007602a f i libucrt:output.obj
 0001:000750bb       ?type_case_n@?$output_processor@DV?$string_output_adapter@D@__crt_stdio_output@@V?$format_validation_base@DV?$string_output_adapter@D@__crt_stdio_output@@@2@@__crt_stdio_output@@AAE_NXZ 100760bb f i libucrt:output.obj
 0001:0007514c       ?type_case_n@?$output_processor@DV?$string_output_adapter@D@__crt_stdio_output@@V?$positional_parameter_base@DV?$string_output_adapter@D@__crt_stdio_output@@@2@@__crt_stdio_output@@AAE_NXZ 1007614c f i libucrt:output.obj
 0001:0007520b       ?type_case_n@?$output_processor@DV?$string_output_adapter@D@__crt_stdio_output@@V?$standard_base@DV?$string_output_adapter@D@__crt_stdio_output@@@2@@__crt_stdio_output@@AAE_NXZ 1007620b f i libucrt:output.obj
 0001:0007529c       ?type_case_n@?$output_processor@_WV?$stream_output_adapter@_W@__crt_stdio_output@@V?$format_validation_base@_WV?$stream_output_adapter@_W@__crt_stdio_output@@@2@@__crt_stdio_output@@AAE_NXZ 1007629c f i libucrt:output.obj
 0001:0007532d       ?type_case_n@?$output_processor@_WV?$stream_output_adapter@_W@__crt_stdio_output@@V?$positional_parameter_base@_WV?$stream_output_adapter@_W@__crt_stdio_output@@@2@@__crt_stdio_output@@AAE_NXZ 1007632d f i libucrt:output.obj
 0001:000753ec       ?type_case_n@?$output_processor@_WV?$stream_output_adapter@_W@__crt_stdio_output@@V?$standard_base@_WV?$stream_output_adapter@_W@__crt_stdio_output@@@2@@__crt_stdio_output@@AAE_NXZ 100763ec f i libucrt:output.obj
 0001:0007547d       ?type_case_n@?$output_processor@_WV?$string_output_adapter@_W@__crt_stdio_output@@V?$format_validation_base@_WV?$string_output_adapter@_W@__crt_stdio_output@@@2@@__crt_stdio_output@@AAE_NXZ 1007647d f i libucrt:output.obj
 0001:0007550e       ?type_case_n@?$output_processor@_WV?$string_output_adapter@_W@__crt_stdio_output@@V?$positional_parameter_base@_WV?$string_output_adapter@_W@__crt_stdio_output@@@2@@__crt_stdio_output@@AAE_NXZ 1007650e f i libucrt:output.obj
 0001:000755cd       ?type_case_n@?$output_processor@_WV?$string_output_adapter@_W@__crt_stdio_output@@V?$standard_base@_WV?$string_output_adapter@_W@__crt_stdio_output@@@2@@__crt_stdio_output@@AAE_NXZ 100765cd f i libucrt:output.obj
 0001:0007565e       ?type_case_o@?$output_processor@DV?$stream_output_adapter@D@__crt_stdio_output@@V?$format_validation_base@DV?$stream_output_adapter@D@__crt_stdio_output@@@2@@__crt_stdio_output@@AAE_NXZ 1007665e f i libucrt:output.obj
 0001:00075684       ?type_case_o@?$output_processor@DV?$stream_output_adapter@D@__crt_stdio_output@@V?$positional_parameter_base@DV?$stream_output_adapter@D@__crt_stdio_output@@@2@@__crt_stdio_output@@AAE_NXZ 10076684 f i libucrt:output.obj
 0001:000756aa       ?type_case_o@?$output_processor@DV?$stream_output_adapter@D@__crt_stdio_output@@V?$standard_base@DV?$stream_output_adapter@D@__crt_stdio_output@@@2@@__crt_stdio_output@@AAE_NXZ 100766aa f i libucrt:output.obj
 0001:000756d0       ?type_case_o@?$output_processor@DV?$string_output_adapter@D@__crt_stdio_output@@V?$format_validation_base@DV?$string_output_adapter@D@__crt_stdio_output@@@2@@__crt_stdio_output@@AAE_NXZ 100766d0 f i libucrt:output.obj
 0001:000756f6       ?type_case_o@?$output_processor@DV?$string_output_adapter@D@__crt_stdio_output@@V?$positional_parameter_base@DV?$string_output_adapter@D@__crt_stdio_output@@@2@@__crt_stdio_output@@AAE_NXZ 100766f6 f i libucrt:output.obj
 0001:0007571c       ?type_case_o@?$output_processor@DV?$string_output_adapter@D@__crt_stdio_output@@V?$standard_base@DV?$string_output_adapter@D@__crt_stdio_output@@@2@@__crt_stdio_output@@AAE_NXZ 1007671c f i libucrt:output.obj
 0001:00075742       ?type_case_o@?$output_processor@_WV?$stream_output_adapter@_W@__crt_stdio_output@@V?$format_validation_base@_WV?$stream_output_adapter@_W@__crt_stdio_output@@@2@@__crt_stdio_output@@AAE_NXZ 10076742 f i libucrt:output.obj
 0001:00075768       ?type_case_o@?$output_processor@_WV?$stream_output_adapter@_W@__crt_stdio_output@@V?$positional_parameter_base@_WV?$stream_output_adapter@_W@__crt_stdio_output@@@2@@__crt_stdio_output@@AAE_NXZ 10076768 f i libucrt:output.obj
 0001:0007578e       ?type_case_o@?$output_processor@_WV?$stream_output_adapter@_W@__crt_stdio_output@@V?$standard_base@_WV?$stream_output_adapter@_W@__crt_stdio_output@@@2@@__crt_stdio_output@@AAE_NXZ 1007678e f i libucrt:output.obj
 0001:000757b4       ?type_case_o@?$output_processor@_WV?$string_output_adapter@_W@__crt_stdio_output@@V?$format_validation_base@_WV?$string_output_adapter@_W@__crt_stdio_output@@@2@@__crt_stdio_output@@AAE_NXZ 100767b4 f i libucrt:output.obj
 0001:000757da       ?type_case_o@?$output_processor@_WV?$string_output_adapter@_W@__crt_stdio_output@@V?$positional_parameter_base@_WV?$string_output_adapter@_W@__crt_stdio_output@@@2@@__crt_stdio_output@@AAE_NXZ 100767da f i libucrt:output.obj
 0001:00075800       ?type_case_o@?$output_processor@_WV?$string_output_adapter@_W@__crt_stdio_output@@V?$standard_base@_WV?$string_output_adapter@_W@__crt_stdio_output@@@2@@__crt_stdio_output@@AAE_NXZ 10076800 f i libucrt:output.obj
 0001:00075826       ?type_case_p@?$output_processor@DV?$stream_output_adapter@D@__crt_stdio_output@@V?$format_validation_base@DV?$stream_output_adapter@D@__crt_stdio_output@@@2@@__crt_stdio_output@@AAE_NXZ 10076826 f i libucrt:output.obj
 0001:00075844       ?type_case_p@?$output_processor@DV?$stream_output_adapter@D@__crt_stdio_output@@V?$positional_parameter_base@DV?$stream_output_adapter@D@__crt_stdio_output@@@2@@__crt_stdio_output@@AAE_NXZ 10076844 f i libucrt:output.obj
 0001:00075862       ?type_case_p@?$output_processor@DV?$stream_output_adapter@D@__crt_stdio_output@@V?$standard_base@DV?$stream_output_adapter@D@__crt_stdio_output@@@2@@__crt_stdio_output@@AAE_NXZ 10076862 f i libucrt:output.obj
 0001:00075880       ?type_case_p@?$output_processor@DV?$string_output_adapter@D@__crt_stdio_output@@V?$format_validation_base@DV?$string_output_adapter@D@__crt_stdio_output@@@2@@__crt_stdio_output@@AAE_NXZ 10076880 f i libucrt:output.obj
 0001:0007589e       ?type_case_p@?$output_processor@DV?$string_output_adapter@D@__crt_stdio_output@@V?$positional_parameter_base@DV?$string_output_adapter@D@__crt_stdio_output@@@2@@__crt_stdio_output@@AAE_NXZ 1007689e f i libucrt:output.obj
 0001:000758bc       ?type_case_p@?$output_processor@DV?$string_output_adapter@D@__crt_stdio_output@@V?$standard_base@DV?$string_output_adapter@D@__crt_stdio_output@@@2@@__crt_stdio_output@@AAE_NXZ 100768bc f i libucrt:output.obj
 0001:000758da       ?type_case_p@?$output_processor@_WV?$stream_output_adapter@_W@__crt_stdio_output@@V?$format_validation_base@_WV?$stream_output_adapter@_W@__crt_stdio_output@@@2@@__crt_stdio_output@@AAE_NXZ 100768da f i libucrt:output.obj
 0001:000758f8       ?type_case_p@?$output_processor@_WV?$stream_output_adapter@_W@__crt_stdio_output@@V?$positional_parameter_base@_WV?$stream_output_adapter@_W@__crt_stdio_output@@@2@@__crt_stdio_output@@AAE_NXZ 100768f8 f i libucrt:output.obj
 0001:00075916       ?type_case_p@?$output_processor@_WV?$stream_output_adapter@_W@__crt_stdio_output@@V?$standard_base@_WV?$stream_output_adapter@_W@__crt_stdio_output@@@2@@__crt_stdio_output@@AAE_NXZ 10076916 f i libucrt:output.obj
 0001:00075934       ?type_case_p@?$output_processor@_WV?$string_output_adapter@_W@__crt_stdio_output@@V?$format_validation_base@_WV?$string_output_adapter@_W@__crt_stdio_output@@@2@@__crt_stdio_output@@AAE_NXZ 10076934 f i libucrt:output.obj
 0001:00075952       ?type_case_p@?$output_processor@_WV?$string_output_adapter@_W@__crt_stdio_output@@V?$positional_parameter_base@_WV?$string_output_adapter@_W@__crt_stdio_output@@@2@@__crt_stdio_output@@AAE_NXZ 10076952 f i libucrt:output.obj
 0001:00075970       ?type_case_p@?$output_processor@_WV?$string_output_adapter@_W@__crt_stdio_output@@V?$standard_base@_WV?$string_output_adapter@_W@__crt_stdio_output@@@2@@__crt_stdio_output@@AAE_NXZ 10076970 f i libucrt:output.obj
 0001:0007598e       ?type_case_s@?$output_processor@DV?$stream_output_adapter@D@__crt_stdio_output@@V?$format_validation_base@DV?$stream_output_adapter@D@__crt_stdio_output@@@2@@__crt_stdio_output@@AAE_NXZ 1007698e f i libucrt:output.obj
 0001:00075a1b       ?type_case_s@?$output_processor@DV?$stream_output_adapter@D@__crt_stdio_output@@V?$positional_parameter_base@DV?$stream_output_adapter@D@__crt_stdio_output@@@2@@__crt_stdio_output@@AAE_NXZ 10076a1b f i libucrt:output.obj
 0001:00075ab8       ?type_case_s@?$output_processor@DV?$stream_output_adapter@D@__crt_stdio_output@@V?$standard_base@DV?$stream_output_adapter@D@__crt_stdio_output@@@2@@__crt_stdio_output@@AAE_NXZ 10076ab8 f i libucrt:output.obj
 0001:00075b45       ?type_case_s@?$output_processor@DV?$string_output_adapter@D@__crt_stdio_output@@V?$format_validation_base@DV?$string_output_adapter@D@__crt_stdio_output@@@2@@__crt_stdio_output@@AAE_NXZ 10076b45 f i libucrt:output.obj
 0001:00075bd2       ?type_case_s@?$output_processor@DV?$string_output_adapter@D@__crt_stdio_output@@V?$positional_parameter_base@DV?$string_output_adapter@D@__crt_stdio_output@@@2@@__crt_stdio_output@@AAE_NXZ 10076bd2 f i libucrt:output.obj
 0001:00075c6f       ?type_case_s@?$output_processor@DV?$string_output_adapter@D@__crt_stdio_output@@V?$standard_base@DV?$string_output_adapter@D@__crt_stdio_output@@@2@@__crt_stdio_output@@AAE_NXZ 10076c6f f i libucrt:output.obj
 0001:00075cfc       ?type_case_s@?$output_processor@_WV?$stream_output_adapter@_W@__crt_stdio_output@@V?$format_validation_base@_WV?$stream_output_adapter@_W@__crt_stdio_output@@@2@@__crt_stdio_output@@AAE_NXZ 10076cfc f i libucrt:output.obj
 0001:00075d8b       ?type_case_s@?$output_processor@_WV?$stream_output_adapter@_W@__crt_stdio_output@@V?$positional_parameter_base@_WV?$stream_output_adapter@_W@__crt_stdio_output@@@2@@__crt_stdio_output@@AAE_NXZ 10076d8b f i libucrt:output.obj
 0001:00075e2b       ?type_case_s@?$output_processor@_WV?$stream_output_adapter@_W@__crt_stdio_output@@V?$standard_base@_WV?$stream_output_adapter@_W@__crt_stdio_output@@@2@@__crt_stdio_output@@AAE_NXZ 10076e2b f i libucrt:output.obj
 0001:00075eba       ?type_case_s@?$output_processor@_WV?$string_output_adapter@_W@__crt_stdio_output@@V?$format_validation_base@_WV?$string_output_adapter@_W@__crt_stdio_output@@@2@@__crt_stdio_output@@AAE_NXZ 10076eba f i libucrt:output.obj
 0001:00075f49       ?type_case_s@?$output_processor@_WV?$string_output_adapter@_W@__crt_stdio_output@@V?$positional_parameter_base@_WV?$string_output_adapter@_W@__crt_stdio_output@@@2@@__crt_stdio_output@@AAE_NXZ 10076f49 f i libucrt:output.obj
 0001:00075fe9       ?type_case_s@?$output_processor@_WV?$string_output_adapter@_W@__crt_stdio_output@@V?$standard_base@_WV?$string_output_adapter@_W@__crt_stdio_output@@@2@@__crt_stdio_output@@AAE_NXZ 10076fe9 f i libucrt:output.obj
 0001:00076078       ?type_case_s_compute_narrow_string_length@?$output_processor@DV?$stream_output_adapter@D@__crt_stdio_output@@V?$format_validation_base@DV?$stream_output_adapter@D@__crt_stdio_output@@@2@@__crt_stdio_output@@ABEHHD@Z 10077078 f i libucrt:output.obj
 0001:00076093       ?type_case_s_compute_narrow_string_length@?$output_processor@DV?$stream_output_adapter@D@__crt_stdio_output@@V?$positional_parameter_base@DV?$stream_output_adapter@D@__crt_stdio_output@@@2@@__crt_stdio_output@@ABEHHD@Z 10077093 f i libucrt:output.obj
 0001:000760ae       ?type_case_s_compute_narrow_string_length@?$output_processor@DV?$stream_output_adapter@D@__crt_stdio_output@@V?$standard_base@DV?$stream_output_adapter@D@__crt_stdio_output@@@2@@__crt_stdio_output@@ABEHHD@Z 100770ae f i libucrt:output.obj
 0001:000760c9       ?type_case_s_compute_narrow_string_length@?$output_processor@DV?$string_output_adapter@D@__crt_stdio_output@@V?$format_validation_base@DV?$string_output_adapter@D@__crt_stdio_output@@@2@@__crt_stdio_output@@ABEHHD@Z 100770c9 f i libucrt:output.obj
 0001:000760e4       ?type_case_s_compute_narrow_string_length@?$output_processor@DV?$string_output_adapter@D@__crt_stdio_output@@V?$positional_parameter_base@DV?$string_output_adapter@D@__crt_stdio_output@@@2@@__crt_stdio_output@@ABEHHD@Z 100770e4 f i libucrt:output.obj
 0001:000760ff       ?type_case_s_compute_narrow_string_length@?$output_processor@DV?$string_output_adapter@D@__crt_stdio_output@@V?$standard_base@DV?$string_output_adapter@D@__crt_stdio_output@@@2@@__crt_stdio_output@@ABEHHD@Z 100770ff f i libucrt:output.obj
 0001:0007611a       ?type_case_s_compute_narrow_string_length@?$output_processor@_WV?$stream_output_adapter@_W@__crt_stdio_output@@V?$format_validation_base@_WV?$stream_output_adapter@_W@__crt_stdio_output@@@2@@__crt_stdio_output@@ABEHH_W@Z 1007711a f i libucrt:output.obj
 0001:00076166       ?type_case_s_compute_narrow_string_length@?$output_processor@_WV?$stream_output_adapter@_W@__crt_stdio_output@@V?$positional_parameter_base@_WV?$stream_output_adapter@_W@__crt_stdio_output@@@2@@__crt_stdio_output@@ABEHH_W@Z 10077166 f i libucrt:output.obj
 0001:000761b2       ?type_case_s_compute_narrow_string_length@?$output_processor@_WV?$stream_output_adapter@_W@__crt_stdio_output@@V?$standard_base@_WV?$stream_output_adapter@_W@__crt_stdio_output@@@2@@__crt_stdio_output@@ABEHH_W@Z 100771b2 f i libucrt:output.obj
 0001:000761fe       ?type_case_s_compute_narrow_string_length@?$output_processor@_WV?$string_output_adapter@_W@__crt_stdio_output@@V?$format_validation_base@_WV?$string_output_adapter@_W@__crt_stdio_output@@@2@@__crt_stdio_output@@ABEHH_W@Z 100771fe f i libucrt:output.obj
 0001:0007624a       ?type_case_s_compute_narrow_string_length@?$output_processor@_WV?$string_output_adapter@_W@__crt_stdio_output@@V?$positional_parameter_base@_WV?$string_output_adapter@_W@__crt_stdio_output@@@2@@__crt_stdio_output@@ABEHH_W@Z 1007724a f i libucrt:output.obj
 0001:00076296       ?type_case_s_compute_narrow_string_length@?$output_processor@_WV?$string_output_adapter@_W@__crt_stdio_output@@V?$standard_base@_WV?$string_output_adapter@_W@__crt_stdio_output@@@2@@__crt_stdio_output@@ABEHH_W@Z 10077296 f i libucrt:output.obj
 0001:000762e2       ?type_case_u@?$output_processor@DV?$stream_output_adapter@D@__crt_stdio_output@@V?$format_validation_base@DV?$stream_output_adapter@D@__crt_stdio_output@@@2@@__crt_stdio_output@@AAE_NXZ 100772e2 f i libucrt:output.obj
 0001:000762ee       ?type_case_u@?$output_processor@DV?$stream_output_adapter@D@__crt_stdio_output@@V?$positional_parameter_base@DV?$stream_output_adapter@D@__crt_stdio_output@@@2@@__crt_stdio_output@@AAE_NXZ 100772ee f i libucrt:output.obj
 0001:000762fa       ?type_case_u@?$output_processor@DV?$stream_output_adapter@D@__crt_stdio_output@@V?$standard_base@DV?$stream_output_adapter@D@__crt_stdio_output@@@2@@__crt_stdio_output@@AAE_NXZ 100772fa f i libucrt:output.obj
 0001:00076306       ?type_case_u@?$output_processor@DV?$string_output_adapter@D@__crt_stdio_output@@V?$format_validation_base@DV?$string_output_adapter@D@__crt_stdio_output@@@2@@__crt_stdio_output@@AAE_NXZ 10077306 f i libucrt:output.obj
 0001:00076312       ?type_case_u@?$output_processor@DV?$string_output_adapter@D@__crt_stdio_output@@V?$positional_parameter_base@DV?$string_output_adapter@D@__crt_stdio_output@@@2@@__crt_stdio_output@@AAE_NXZ 10077312 f i libucrt:output.obj
 0001:0007631e       ?type_case_u@?$output_processor@DV?$string_output_adapter@D@__crt_stdio_output@@V?$standard_base@DV?$string_output_adapter@D@__crt_stdio_output@@@2@@__crt_stdio_output@@AAE_NXZ 1007731e f i libucrt:output.obj
 0001:0007632a       ?type_case_u@?$output_processor@_WV?$stream_output_adapter@_W@__crt_stdio_output@@V?$format_validation_base@_WV?$stream_output_adapter@_W@__crt_stdio_output@@@2@@__crt_stdio_output@@AAE_NXZ 1007732a f i libucrt:output.obj
 0001:00076336       ?type_case_u@?$output_processor@_WV?$stream_output_adapter@_W@__crt_stdio_output@@V?$positional_parameter_base@_WV?$stream_output_adapter@_W@__crt_stdio_output@@@2@@__crt_stdio_output@@AAE_NXZ 10077336 f i libucrt:output.obj
 0001:00076342       ?type_case_u@?$output_processor@_WV?$stream_output_adapter@_W@__crt_stdio_output@@V?$standard_base@_WV?$stream_output_adapter@_W@__crt_stdio_output@@@2@@__crt_stdio_output@@AAE_NXZ 10077342 f i libucrt:output.obj
 0001:0007634e       ?type_case_u@?$output_processor@_WV?$string_output_adapter@_W@__crt_stdio_output@@V?$format_validation_base@_WV?$string_output_adapter@_W@__crt_stdio_output@@@2@@__crt_stdio_output@@AAE_NXZ 1007734e f i libucrt:output.obj
 0001:0007635a       ?type_case_u@?$output_processor@_WV?$string_output_adapter@_W@__crt_stdio_output@@V?$positional_parameter_base@_WV?$string_output_adapter@_W@__crt_stdio_output@@@2@@__crt_stdio_output@@AAE_NXZ 1007735a f i libucrt:output.obj
 0001:00076366       ?type_case_u@?$output_processor@_WV?$string_output_adapter@_W@__crt_stdio_output@@V?$standard_base@_WV?$string_output_adapter@_W@__crt_stdio_output@@@2@@__crt_stdio_output@@AAE_NXZ 10077366 f i libucrt:output.obj
 0001:00076372       ?type_case_x@?$output_processor@DV?$stream_output_adapter@D@__crt_stdio_output@@V?$format_validation_base@DV?$stream_output_adapter@D@__crt_stdio_output@@@2@@__crt_stdio_output@@AAE_NXZ 10077372 f i libucrt:output.obj
 0001:0007637e       ?type_case_x@?$output_processor@DV?$stream_output_adapter@D@__crt_stdio_output@@V?$positional_parameter_base@DV?$stream_output_adapter@D@__crt_stdio_output@@@2@@__crt_stdio_output@@AAE_NXZ 1007737e f i libucrt:output.obj
 0001:0007638a       ?type_case_x@?$output_processor@DV?$stream_output_adapter@D@__crt_stdio_output@@V?$standard_base@DV?$stream_output_adapter@D@__crt_stdio_output@@@2@@__crt_stdio_output@@AAE_NXZ 1007738a f i libucrt:output.obj
 0001:00076396       ?type_case_x@?$output_processor@DV?$string_output_adapter@D@__crt_stdio_output@@V?$format_validation_base@DV?$string_output_adapter@D@__crt_stdio_output@@@2@@__crt_stdio_output@@AAE_NXZ 10077396 f i libucrt:output.obj
 0001:000763a2       ?type_case_x@?$output_processor@DV?$string_output_adapter@D@__crt_stdio_output@@V?$positional_parameter_base@DV?$string_output_adapter@D@__crt_stdio_output@@@2@@__crt_stdio_output@@AAE_NXZ 100773a2 f i libucrt:output.obj
 0001:000763ae       ?type_case_x@?$output_processor@DV?$string_output_adapter@D@__crt_stdio_output@@V?$standard_base@DV?$string_output_adapter@D@__crt_stdio_output@@@2@@__crt_stdio_output@@AAE_NXZ 100773ae f i libucrt:output.obj
 0001:000763ba       ?type_case_x@?$output_processor@_WV?$stream_output_adapter@_W@__crt_stdio_output@@V?$format_validation_base@_WV?$stream_output_adapter@_W@__crt_stdio_output@@@2@@__crt_stdio_output@@AAE_NXZ 100773ba f i libucrt:output.obj
 0001:000763c6       ?type_case_x@?$output_processor@_WV?$stream_output_adapter@_W@__crt_stdio_output@@V?$positional_parameter_base@_WV?$stream_output_adapter@_W@__crt_stdio_output@@@2@@__crt_stdio_output@@AAE_NXZ 100773c6 f i libucrt:output.obj
 0001:000763d2       ?type_case_x@?$output_processor@_WV?$stream_output_adapter@_W@__crt_stdio_output@@V?$standard_base@_WV?$stream_output_adapter@_W@__crt_stdio_output@@@2@@__crt_stdio_output@@AAE_NXZ 100773d2 f i libucrt:output.obj
 0001:000763de       ?type_case_x@?$output_processor@_WV?$string_output_adapter@_W@__crt_stdio_output@@V?$format_validation_base@_WV?$string_output_adapter@_W@__crt_stdio_output@@@2@@__crt_stdio_output@@AAE_NXZ 100773de f i libucrt:output.obj
 0001:000763ea       ?type_case_x@?$output_processor@_WV?$string_output_adapter@_W@__crt_stdio_output@@V?$positional_parameter_base@_WV?$string_output_adapter@_W@__crt_stdio_output@@@2@@__crt_stdio_output@@AAE_NXZ 100773ea f i libucrt:output.obj
 0001:000763f6       ?type_case_x@?$output_processor@_WV?$string_output_adapter@_W@__crt_stdio_output@@V?$standard_base@_WV?$string_output_adapter@_W@__crt_stdio_output@@@2@@__crt_stdio_output@@AAE_NXZ 100773f6 f i libucrt:output.obj
 0001:00076402       ?unset_flag@?$output_processor@DV?$stream_output_adapter@D@__crt_stdio_output@@V?$format_validation_base@DV?$stream_output_adapter@D@__crt_stdio_output@@@2@@__crt_stdio_output@@AAEXI@Z 10077402 f i libucrt:output.obj
 0001:00076417       ?unset_flag@?$output_processor@DV?$stream_output_adapter@D@__crt_stdio_output@@V?$positional_parameter_base@DV?$stream_output_adapter@D@__crt_stdio_output@@@2@@__crt_stdio_output@@AAEXI@Z 10077417 f i libucrt:output.obj
 0001:0007642c       ?unset_flag@?$output_processor@DV?$stream_output_adapter@D@__crt_stdio_output@@V?$standard_base@DV?$stream_output_adapter@D@__crt_stdio_output@@@2@@__crt_stdio_output@@AAEXI@Z 1007742c f i libucrt:output.obj
 0001:00076441       ?unset_flag@?$output_processor@DV?$string_output_adapter@D@__crt_stdio_output@@V?$format_validation_base@DV?$string_output_adapter@D@__crt_stdio_output@@@2@@__crt_stdio_output@@AAEXI@Z 10077441 f i libucrt:output.obj
 0001:00076456       ?unset_flag@?$output_processor@DV?$string_output_adapter@D@__crt_stdio_output@@V?$positional_parameter_base@DV?$string_output_adapter@D@__crt_stdio_output@@@2@@__crt_stdio_output@@AAEXI@Z 10077456 f i libucrt:output.obj
 0001:0007646b       ?unset_flag@?$output_processor@DV?$string_output_adapter@D@__crt_stdio_output@@V?$standard_base@DV?$string_output_adapter@D@__crt_stdio_output@@@2@@__crt_stdio_output@@AAEXI@Z 1007746b f i libucrt:output.obj
 0001:00076480       ?unset_flag@?$output_processor@_WV?$stream_output_adapter@_W@__crt_stdio_output@@V?$format_validation_base@_WV?$stream_output_adapter@_W@__crt_stdio_output@@@2@@__crt_stdio_output@@AAEXI@Z 10077480 f i libucrt:output.obj
 0001:00076495       ?unset_flag@?$output_processor@_WV?$stream_output_adapter@_W@__crt_stdio_output@@V?$positional_parameter_base@_WV?$stream_output_adapter@_W@__crt_stdio_output@@@2@@__crt_stdio_output@@AAEXI@Z 10077495 f i libucrt:output.obj
 0001:000764aa       ?unset_flag@?$output_processor@_WV?$stream_output_adapter@_W@__crt_stdio_output@@V?$standard_base@_WV?$stream_output_adapter@_W@__crt_stdio_output@@@2@@__crt_stdio_output@@AAEXI@Z 100774aa f i libucrt:output.obj
 0001:000764bf       ?unset_flag@?$output_processor@_WV?$string_output_adapter@_W@__crt_stdio_output@@V?$format_validation_base@_WV?$string_output_adapter@_W@__crt_stdio_output@@@2@@__crt_stdio_output@@AAEXI@Z 100774bf f i libucrt:output.obj
 0001:000764d4       ?unset_flag@?$output_processor@_WV?$string_output_adapter@_W@__crt_stdio_output@@V?$positional_parameter_base@_WV?$string_output_adapter@_W@__crt_stdio_output@@@2@@__crt_stdio_output@@AAEXI@Z 100774d4 f i libucrt:output.obj
 0001:000764e9       ?unset_flag@?$output_processor@_WV?$string_output_adapter@_W@__crt_stdio_output@@V?$standard_base@_WV?$string_output_adapter@_W@__crt_stdio_output@@@2@@__crt_stdio_output@@AAEXI@Z 100774e9 f i libucrt:output.obj
 0001:000764fe       ?update_field_width@?$positional_parameter_base@DV?$stream_output_adapter@D@__crt_stdio_output@@@__crt_stdio_output@@IAE_NXZ 100774fe f i libucrt:output.obj
 0001:000765e1       ?update_field_width@?$positional_parameter_base@DV?$string_output_adapter@D@__crt_stdio_output@@@__crt_stdio_output@@IAE_NXZ 100775e1 f i libucrt:output.obj
 0001:000766c4       ?update_field_width@?$positional_parameter_base@_WV?$stream_output_adapter@_W@__crt_stdio_output@@@__crt_stdio_output@@IAE_NXZ 100776c4 f i libucrt:output.obj
 0001:000767a8       ?update_field_width@?$positional_parameter_base@_WV?$string_output_adapter@_W@__crt_stdio_output@@@__crt_stdio_output@@IAE_NXZ 100777a8 f i libucrt:output.obj
 0001:0007688c       ?update_field_width@?$standard_base@DV?$stream_output_adapter@D@__crt_stdio_output@@@__crt_stdio_output@@IAE_NXZ 1007788c f i libucrt:output.obj
 0001:000768a0       ?update_field_width@?$standard_base@DV?$string_output_adapter@D@__crt_stdio_output@@@__crt_stdio_output@@IAE_NXZ 100778a0 f i libucrt:output.obj
 0001:000768b4       ?update_field_width@?$standard_base@_WV?$stream_output_adapter@_W@__crt_stdio_output@@@__crt_stdio_output@@IAE_NXZ 100778b4 f i libucrt:output.obj
 0001:000768c8       ?update_field_width@?$standard_base@_WV?$string_output_adapter@_W@__crt_stdio_output@@@__crt_stdio_output@@IAE_NXZ 100778c8 f i libucrt:output.obj
 0001:000768dc       ?update_precision@?$positional_parameter_base@DV?$stream_output_adapter@D@__crt_stdio_output@@@__crt_stdio_output@@IAE_NXZ 100778dc f i libucrt:output.obj
 0001:000769bf       ?update_precision@?$positional_parameter_base@DV?$string_output_adapter@D@__crt_stdio_output@@@__crt_stdio_output@@IAE_NXZ 100779bf f i libucrt:output.obj
 0001:00076aa2       ?update_precision@?$positional_parameter_base@_WV?$stream_output_adapter@_W@__crt_stdio_output@@@__crt_stdio_output@@IAE_NXZ 10077aa2 f i libucrt:output.obj
 0001:00076b86       ?update_precision@?$positional_parameter_base@_WV?$string_output_adapter@_W@__crt_stdio_output@@@__crt_stdio_output@@IAE_NXZ 10077b86 f i libucrt:output.obj
 0001:00076c6a       ?update_precision@?$standard_base@DV?$stream_output_adapter@D@__crt_stdio_output@@@__crt_stdio_output@@IAE_NXZ 10077c6a f i libucrt:output.obj
 0001:00076c7e       ?update_precision@?$standard_base@DV?$string_output_adapter@D@__crt_stdio_output@@@__crt_stdio_output@@IAE_NXZ 10077c7e f i libucrt:output.obj
 0001:00076c92       ?update_precision@?$standard_base@_WV?$stream_output_adapter@_W@__crt_stdio_output@@@__crt_stdio_output@@IAE_NXZ 10077c92 f i libucrt:output.obj
 0001:00076ca6       ?update_precision@?$standard_base@_WV?$string_output_adapter@_W@__crt_stdio_output@@@__crt_stdio_output@@IAE_NXZ 10077ca6 f i libucrt:output.obj
 0001:00076cba       ?valid@__crt_stdio_stream@@QBE_NXZ 10077cba f i libucrt:output.obj
 0001:00076cc1       ?validate@?$stream_output_adapter@D@__crt_stdio_output@@QBE_NXZ 10077cc1 f i libucrt:output.obj
 0001:00076cea       ?validate@?$stream_output_adapter@_W@__crt_stdio_output@@QBE_NXZ 10077cea f i libucrt:output.obj
 0001:00076d0b       ?validate@?$string_output_adapter@D@__crt_stdio_output@@QBE_NXZ 10077d0b f i libucrt:output.obj
 0001:00076d2c       ?validate@?$string_output_adapter@_W@__crt_stdio_output@@QBE_NXZ 10077d2c f i libucrt:output.obj
 0001:00076d4d       ?validate_and_store_parameter_data@?$positional_parameter_base@DV?$stream_output_adapter@D@__crt_stdio_output@@@__crt_stdio_output@@AAE_NAAUparameter_data@12@W4parameter_type@12@DW4length_modifier@2@@Z 10077d4d f i libucrt:output.obj
 0001:00076daa       ?validate_and_store_parameter_data@?$positional_parameter_base@DV?$string_output_adapter@D@__crt_stdio_output@@@__crt_stdio_output@@AAE_NAAUparameter_data@12@W4parameter_type@12@DW4length_modifier@2@@Z 10077daa f i libucrt:output.obj
 0001:00076e07       ?validate_and_store_parameter_data@?$positional_parameter_base@_WV?$stream_output_adapter@_W@__crt_stdio_output@@@__crt_stdio_output@@AAE_NAAUparameter_data@12@W4parameter_type@12@_WW4length_modifier@2@@Z 10077e07 f i libucrt:output.obj
 0001:00076e67       ?validate_and_store_parameter_data@?$positional_parameter_base@_WV?$string_output_adapter@_W@__crt_stdio_output@@@__crt_stdio_output@@AAE_NAAUparameter_data@12@W4parameter_type@12@_WW4length_modifier@2@@Z 10077e67 f i libucrt:output.obj
 0001:00076ec7       ?validate_and_update_state_at_beginning_of_format_character@?$positional_parameter_base@DV?$stream_output_adapter@D@__crt_stdio_output@@@__crt_stdio_output@@IAE_NXZ 10077ec7 f i libucrt:output.obj
 0001:00076fff       ?validate_and_update_state_at_beginning_of_format_character@?$positional_parameter_base@DV?$string_output_adapter@D@__crt_stdio_output@@@__crt_stdio_output@@IAE_NXZ 10077fff f i libucrt:output.obj
 0001:00077137       ?validate_and_update_state_at_beginning_of_format_character@?$positional_parameter_base@_WV?$stream_output_adapter@_W@__crt_stdio_output@@@__crt_stdio_output@@IAE_NXZ 10078137 f i libucrt:output.obj
 0001:0007727a       ?validate_and_update_state_at_beginning_of_format_character@?$positional_parameter_base@_WV?$string_output_adapter@_W@__crt_stdio_output@@@__crt_stdio_output@@IAE_NXZ 1007827a f i libucrt:output.obj
 0001:000773bd       ?validate_and_update_state_at_beginning_of_format_character@?$standard_base@DV?$stream_output_adapter@D@__crt_stdio_output@@@__crt_stdio_output@@IAE_NXZ 100783bd f i libucrt:output.obj
 0001:000773c0       ?validate_and_update_state_at_beginning_of_format_character@?$standard_base@DV?$string_output_adapter@D@__crt_stdio_output@@@__crt_stdio_output@@IAE_NXZ 100783c0 f i libucrt:output.obj
 0001:000773c3       ?validate_and_update_state_at_beginning_of_format_character@?$standard_base@_WV?$stream_output_adapter@_W@__crt_stdio_output@@@__crt_stdio_output@@IAE_NXZ 100783c3 f i libucrt:output.obj
 0001:000773c6       ?validate_and_update_state_at_beginning_of_format_character@?$standard_base@_WV?$string_output_adapter@_W@__crt_stdio_output@@@__crt_stdio_output@@IAE_NXZ 100783c6 f i libucrt:output.obj
 0001:000773c9       ?validate_and_update_state_at_end_of_format_string@?$format_validation_base@DV?$stream_output_adapter@D@__crt_stdio_output@@@__crt_stdio_output@@IBE_NXZ 100783c9 f i libucrt:output.obj
 0001:000773f3       ?validate_and_update_state_at_end_of_format_string@?$format_validation_base@DV?$string_output_adapter@D@__crt_stdio_output@@@__crt_stdio_output@@IBE_NXZ 100783f3 f i libucrt:output.obj
 0001:0007741d       ?validate_and_update_state_at_end_of_format_string@?$format_validation_base@_WV?$stream_output_adapter@_W@__crt_stdio_output@@@__crt_stdio_output@@IBE_NXZ 1007841d f i libucrt:output.obj
 0001:00077447       ?validate_and_update_state_at_end_of_format_string@?$format_validation_base@_WV?$string_output_adapter@_W@__crt_stdio_output@@@__crt_stdio_output@@IBE_NXZ 10078447 f i libucrt:output.obj
 0001:00077471       ?validate_and_update_state_at_end_of_format_string@?$positional_parameter_base@DV?$stream_output_adapter@D@__crt_stdio_output@@@__crt_stdio_output@@IAE_NXZ 10078471 f i libucrt:output.obj
 0001:00077517       ?validate_and_update_state_at_end_of_format_string@?$positional_parameter_base@DV?$string_output_adapter@D@__crt_stdio_output@@@__crt_stdio_output@@IAE_NXZ 10078517 f i libucrt:output.obj
 0001:000775bd       ?validate_and_update_state_at_end_of_format_string@?$positional_parameter_base@_WV?$stream_output_adapter@_W@__crt_stdio_output@@@__crt_stdio_output@@IAE_NXZ 100785bd f i libucrt:output.obj
 0001:00077663       ?validate_and_update_state_at_end_of_format_string@?$positional_parameter_base@_WV?$string_output_adapter@_W@__crt_stdio_output@@@__crt_stdio_output@@IAE_NXZ 10078663 f i libucrt:output.obj
 0001:00077709       ?validate_and_update_state_at_end_of_format_string@?$standard_base@DV?$stream_output_adapter@D@__crt_stdio_output@@@__crt_stdio_output@@IBE_NXZ 10078709 f i libucrt:output.obj
 0001:0007770c       ?validate_and_update_state_at_end_of_format_string@?$standard_base@DV?$string_output_adapter@D@__crt_stdio_output@@@__crt_stdio_output@@IBE_NXZ 1007870c f i libucrt:output.obj
 0001:0007770f       ?validate_and_update_state_at_end_of_format_string@?$standard_base@_WV?$stream_output_adapter@_W@__crt_stdio_output@@@__crt_stdio_output@@IBE_NXZ 1007870f f i libucrt:output.obj
 0001:00077712       ?validate_and_update_state_at_end_of_format_string@?$standard_base@_WV?$string_output_adapter@_W@__crt_stdio_output@@@__crt_stdio_output@@IBE_NXZ 10078712 f i libucrt:output.obj
 0001:00077715       ?validate_state_for_type_case_a@?$positional_parameter_base@DV?$stream_output_adapter@D@__crt_stdio_output@@@__crt_stdio_output@@IAE_NXZ 10078715 f i libucrt:output.obj
 0001:00077777       ?validate_state_for_type_case_a@?$positional_parameter_base@DV?$string_output_adapter@D@__crt_stdio_output@@@__crt_stdio_output@@IAE_NXZ 10078777 f i libucrt:output.obj
 0001:000777d9       ?validate_state_for_type_case_a@?$positional_parameter_base@_WV?$stream_output_adapter@_W@__crt_stdio_output@@@__crt_stdio_output@@IAE_NXZ 100787d9 f i libucrt:output.obj
 0001:0007783b       ?validate_state_for_type_case_a@?$positional_parameter_base@_WV?$string_output_adapter@_W@__crt_stdio_output@@@__crt_stdio_output@@IAE_NXZ 1007883b f i libucrt:output.obj
 0001:0007789d       ?validate_state_for_type_case_a@?$standard_base@DV?$stream_output_adapter@D@__crt_stdio_output@@@__crt_stdio_output@@IBE_NXZ 1007889d f i libucrt:output.obj
 0001:000778a0       ?validate_state_for_type_case_a@?$standard_base@DV?$string_output_adapter@D@__crt_stdio_output@@@__crt_stdio_output@@IBE_NXZ 100788a0 f i libucrt:output.obj
 0001:000778a3       ?validate_state_for_type_case_a@?$standard_base@_WV?$stream_output_adapter@_W@__crt_stdio_output@@@__crt_stdio_output@@IBE_NXZ 100788a3 f i libucrt:output.obj
 0001:000778a6       ?validate_state_for_type_case_a@?$standard_base@_WV?$string_output_adapter@_W@__crt_stdio_output@@@__crt_stdio_output@@IBE_NXZ 100788a6 f i libucrt:output.obj
 0001:000778a9       ?validate_stream_is_ansi_if_required@?$__acrt_stdio_char_traits@D@@SA_NQAU_iobuf@@@Z 100788a9 f i libucrt:output.obj
 0001:00077950       ?validate_stream_is_ansi_if_required@?$__acrt_stdio_char_traits@_W@@SA_NQAU_iobuf@@@Z 10078950 f i libucrt:output.obj
 0001:00077953       ?wide_null_string@?$output_processor@DV?$stream_output_adapter@D@__crt_stdio_output@@V?$format_validation_base@DV?$stream_output_adapter@D@__crt_stdio_output@@@2@@__crt_stdio_output@@CAPA_WXZ 10078953 f i libucrt:output.obj
 0001:00077959       ?wide_null_string@?$output_processor@DV?$stream_output_adapter@D@__crt_stdio_output@@V?$positional_parameter_base@DV?$stream_output_adapter@D@__crt_stdio_output@@@2@@__crt_stdio_output@@CAPA_WXZ 10078959 f i libucrt:output.obj
 0001:0007795f       ?wide_null_string@?$output_processor@DV?$stream_output_adapter@D@__crt_stdio_output@@V?$standard_base@DV?$stream_output_adapter@D@__crt_stdio_output@@@2@@__crt_stdio_output@@CAPA_WXZ 1007895f f i libucrt:output.obj
 0001:00077965       ?wide_null_string@?$output_processor@DV?$string_output_adapter@D@__crt_stdio_output@@V?$format_validation_base@DV?$string_output_adapter@D@__crt_stdio_output@@@2@@__crt_stdio_output@@CAPA_WXZ 10078965 f i libucrt:output.obj
 0001:0007796b       ?wide_null_string@?$output_processor@DV?$string_output_adapter@D@__crt_stdio_output@@V?$positional_parameter_base@DV?$string_output_adapter@D@__crt_stdio_output@@@2@@__crt_stdio_output@@CAPA_WXZ 1007896b f i libucrt:output.obj
 0001:00077971       ?wide_null_string@?$output_processor@DV?$string_output_adapter@D@__crt_stdio_output@@V?$standard_base@DV?$string_output_adapter@D@__crt_stdio_output@@@2@@__crt_stdio_output@@CAPA_WXZ 10078971 f i libucrt:output.obj
 0001:00077977       ?wide_null_string@?$output_processor@_WV?$stream_output_adapter@_W@__crt_stdio_output@@V?$format_validation_base@_WV?$stream_output_adapter@_W@__crt_stdio_output@@@2@@__crt_stdio_output@@CAPA_WXZ 10078977 f i libucrt:output.obj
 0001:0007797d       ?wide_null_string@?$output_processor@_WV?$stream_output_adapter@_W@__crt_stdio_output@@V?$positional_parameter_base@_WV?$stream_output_adapter@_W@__crt_stdio_output@@@2@@__crt_stdio_output@@CAPA_WXZ 1007897d f i libucrt:output.obj
 0001:00077983       ?wide_null_string@?$output_processor@_WV?$stream_output_adapter@_W@__crt_stdio_output@@V?$standard_base@_WV?$stream_output_adapter@_W@__crt_stdio_output@@@2@@__crt_stdio_output@@CAPA_WXZ 10078983 f i libucrt:output.obj
 0001:00077989       ?wide_null_string@?$output_processor@_WV?$string_output_adapter@_W@__crt_stdio_output@@V?$format_validation_base@_WV?$string_output_adapter@_W@__crt_stdio_output@@@2@@__crt_stdio_output@@CAPA_WXZ 10078989 f i libucrt:output.obj
 0001:0007798f       ?wide_null_string@?$output_processor@_WV?$string_output_adapter@_W@__crt_stdio_output@@V?$positional_parameter_base@_WV?$string_output_adapter@_W@__crt_stdio_output@@@2@@__crt_stdio_output@@CAPA_WXZ 1007898f f i libucrt:output.obj
 0001:00077995       ?wide_null_string@?$output_processor@_WV?$string_output_adapter@_W@__crt_stdio_output@@V?$standard_base@_WV?$string_output_adapter@_W@__crt_stdio_output@@@2@@__crt_stdio_output@@CAPA_WXZ 10078995 f i libucrt:output.obj
 0001:0007799b       ?write_character@?$output_adapter_common@DV?$stream_output_adapter@D@__crt_stdio_output@@@__crt_stdio_output@@QBEXDQAH@Z 1007899b f i libucrt:output.obj
 0001:000779c1       ?write_character@?$output_adapter_common@_WV?$stream_output_adapter@_W@__crt_stdio_output@@@__crt_stdio_output@@QBEX_WQAH@Z 100789c1 f i libucrt:output.obj
 0001:000779e7       ?write_character@?$string_output_adapter@D@__crt_stdio_output@@QBE_NDQAH@Z 100789e7 f i libucrt:output.obj
 0001:00077a39       ?write_character@?$string_output_adapter@_W@__crt_stdio_output@@QBE_N_WQAH@Z 10078a39 f i libucrt:output.obj
 0001:00077a8f       ?write_character_without_count_update@?$stream_output_adapter@D@__crt_stdio_output@@QBE_ND@Z 10078a8f f i libucrt:output.obj
 0001:00077ad1       ?write_character_without_count_update@?$stream_output_adapter@_W@__crt_stdio_output@@QBE_N_W@Z 10078ad1 f i libucrt:output.obj
 0001:00077b17       ?write_stored_string_tchar@?$output_processor@DV?$stream_output_adapter@D@__crt_stdio_output@@V?$format_validation_base@DV?$stream_output_adapter@D@__crt_stdio_output@@@2@@__crt_stdio_output@@AAE_ND@Z 10078b17 f i libucrt:output.obj
 0001:00077bea       ?write_stored_string_tchar@?$output_processor@DV?$stream_output_adapter@D@__crt_stdio_output@@V?$positional_parameter_base@DV?$stream_output_adapter@D@__crt_stdio_output@@@2@@__crt_stdio_output@@AAE_ND@Z 10078bea f i libucrt:output.obj
 0001:00077cbd       ?write_stored_string_tchar@?$output_processor@DV?$stream_output_adapter@D@__crt_stdio_output@@V?$standard_base@DV?$stream_output_adapter@D@__crt_stdio_output@@@2@@__crt_stdio_output@@AAE_ND@Z 10078cbd f i libucrt:output.obj
 0001:00077d90       ?write_stored_string_tchar@?$output_processor@DV?$string_output_adapter@D@__crt_stdio_output@@V?$format_validation_base@DV?$string_output_adapter@D@__crt_stdio_output@@@2@@__crt_stdio_output@@AAE_ND@Z 10078d90 f i libucrt:output.obj
 0001:00077e63       ?write_stored_string_tchar@?$output_processor@DV?$string_output_adapter@D@__crt_stdio_output@@V?$positional_parameter_base@DV?$string_output_adapter@D@__crt_stdio_output@@@2@@__crt_stdio_output@@AAE_ND@Z 10078e63 f i libucrt:output.obj
 0001:00077f36       ?write_stored_string_tchar@?$output_processor@DV?$string_output_adapter@D@__crt_stdio_output@@V?$standard_base@DV?$string_output_adapter@D@__crt_stdio_output@@@2@@__crt_stdio_output@@AAE_ND@Z 10078f36 f i libucrt:output.obj
 0001:00078009       ?write_stored_string_tchar@?$output_processor@_WV?$stream_output_adapter@_W@__crt_stdio_output@@V?$format_validation_base@_WV?$stream_output_adapter@_W@__crt_stdio_output@@@2@@__crt_stdio_output@@AAE_N_W@Z 10079009 f i libucrt:output.obj
 0001:000780c3       ?write_stored_string_tchar@?$output_processor@_WV?$stream_output_adapter@_W@__crt_stdio_output@@V?$positional_parameter_base@_WV?$stream_output_adapter@_W@__crt_stdio_output@@@2@@__crt_stdio_output@@AAE_N_W@Z 100790c3 f i libucrt:output.obj
 0001:0007817d       ?write_stored_string_tchar@?$output_processor@_WV?$stream_output_adapter@_W@__crt_stdio_output@@V?$standard_base@_WV?$stream_output_adapter@_W@__crt_stdio_output@@@2@@__crt_stdio_output@@AAE_N_W@Z 1007917d f i libucrt:output.obj
 0001:00078237       ?write_stored_string_tchar@?$output_processor@_WV?$string_output_adapter@_W@__crt_stdio_output@@V?$format_validation_base@_WV?$string_output_adapter@_W@__crt_stdio_output@@@2@@__crt_stdio_output@@AAE_N_W@Z 10079237 f i libucrt:output.obj
 0001:000782f1       ?write_stored_string_tchar@?$output_processor@_WV?$string_output_adapter@_W@__crt_stdio_output@@V?$positional_parameter_base@_WV?$string_output_adapter@_W@__crt_stdio_output@@@2@@__crt_stdio_output@@AAE_N_W@Z 100792f1 f i libucrt:output.obj
 0001:000783ab       ?write_stored_string_tchar@?$output_processor@_WV?$string_output_adapter@_W@__crt_stdio_output@@V?$standard_base@_WV?$string_output_adapter@_W@__crt_stdio_output@@@2@@__crt_stdio_output@@AAE_N_W@Z 100793ab f i libucrt:output.obj
 0001:00078465       ?write_string@?$stream_output_adapter@D@__crt_stdio_output@@QBEXQBDHQAHAAV__crt_deferred_errno_cache@@@Z 10079465 f i libucrt:output.obj
 0001:0007849a       ?write_string@?$stream_output_adapter@_W@__crt_stdio_output@@QBEXQB_WHQAHAAV__crt_deferred_errno_cache@@@Z 1007949a f i libucrt:output.obj
 0001:000784cf       ?write_string@?$string_output_adapter@D@__crt_stdio_output@@QBEXQBDHQAHAAV__crt_deferred_errno_cache@@@Z 100794cf f i libucrt:output.obj
 0001:0007854f       ?write_string@?$string_output_adapter@_W@__crt_stdio_output@@QBEXQB_WHQAHAAV__crt_deferred_errno_cache@@@Z 1007954f f i libucrt:output.obj
 0001:000785de       ?write_string_impl@?$output_adapter_common@DV?$stream_output_adapter@D@__crt_stdio_output@@@__crt_stdio_output@@IBEXQBDHQAHAAV__crt_deferred_errno_cache@@@Z 100795de f i libucrt:output.obj
 0001:000786a6       ?write_string_impl@?$output_adapter_common@_WV?$stream_output_adapter@_W@__crt_stdio_output@@@__crt_stdio_output@@IBEXQB_WHQAHAAV__crt_deferred_errno_cache@@@Z 100796a6 f i libucrt:output.obj
 0001:00078771       ___acrt_isleadbyte_l_noupdate 10079771 f i libucrt:output.obj
 0001:00078792       ___acrt_locale_changed     10079792 f i libucrt:output.obj
 0001:0007879f       ___stdio_common_vfprintf   1007979f f   libucrt:output.obj
 0001:00078845       ___stdio_common_vfprintf_p 10079845 f   libucrt:output.obj
 0001:000788eb       ___stdio_common_vfprintf_s 100798eb f   libucrt:output.obj
 0001:00078991       ___stdio_common_vfwprintf  10079991 f   libucrt:output.obj
 0001:00078a37       ___stdio_common_vfwprintf_p 10079a37 f   libucrt:output.obj
 0001:00078add       ___stdio_common_vfwprintf_s 10079add f   libucrt:output.obj
 0001:00078b83       ___stdio_common_vsnprintf_s 10079b83 f   libucrt:output.obj
 0001:00078bb3       ___stdio_common_vsnwprintf_s 10079bb3 f   libucrt:output.obj
 0001:00078be3       ___stdio_common_vsprintf   10079be3 f   libucrt:output.obj
 0001:00078c10       ___stdio_common_vsprintf_p 10079c10 f   libucrt:output.obj
 0001:00078c3d       ___stdio_common_vsprintf_s 10079c3d f   libucrt:output.obj
 0001:00078c6a       ___stdio_common_vswprintf  10079c6a f   libucrt:output.obj
 0001:00078c97       ___stdio_common_vswprintf_p 10079c97 f   libucrt:output.obj
 0001:00078cc4       ___stdio_common_vswprintf_s 10079cc4 f   libucrt:output.obj
 0001:00078cf1       _calloc                    10079cf1 f   libucrt:calloc.obj
 0001:00078cfe       _realloc                   10079cfe f   libucrt:realloc.obj
 0001:00078d0b       ??$?B$$A6GXPAXK0@Z@__crt_fast_encoded_nullptr_t@@QBEP6GXPAXK0@ZXZ 10079d0b f i libucrt:exit.obj
 0001:00078dae       ??$__crt_fast_decode_pointer@P6GXPAXK0@Z@@YAP6GXPAXK0@ZQ6GX0K0@Z@Z 10079dae f i libucrt:exit.obj
 0001:00078dc9       ??$__crt_fast_encode_pointer@P6GXPAXK0@Z@@YAP6GXPAXK0@ZQ6GX0K0@Z@Z 10079dc9 f i libucrt:exit.obj
 0001:00078def       ??$__crt_get_proc_address@P6GXI@Z@@YAP6GXI@ZQAUHINSTANCE__@@QBD@Z 10079def f i libucrt:exit.obj
 0001:00078e55       ??0?$__crt_unique_handle_t@U__crt_hmodule_traits@@@@QAE@QAUHINSTANCE__@@@Z 10079e55 f i libucrt:exit.obj
 0001:00078e69       ??1?$__crt_unique_handle_t@U__crt_hmodule_traits@@@@QAE@XZ 10079e69 f i libucrt:exit.obj
 0001:00078fae       ?__acrt_select_exit_lock@@YA?AW4__acrt_lock_id@@XZ 10079fae f i libucrt:exit.obj
 0001:00078fb2       ?__crt_fast_encode_pointer@@YA?AU__crt_fast_encoded_nullptr_t@@$$T@Z 10079fb2 f i libucrt:exit.obj
 0001:00078fc2       ?__crt_rotate_pointer_value@@YAIIH@Z 10079fc2 f i libucrt:exit.obj
 0001:00078feb       ?close@?$__crt_unique_handle_t@U__crt_hmodule_traits@@@@QAEXXZ 10079feb f i libucrt:exit.obj
 0001:00079007       ?close@__crt_hmodule_traits@@SA_NPAUHINSTANCE__@@@Z 1007a007 f i libucrt:exit.obj
 0001:000790f2       ?get@?$__crt_unique_handle_t@U__crt_hmodule_traits@@@@QBEPAUHINSTANCE__@@XZ 1007a0f2 f i libucrt:exit.obj
 0001:000790f5       ?get_address_of@?$__crt_unique_handle_t@U__crt_hmodule_traits@@@@QAEPAPAUHINSTANCE__@@XZ 1007a0f5 f i libucrt:exit.obj
 0001:000790f8       ?get_invalid_value@__crt_hmodule_traits@@SAPAUHINSTANCE__@@XZ 1007a0f8 f i libucrt:exit.obj
 0001:000791f9       __Exit                     1007a1f9 f   libucrt:exit.obj
 0001:00079214       ___acrt_initialize_thread_local_exit_callback 1007a214 f   libucrt:exit.obj
 0001:00079226       __c_exit                   1007a226 f   libucrt:exit.obj
 0001:00079238       __cexit                    1007a238 f   libucrt:exit.obj
 0001:0007924a       __exit                     1007a24a f   libucrt:exit.obj
 0001:00079265       __is_c_termination_complete 1007a265 f   libucrt:exit.obj
 0001:0007926b       __register_thread_local_exe_atexit_callback 1007a26b f   libucrt:exit.obj
 0001:000792b1       _exit                      1007a2b1 f   libucrt:exit.obj
 0001:000792cc       _quick_exit                1007a2cc f   libucrt:exit.obj
 0001:000792f0       _strncat                   1007a2f0 f   libucrt:strncat.obj
 0001:00079480       _strncpy                   1007a480 f   libucrt:strncpy.obj
 0001:000795ed       ?is_in_use@__crt_stdio_stream@@QBE_NXZ 1007a5ed f i libucrt:fclose.obj
 0001:000795fa       __fclose_nolock            1007a5fa f   libucrt:fclose.obj
 0001:0007968d       _fclose                    1007a68d f   libucrt:fclose.obj
 0001:00079983       ??$open_file@ABQBDABQBDABHPAU_iobuf@@@?$__crt_char_traits@D@@SAPAU_iobuf@@ABQBD0ABH$$QAPAU1@@Z 1007a983 f i libucrt:fopen.obj
 0001:000799ae       ??$open_file@ABQB_WABQB_WABHPAU_iobuf@@@?$__crt_char_traits@_W@@SAPAU_iobuf@@ABQB_W0ABH$$QAPAU1@@Z 1007a9ae f i libucrt:fopen.obj
 0001:000799d9       ?unlock@__crt_stdio_stream@@QBEXXZ 1007a9d9 f i libucrt:fopen.obj
 0001:000799e4       __fsopen                   1007a9e4 f   libucrt:fopen.obj
 0001:000799f1       __wfopen                   1007a9f1 f   libucrt:fopen.obj
 0001:00079a0d       __wfopen_s                 1007aa0d f   libucrt:fopen.obj
 0001:00079a65       __wfsopen                  1007aa65 f   libucrt:fopen.obj
 0001:00079a72       _fopen                     1007aa72 f   libucrt:fopen.obj
 0001:00079a8e       _fopen_s                   1007aa8e f   libucrt:fopen.obj
 0001:00079ae6       ?__acrt_stdio_reset_buffer@@YAXV__crt_stdio_stream@@@Z 1007aae6 f i libucrt:fread.obj
 0001:00079b01       ?has_any_buffer@__crt_stdio_stream@@QBE_NXZ 1007ab01 f i libucrt:fread.obj
 0001:00079b12       ?has_any_of@__crt_stdio_stream@@QBE_NJ@Z 1007ab12 f i libucrt:fread.obj
 0001:00079b2b       ?set_flags@__crt_stdio_stream@@QBE_NJ@Z 1007ab2b f i libucrt:fread.obj
 0001:00079b58       __fread_nolock             1007ab58 f   libucrt:fread.obj
 0001:00079b7c       __fread_nolock_s           1007ab7c f   libucrt:fread.obj
 0001:00079dcb       _fread                     1007adcb f   libucrt:fread.obj
 0001:00079def       _fread_s                   1007adef f   libucrt:fread.obj
 0001:0007a0a0       ?has_big_buffer@__crt_stdio_stream@@QBE_NXZ 1007b0a0 f i libucrt:fwrite.obj
 0001:0007a0ad       __fwrite_nolock            1007b0ad f   libucrt:fwrite.obj
 0001:0007a286       _fwrite                    1007b286 f   libucrt:fwrite.obj
 0001:0007a3a9       ??$__acrt_mbs_to_wcs_cp@U__crt_win32_buffer_internal_dynamic_resizing@@@@YAHQBDAAV?$__crt_win32_buffer@_WU__crt_win32_buffer_internal_dynamic_resizing@@@@I@Z 1007b3a9 f i libucrt:unlink.obj
 0001:0007a3cf       ??0?$__crt_win32_buffer@_WU__crt_win32_buffer_internal_dynamic_resizing@@@@QAE@XZ 1007b3cf f i libucrt:unlink.obj
 0001:0007a3ea       ??1?$__crt_win32_buffer@_WU__crt_win32_buffer_internal_dynamic_resizing@@@@QAE@XZ 1007b3ea f i libucrt:unlink.obj
 0001:0007a418       ?__acrt_get_utf8_acp_compatibility_codepage@@YAIXZ 1007b418 f i libucrt:unlink.obj
 0001:0007a469       ?_deallocate@?$__crt_win32_buffer@_WU__crt_win32_buffer_internal_dynamic_resizing@@@@AAEXXZ 1007b469 f i libucrt:unlink.obj
 0001:0007a489       ?allocate@?$__crt_win32_buffer@_WU__crt_win32_buffer_internal_dynamic_resizing@@@@QAEHI@Z 1007b489 f i libucrt:unlink.obj
 0001:0007a4d7       ?allocate@__crt_win32_buffer_internal_dynamic_resizing@@SAHQAPAXIABV__crt_win32_buffer_empty_debug_info@@@Z 1007b4d7 f i libucrt:unlink.obj
 0001:0007a4fd       ?capacity@?$__crt_win32_buffer@_WU__crt_win32_buffer_internal_dynamic_resizing@@@@QBEIXZ 1007b4fd f i libucrt:unlink.obj
 0001:0007a501       ?data@?$__crt_win32_buffer@_WU__crt_win32_buffer_internal_dynamic_resizing@@@@QAEPA_WXZ 1007b501 f i libucrt:unlink.obj
 0001:0007a505       ?deallocate@__crt_win32_buffer_internal_dynamic_resizing@@SAXQAXABV__crt_win32_buffer_empty_debug_info@@@Z 1007b505 f i libucrt:unlink.obj
 0001:0007a519       ?debug_info@?$__crt_win32_buffer@_WU__crt_win32_buffer_internal_dynamic_resizing@@@@QBEABV__crt_win32_buffer_empty_debug_info@@XZ 1007b519 f i libucrt:unlink.obj
 0001:0007a51c       ?size@?$__crt_win32_buffer@_WU__crt_win32_buffer_internal_dynamic_resizing@@@@QAEXI@Z 1007b51c f i libucrt:unlink.obj
 0001:0007a52e       __unlink                   1007b52e f   libucrt:unlink.obj
 0001:0007a53b       _remove                    1007b53b f   libucrt:unlink.obj
 0001:0007a5c2       ?has_all_of@__crt_stdio_stream@@QBE_NJ@Z 1007b5c2 f i libucrt:rewind.obj
 0001:0007a5de       ?unset_flags@__crt_stdio_stream@@QBE_NJ@Z 1007b5de f i libucrt:rewind.obj
 0001:0007a611       _rewind                    1007b611 f   libucrt:rewind.obj
 0001:0007a703       _ldexp                     1007b703 f   libucrt:ldexp.obj
 0001:0007a980       _strncmp                   1007b980 f   libucrt:strncmp.obj
 0001:0007aa20       __CIfmod                   1007ba20 f   libucrt:87fmod_impl.obj
 0001:0007aa30       __fFMOD                    1007ba30 f   libucrt:87fmod_impl.obj
 0001:0007aa50       _ceil                      1007ba50 f   libucrt:ceil_pentium4.obj
 0001:0007aa90       __ceil_pentium4            1007ba90 f   libucrt:ceil_pentium4.obj
 0001:0007abb4       ??$__crt_fast_decode_pointer@P6AXPB_W00II@Z@@YAP6AXPB_W00II@ZQ6AX000II@Z@Z 1007bbb4 f i libucrt:invalid_parameter.obj
 0001:0007abcf       ??$__crt_fast_encode_pointer@P6AXPB_W00II@Z@@YAP6AXPB_W00II@ZQ6AX000II@Z@Z 1007bbcf f i libucrt:invalid_parameter.obj
 0001:0007abf5       ??$initialize_from_array@$$BY00Q6AXPB_W00II@Z@?$dual_state_global@P6AXPB_W00II@Z@__crt_state_management@@QAAXAAY00Q6AXPB_W00II@Z@Z 1007bbf5 f i libucrt:invalid_parameter.obj
 0001:0007ac0a       ?dangerous_get_state_array@?$dual_state_global@P6AXPB_W00II@Z@__crt_state_management@@QAEPAP6AXPB_W00II@ZXZ 1007bc0a f i libucrt:invalid_parameter.obj
 0001:0007ac0d       ?get_current_state_index@__crt_state_management@@YAIXZ 1007bc0d f i libucrt:invalid_parameter.obj
 0001:0007ac10       ?value@?$dual_state_global@P6AXPB_W00II@Z@__crt_state_management@@QAEAAP6AXPB_W00II@ZXZ 1007bc10 f i libucrt:invalid_parameter.obj
 0001:0007ac13       ___acrt_call_reportfault   1007bc13 f   libucrt:invalid_parameter.obj
 0001:0007ad9c       ___acrt_initialize_invalid_parameter_handler 1007bd9c f   libucrt:invalid_parameter.obj
 0001:0007adae       __get_invalid_parameter_handler 1007bdae f   libucrt:invalid_parameter.obj
 0001:0007adc5       __get_thread_local_invalid_parameter_handler 1007bdc5 f   libucrt:invalid_parameter.obj
 0001:0007adda       __invalid_parameter        1007bdda f   libucrt:invalid_parameter.obj
 0001:0007ae73       __invalid_parameter_noinfo 1007be73 f   libucrt:invalid_parameter.obj
 0001:0007ae87       __invalid_parameter_noinfo_noreturn 1007be87 f   libucrt:invalid_parameter.obj
 0001:0007aeab       __invoke_watson            1007beab f   libucrt:invalid_parameter.obj
 0001:0007aeec       __set_invalid_parameter_handler 1007beec f   libucrt:invalid_parameter.obj
 0001:0007af28       __set_thread_local_invalid_parameter_handler 1007bf28 f   libucrt:invalid_parameter.obj
 0001:0007af4c       ?LongLongSub@@YAJ_J0PA_J@Z 1007bf4c f i libucrt:fseek.obj
 0001:0007b2bd       ?lowio_handle@__crt_stdio_stream@@QBEHXZ 1007c2bd f i libucrt:fseek.obj
 0001:0007b2c3       __fseek_nolock             1007c2c3 f   libucrt:fseek.obj
 0001:0007b2e4       __fseeki64                 1007c2e4 f   libucrt:fseek.obj
 0001:0007b305       __fseeki64_nolock          1007c305 f   libucrt:fseek.obj
 0001:0007b326       _fseek                     1007c326 f   libucrt:fseek.obj
 0001:0007bc18       ?ctrl_z@__crt_stdio_stream@@QBE_NXZ 1007cc18 f i libucrt:ftell.obj
 0001:0007bc25       ?has_crt_buffer@__crt_stdio_stream@@QBE_NXZ 1007cc25 f i libucrt:ftell.obj
 0001:0007bc32       ?has_setvbuf_buffer@__crt_stdio_stream@@QBE_NXZ 1007cc32 f i libucrt:ftell.obj
 0001:0007bc3f       __ftell_nolock             1007cc3f f   libucrt:ftell.obj
 0001:0007bc4c       __ftelli64                 1007cc4c f   libucrt:ftell.obj
 0001:0007bc59       __ftelli64_nolock          1007cc59 f   libucrt:ftell.obj
 0001:0007bc66       __utf8_no_of_trailbytes    1007cc66 f i libucrt:ftell.obj
 0001:0007bc7b       _ftell                     1007cc7b f   libucrt:ftell.obj
 0001:0007bc88       ___acrt_errno_from_os_error 1007cc88 f   libucrt:errno.obj
 0001:0007bcdb       ___acrt_errno_map_os_error 1007ccdb f   libucrt:errno.obj
 0001:0007bd06       ___doserrno                1007cd06 f   libucrt:errno.obj
 0001:0007bd1d       __errno                    1007cd1d f   libucrt:errno.obj
 0001:0007bd34       __get_doserrno             1007cd34 f   libucrt:errno.obj
 0001:0007bd62       __get_errno                1007cd62 f   libucrt:errno.obj
 0001:0007bd90       __set_doserrno             1007cd90 f   libucrt:errno.obj
 0001:0007bdb9       __set_errno                1007cdb9 f   libucrt:errno.obj
 0001:0007bdf0       _strcspn                   1007cdf0 f   libucrt:strcspn.obj
 0001:0007be47       ??$is_overflow_condition@K@__crt_strtox@@YA_NIK@Z 1007ce47 f i libucrt:strtox.obj
 0001:0007be84       ??$is_overflow_condition@_K@__crt_strtox@@YA_NI_K@Z 1007ce84 f i libucrt:strtox.obj
 0001:0007bed5       ??$make_c_string_character_source@DPAPAD@__crt_strtox@@YA?AV?$c_string_character_source@D@0@QBDQAPAD@Z 1007ced5 f i libucrt:strtox.obj
 0001:0007bef6       ??$make_c_string_character_source@_WPAPA_W@__crt_strtox@@YA?AV?$c_string_character_source@_W@0@QB_WQAPA_W@Z 1007cef6 f i libucrt:strtox.obj
 0001:0007bf17       ??$parse_integer@KV?$c_string_character_source@D@__crt_strtox@@@__crt_strtox@@YAKQAU__crt_locale_pointers@@V?$c_string_character_source@D@0@H_N@Z 1007cf17 f i libucrt:strtox.obj
 0001:0007c1ca       ??$parse_integer@KV?$c_string_character_source@_W@__crt_strtox@@@__crt_strtox@@YAKQAU__crt_locale_pointers@@V?$c_string_character_source@_W@0@H_N@Z 1007d1ca f i libucrt:strtox.obj
 0001:0007c99b       ??$parse_integer@_KV?$c_string_character_source@D@__crt_strtox@@@__crt_strtox@@YA_KQAU__crt_locale_pointers@@V?$c_string_character_source@D@0@H_N@Z 1007d99b f i libucrt:strtox.obj
 0001:0007cceb       ??$parse_integer@_KV?$c_string_character_source@_W@__crt_strtox@@@__crt_strtox@@YA_KQAU__crt_locale_pointers@@V?$c_string_character_source@_W@0@H_N@Z 1007dceb f i libucrt:strtox.obj
 0001:0007d5b8       ??$parse_integer_from_string@JDPAPAD@__crt_strtox@@YAJQBDQAPADHQAU__crt_locale_pointers@@@Z 1007e5b8 f i libucrt:strtox.obj
 0001:0007d5f0       ??$parse_integer_from_string@J_WPAPA_W@__crt_strtox@@YAJQB_WQAPA_WHQAU__crt_locale_pointers@@@Z 1007e5f0 f i libucrt:strtox.obj
 0001:0007d628       ??$parse_integer_from_string@KDPAPAD@__crt_strtox@@YAKQBDQAPADHQAU__crt_locale_pointers@@@Z 1007e628 f i libucrt:strtox.obj
 0001:0007d660       ??$parse_integer_from_string@K_WPAPA_W@__crt_strtox@@YAKQB_WQAPA_WHQAU__crt_locale_pointers@@@Z 1007e660 f i libucrt:strtox.obj
 0001:0007d698       ??$parse_integer_from_string@_JDPAPAD@__crt_strtox@@YA_JQBDQAPADHQAU__crt_locale_pointers@@@Z 1007e698 f i libucrt:strtox.obj
 0001:0007d6d0       ??$parse_integer_from_string@_J_WPAPA_W@__crt_strtox@@YA_JQB_WQAPA_WHQAU__crt_locale_pointers@@@Z 1007e6d0 f i libucrt:strtox.obj
 0001:0007d708       ??$parse_integer_from_string@_KDPAPAD@__crt_strtox@@YA_KQBDQAPADHQAU__crt_locale_pointers@@@Z 1007e708 f i libucrt:strtox.obj
 0001:0007d740       ??$parse_integer_from_string@_K_WPAPA_W@__crt_strtox@@YA_KQB_WQAPA_WHQAU__crt_locale_pointers@@@Z 1007e740 f i libucrt:strtox.obj
 0001:0007d778       ??0?$c_string_character_source@D@__crt_strtox@@QAE@QBDQAPBD@Z 1007e778 f i libucrt:strtox.obj
 0001:0007d79b       ??0?$c_string_character_source@_W@__crt_strtox@@QAE@QB_WQAPB_W@Z 1007e79b f i libucrt:strtox.obj
 0001:0007d7be       ??1?$c_string_character_source@D@__crt_strtox@@QAE@XZ 1007e7be f i libucrt:strtox.obj
 0001:0007d7cd       ??1?$c_string_character_source@_W@__crt_strtox@@QAE@XZ 1007e7cd f i libucrt:strtox.obj
 0001:0007d7dc       ?get@?$c_string_character_source@D@__crt_strtox@@QAEDXZ 1007e7dc f i libucrt:strtox.obj
 0001:0007d7e6       ?get@?$c_string_character_source@_W@__crt_strtox@@QAE_WXZ 1007e7e6 f i libucrt:strtox.obj
 0001:0007d7f3       ?is_space@__crt_strtox@@YA_NDQAU__crt_locale_pointers@@@Z 1007e7f3 f i libucrt:strtox.obj
 0001:0007d818       ?is_space@__crt_strtox@@YA_N_WPAU__crt_locale_pointers@@@Z 1007e818 f i libucrt:strtox.obj
 0001:0007d836       ?maximum_signed_value@__crt_strtox@@YAJK@Z 1007e836 f i libucrt:strtox.obj
 0001:0007d83c       ?maximum_signed_value@__crt_strtox@@YA_J_K@Z 1007e83c f i libucrt:strtox.obj
 0001:0007d847       ?minimum_signed_value@__crt_strtox@@YAJK@Z 1007e847 f i libucrt:strtox.obj
 0001:0007d84d       ?minimum_signed_value@__crt_strtox@@YA_J_K@Z 1007e84d f i libucrt:strtox.obj
 0001:0007d857       ?parse_digit@__crt_strtox@@YAID@Z 1007e857 f i libucrt:strtox.obj
 0001:0007d89f       ?parse_digit@__crt_strtox@@YAI_W@Z 1007e89f f i libucrt:strtox.obj
 0001:0007db10       ?restore_state@?$c_string_character_source@D@__crt_strtox@@QAE_NQBD@Z 1007eb10 f i libucrt:strtox.obj
 0001:0007db24       ?restore_state@?$c_string_character_source@_W@__crt_strtox@@QAE_NQB_W@Z 1007eb24 f i libucrt:strtox.obj
 0001:0007db38       ?save_state@?$c_string_character_source@D@__crt_strtox@@QBEPBDXZ 1007eb38 f i libucrt:strtox.obj
 0001:0007db3b       ?save_state@?$c_string_character_source@_W@__crt_strtox@@QBEPB_WXZ 1007eb3b f i libucrt:strtox.obj
 0001:0007db3e       ?unget@?$c_string_character_source@D@__crt_strtox@@QAEXD@Z 1007eb3e f i libucrt:strtox.obj
 0001:0007db71       ?unget@?$c_string_character_source@_W@__crt_strtox@@QAEX_W@Z 1007eb71 f i libucrt:strtox.obj
 0001:0007dbaa       ?validate@?$c_string_character_source@D@__crt_strtox@@QBE_NXZ 1007ebaa f i libucrt:strtox.obj
 0001:0007dbcb       ?validate@?$c_string_character_source@_W@__crt_strtox@@QBE_NXZ 1007ebcb f i libucrt:strtox.obj
 0001:0007dbec       ?wide_character_to_digit@__crt_strtox@@YAH_W@Z 1007ebec f i libucrt:strtox.obj
 0001:0007ddf5       ___acrt_get_locale_data_prefix 1007edf5 f i libucrt:strtox.obj
 0001:0007de04       __chvalidchk_l             1007ee04 f i libucrt:strtox.obj
 0001:0007de33       __ischartype_l             1007ee33 f i libucrt:strtox.obj
 0001:0007de72       __strtoi64                 1007ee72 f   libucrt:strtox.obj
 0001:0007dea9       __strtoi64_l               1007eea9 f   libucrt:strtox.obj
 0001:0007dee1       __strtoimax_l              1007eee1 f   libucrt:strtox.obj
 0001:0007df19       __strtol_l                 1007ef19 f   libucrt:strtox.obj
 0001:0007df51       __strtoll_l                1007ef51 f   libucrt:strtox.obj
 0001:0007df89       __strtoui64                1007ef89 f   libucrt:strtox.obj
 0001:0007dfc0       __strtoui64_l              1007efc0 f   libucrt:strtox.obj
 0001:0007dff8       __strtoul_l                1007eff8 f   libucrt:strtox.obj
 0001:0007e030       __strtoull_l               1007f030 f   libucrt:strtox.obj
 0001:0007e068       __strtoumax_l              1007f068 f   libucrt:strtox.obj
 0001:0007e0a0       __wcstoi64                 1007f0a0 f   libucrt:strtox.obj
 0001:0007e0d7       __wcstoi64_l               1007f0d7 f   libucrt:strtox.obj
 0001:0007e10f       __wcstoimax_l              1007f10f f   libucrt:strtox.obj
 0001:0007e147       __wcstol_l                 1007f147 f   libucrt:strtox.obj
 0001:0007e17f       __wcstoll_l                1007f17f f   libucrt:strtox.obj
 0001:0007e1b7       __wcstoui64                1007f1b7 f   libucrt:strtox.obj
 0001:0007e1ee       __wcstoui64_l              1007f1ee f   libucrt:strtox.obj
 0001:0007e226       __wcstoul_l                1007f226 f   libucrt:strtox.obj
 0001:0007e25e       __wcstoull_l               1007f25e f   libucrt:strtox.obj
 0001:0007e296       __wcstoumax_l              1007f296 f   libucrt:strtox.obj
 0001:0007e2ce       _strtoimax                 1007f2ce f   libucrt:strtox.obj
 0001:0007e305       _strtol                    1007f305 f   libucrt:strtox.obj
 0001:0007e33c       _strtoll                   1007f33c f   libucrt:strtox.obj
 0001:0007e373       _strtoul                   1007f373 f   libucrt:strtox.obj
 0001:0007e3aa       _strtoull                  1007f3aa f   libucrt:strtox.obj
 0001:0007e3e1       _strtoumax                 1007f3e1 f   libucrt:strtox.obj
 0001:0007e418       _wcstoimax                 1007f418 f   libucrt:strtox.obj
 0001:0007e44f       _wcstol                    1007f44f f   libucrt:strtox.obj
 0001:0007e486       _wcstoll                   1007f486 f   libucrt:strtox.obj
 0001:0007e4bd       _wcstoul                   1007f4bd f   libucrt:strtox.obj
 0001:0007e4f4       _wcstoull                  1007f4f4 f   libucrt:strtox.obj
 0001:0007e52b       _wcstoumax                 1007f52b f   libucrt:strtox.obj
 0001:0007e562       _frexp                     1007f562 f   libucrt:frexp.obj
 0001:0007e6b8       __get_terminate            1007f6b8 f   libucrt:terminate.obj
 0001:0007e6ce       _set_terminate             1007f6ce f   libucrt:terminate.obj
 0001:0007e6f6       _terminate                 1007f6f6 f   libucrt:terminate.obj
 0001:0007e741       _localeconv                1007f741 f   libucrt:localeconv.obj
 0001:0007e843       __access                   1007f843 f   libucrt:access.obj
 0001:0007e861       __access_s                 1007f861 f   libucrt:access.obj
 0001:0007e900       __libm_sse2_pow_precise    1007f900 f   libucrt:pow_sse2_precise.obj
 0001:0007f724       __errcode                  10080724 f   libucrt:fpexcept.obj
 0001:0007f765       __except1                  10080765 f   libucrt:fpexcept.obj
 0001:0007f866       __except2                  10080866 f   libucrt:fpexcept.obj
 0001:0007f9af       __handle_exc               100809af f   libucrt:fpexcept.obj
 0001:0007fc17       __handle_qnan2             10080c17 f   libucrt:fpexcept.obj
 0001:0007fc27       __raise_exc                10080c27 f   libucrt:fpexcept.obj
 0001:0007fc52       __raise_exc_ex             10080c52 f   libucrt:fpexcept.obj
 0001:00080005       __raise_excf               10081005 f   libucrt:fpexcept.obj
 0001:00080030       __set_errno_from_matherr   10081030 f   libucrt:fpexcept.obj
 0001:0008006a       __umatherr                 1008106a f   libucrt:fpexcept.obj
 0001:00080134       __initterm                 10081134 f   libucrt:initterm.obj
 0001:000801a7       __initterm_e               100811a7 f   libucrt:initterm.obj
 0001:000801fd       ??$?B$$A6AHI@Z@__crt_fast_encoded_nullptr_t@@QBEP6AHI@ZXZ 100811fd f i libucrt:new_handler.obj
 0001:0008021b       ??$__crt_fast_decode_pointer@P6AHI@Z@@YAP6AHI@ZQ6AHI@Z@Z 1008121b f i libucrt:new_handler.obj
 0001:00080236       ??$__crt_fast_encode_pointer@P6AHI@Z@@YAP6AHI@ZQ6AHI@Z@Z 10081236 f i libucrt:new_handler.obj
 0001:0008025c       ?_set_new_handler@@YAP6AHI@ZH@Z 1008125c f   libucrt:new_handler.obj
 0001:00080282       ?initialize@?$dual_state_global@P6AHI@Z@__crt_state_management@@QAEXQ6AHI@Z@Z 10081282 f i libucrt:new_handler.obj
 0001:000802b1       ?value@?$dual_state_global@P6AHI@Z@__crt_state_management@@QAEAAP6AHI@ZXZ 100812b1 f i libucrt:new_handler.obj
 0001:000802b4       ___acrt_initialize_new_handler 100812b4 f   libucrt:new_handler.obj
 0001:000802c6       __callnewh                 100812c6 f   libucrt:new_handler.obj
 0001:0008031b       __query_new_handler        1008131b f   libucrt:new_handler.obj
 0001:00080381       __set_new_handler          10081381 f   libucrt:new_handler.obj
 0001:00080426       __seh_filter_dll           10081426 f   libucrt:exception_filter.obj
 0001:0008044e       __seh_filter_exe           1008144e f   libucrt:exception_filter.obj
 0001:0008060d       ??$?RE@__crt_internal_free_policy@@QBEXQBE@Z 1008160d f i libucrt:argv_parsing.obj
 0001:00080623       ??$?RPAD@__crt_internal_free_policy@@QBEXQBQAD@Z 10081623 f i libucrt:argv_parsing.obj
 0001:00080639       ??$?RPA_W@__crt_internal_free_policy@@QBEXQBQA_W@Z 10081639 f i libucrt:argv_parsing.obj
 0001:00080952       ??$get_module_file_name@$$TAAY0BAF@DH@?$__crt_char_traits@D@@SAK$$QA$$TAAY0BAF@D$$QAH@Z 10081952 f i libucrt:argv_parsing.obj
 0001:00080975       ??$get_module_file_name@$$TAAY0BAF@_WH@?$__crt_char_traits@_W@@SAK$$QA$$TAAY0BAF@_W$$QAH@Z 10081975 f i libucrt:argv_parsing.obj
 0001:00080d68       ??$set_program_name@PAD@?$__crt_char_traits@D@@SAX$$QAPAD@Z 10081d68 f i libucrt:argv_parsing.obj
 0001:00080d7d       ??$set_program_name@PA_W@?$__crt_char_traits@_W@@SAX$$QAPA_W@Z 10081d7d f i libucrt:argv_parsing.obj
 0001:00080dba       ??0?$__crt_unique_heap_ptr@EU__crt_internal_free_policy@@@@QAE@QAE@Z 10081dba f i libucrt:argv_parsing.obj
 0001:00080dce       ??0?$__crt_unique_heap_ptr@PADU__crt_internal_free_policy@@@@QAE@QAPAD@Z 10081dce f i libucrt:argv_parsing.obj
 0001:00080de2       ??0?$__crt_unique_heap_ptr@PA_WU__crt_internal_free_policy@@@@QAE@QAPA_W@Z 10081de2 f i libucrt:argv_parsing.obj
 0001:00080df6       ??1?$__crt_unique_heap_ptr@EU__crt_internal_free_policy@@@@QAE@XZ 10081df6 f i libucrt:argv_parsing.obj
 0001:00080e0c       ??1?$__crt_unique_heap_ptr@PADU__crt_internal_free_policy@@@@QAE@XZ 10081e0c f i libucrt:argv_parsing.obj
 0001:00080e22       ??1?$__crt_unique_heap_ptr@PA_WU__crt_internal_free_policy@@@@QAE@XZ 10081e22 f i libucrt:argv_parsing.obj
 0001:00080e38       ??B?$__crt_unique_heap_ptr@EU__crt_internal_free_policy@@@@QBE_NXZ 10081e38 f i libucrt:argv_parsing.obj
 0001:00080e75       ?detach@?$__crt_unique_heap_ptr@EU__crt_internal_free_policy@@@@QAEPAEXZ 10081e75 f i libucrt:argv_parsing.obj
 0001:00080e7b       ?detach@?$__crt_unique_heap_ptr@PADU__crt_internal_free_policy@@@@QAEPAPADXZ 10081e7b f i libucrt:argv_parsing.obj
 0001:00080e81       ?detach@?$__crt_unique_heap_ptr@PA_WU__crt_internal_free_policy@@@@QAEPAPA_WXZ 10081e81 f i libucrt:argv_parsing.obj
 0001:00080ea7       ?get@?$__crt_unique_heap_ptr@EU__crt_internal_free_policy@@@@QBEPAEXZ 10081ea7 f i libucrt:argv_parsing.obj
 0001:00080eaa       ?get@?$__crt_unique_heap_ptr@PADU__crt_internal_free_policy@@@@QBEPAPADXZ 10081eaa f i libucrt:argv_parsing.obj
 0001:00080ead       ?get@?$__crt_unique_heap_ptr@PA_WU__crt_internal_free_policy@@@@QBEPAPA_WXZ 10081ead f i libucrt:argv_parsing.obj
 0001:00080eb0       ?get_address_of@?$__crt_unique_heap_ptr@PADU__crt_internal_free_policy@@@@QAEPAPAPADXZ 10081eb0 f i libucrt:argv_parsing.obj
 0001:00080eb3       ?get_address_of@?$__crt_unique_heap_ptr@PA_WU__crt_internal_free_policy@@@@QAEPAPAPA_WXZ 10081eb3 f i libucrt:argv_parsing.obj
 0001:00080ece       ?is_valid@?$__crt_unique_heap_ptr@EU__crt_internal_free_policy@@@@QBE_NXZ 10081ece f i libucrt:argv_parsing.obj
 0001:00080ed5       ?release@?$__crt_unique_heap_ptr@EU__crt_internal_free_policy@@@@QAEXXZ 10081ed5 f i libucrt:argv_parsing.obj
 0001:00080eeb       ?release@?$__crt_unique_heap_ptr@PADU__crt_internal_free_policy@@@@QAEXXZ 10081eeb f i libucrt:argv_parsing.obj
 0001:00080f01       ?release@?$__crt_unique_heap_ptr@PA_WU__crt_internal_free_policy@@@@QAEXXZ 10081f01 f i libucrt:argv_parsing.obj
 0001:00080f36       ___acrt_allocate_buffer_for_argv 10081f36 f   libucrt:argv_parsing.obj
 0001:00080f98       __configure_narrow_argv    10081f98 f   libucrt:argv_parsing.obj
 0001:00080fa5       __configure_wide_argv      10081fa5 f   libucrt:argv_parsing.obj
 0001:00080fb2       __set_pgmptr               10081fb2 f i libucrt:argv_parsing.obj
 0001:00080fc4       __set_wpgmptr              10081fc4 f i libucrt:argv_parsing.obj
 0001:00080fd6       ??$?R_W@__crt_internal_free_policy@@QBEXQB_W@Z 10081fd6 f i libucrt:environment_initialization.obj
 0001:000814bc       ??$get_environment_from_os@$$V@?$__crt_char_traits@D@@SAPADXZ 100824bc f i libucrt:environment_initialization.obj
 0001:000814c1       ??$get_environment_from_os@$$V@?$__crt_char_traits@_W@@SAPA_WXZ 100824c1 f i libucrt:environment_initialization.obj
 0001:00081612       ??$set_variable_in_environment_nolock@PADH@?$__crt_char_traits@D@@SAH$$QAPAD$$QAH@Z 10082612 f i libucrt:environment_initialization.obj
 0001:00081630       ??$set_variable_in_environment_nolock@PA_WH@?$__crt_char_traits@_W@@SAH$$QAPA_W$$QAH@Z 10082630 f i libucrt:environment_initialization.obj
 0001:0008164e       ??$tcscpy_s@PADABIAAPAD@?$__crt_char_traits@D@@SAH$$QAPADABIAAPAD@Z 1008264e f i libucrt:environment_initialization.obj
 0001:00081673       ??$tcscpy_s@PA_WABIAAPA_W@?$__crt_char_traits@_W@@SAH$$QAPA_WABIAAPA_W@Z 10082673 f i libucrt:environment_initialization.obj
 0001:00081698       ??$tcslen@AAPAD@?$__crt_char_traits@D@@SAIAAPAD@Z 10082698 f i libucrt:environment_initialization.obj
 0001:000816b6       ??$tcslen@AAPA_W@?$__crt_char_traits@_W@@SAIAAPA_W@Z 100826b6 f i libucrt:environment_initialization.obj
 0001:000816db       ??$uninitialize@A6AXAAPAPAD@Z@?$dual_state_global@PAPAD@__crt_state_management@@QAEXA6AXAAPAPAD@Z@Z 100826db f i libucrt:environment_initialization.obj
 0001:0008172b       ??$uninitialize@A6AXAAPAPA_W@Z@?$dual_state_global@PAPA_W@__crt_state_management@@QAEXA6AXAAPAPA_W@Z@Z 1008272b f i libucrt:environment_initialization.obj
 0001:000817bd       ??0?$__crt_unique_heap_ptr@_WU__crt_internal_free_policy@@@@QAE@QA_W@Z 100827bd f i libucrt:environment_initialization.obj
 0001:000817d1       ??1?$__crt_unique_heap_ptr@_WU__crt_internal_free_policy@@@@QAE@XZ 100827d1 f i libucrt:environment_initialization.obj
 0001:000817e7       ??B?$__crt_unique_heap_ptr@PADU__crt_internal_free_policy@@@@QBE_NXZ 100827e7 f i libucrt:environment_initialization.obj
 0001:000817ee       ??B?$__crt_unique_heap_ptr@PA_WU__crt_internal_free_policy@@@@QBE_NXZ 100827ee f i libucrt:environment_initialization.obj
 0001:000817f5       ??B?$__crt_unique_heap_ptr@_WU__crt_internal_free_policy@@@@QBE_NXZ 100827f5 f i libucrt:environment_initialization.obj
 0001:000817fc       ?__crt_compute_required_transform_buffer_count@@YAIIQBD@Z 100827fc f i libucrt:environment_initialization.obj
 0001:0008181f       ?__crt_compute_required_transform_buffer_count@@YAIIQB_W@Z 1008281f f i libucrt:environment_initialization.obj
 0001:00081844       ?__crt_transform_string@@YAIIQBDQA_WI@Z 10082844 f i libucrt:environment_initialization.obj
 0001:0008186a       ?__crt_transform_string@@YAIIQB_WQADI@Z 1008286a f i libucrt:environment_initialization.obj
 0001:00081894       ?detach@?$__crt_unique_heap_ptr@DU__crt_internal_free_policy@@@@QAEPADXZ 10082894 f i libucrt:environment_initialization.obj
 0001:0008189a       ?detach@?$__crt_unique_heap_ptr@_WU__crt_internal_free_policy@@@@QAEPA_WXZ 1008289a f i libucrt:environment_initialization.obj
 0001:000818a0       ?get@?$__crt_unique_heap_ptr@_WU__crt_internal_free_policy@@@@QBEPA_WXZ 100828a0 f i libucrt:environment_initialization.obj
 0001:000818c7       ?initialize@?$dual_state_global@PAPAD@__crt_state_management@@QAEXQAPAD@Z 100828c7 f i libucrt:environment_initialization.obj
 0001:000818f6       ?initialize@?$dual_state_global@PAPA_W@__crt_state_management@@QAEXQAPA_W@Z 100828f6 f i libucrt:environment_initialization.obj
 0001:00081925       ?is_valid@?$__crt_unique_heap_ptr@PADU__crt_internal_free_policy@@@@QBE_NXZ 10082925 f i libucrt:environment_initialization.obj
 0001:0008192c       ?is_valid@?$__crt_unique_heap_ptr@PA_WU__crt_internal_free_policy@@@@QBE_NXZ 1008292c f i libucrt:environment_initialization.obj
 0001:00081933       ?is_valid@?$__crt_unique_heap_ptr@_WU__crt_internal_free_policy@@@@QBE_NXZ 10082933 f i libucrt:environment_initialization.obj
 0001:00081940       ?release@?$__crt_unique_heap_ptr@_WU__crt_internal_free_policy@@@@QAEXXZ 10082940 f i libucrt:environment_initialization.obj
 0001:00081956       ?value@?$dual_state_global@PAPAD@__crt_state_management@@QAEAAPAPADXZ 10082956 f i libucrt:environment_initialization.obj
 0001:00081959       ?value@?$dual_state_global@PAPA_W@__crt_state_management@@QAEAAPAPA_WXZ 10082959 f i libucrt:environment_initialization.obj
 0001:0008195c       ___dcrt_get_or_create_narrow_environment_nolock 1008295c f   libucrt:environment_initialization.obj
 0001:00081961       ___dcrt_get_or_create_wide_environment_nolock 10082961 f   libucrt:environment_initialization.obj
 0001:00081966       ___dcrt_uninitialize_environments_nolock 10082966 f   libucrt:environment_initialization.obj
 0001:000819aa       ___p__environ              100829aa f   libucrt:environment_initialization.obj
 0001:000819b0       ___p__wenviron             100829b0 f   libucrt:environment_initialization.obj
 0001:000819b6       __get_initial_narrow_environment 100829b6 f   libucrt:environment_initialization.obj
 0001:000819cf       __get_initial_wide_environment 100829cf f   libucrt:environment_initialization.obj
 0001:000819e8       __initialize_narrow_environment 100829e8 f   libucrt:environment_initialization.obj
 0001:000819ed       __initialize_wide_environment 100829ed f   libucrt:environment_initialization.obj
 0001:000819f2       __invoke_watson_if_error   100829f2 f i libucrt:environment_initialization.obj
 0001:00081a1c       ??$?B$$A6AXXZ@__crt_fast_encoded_nullptr_t@@QBEP6AXXZXZ 10082a1c f i libucrt:onexit.obj
 0001:00081a3a       ??$?BP6AXXZ@__crt_fast_encoded_nullptr_t@@QBEPAP6AXXZXZ 10082a3a f i libucrt:onexit.obj
 0001:00081a58       ??$?RP6AXXZ@__crt_internal_free_policy@@QBEXQBQ6AXXZ@Z 10082a58 f i libucrt:onexit.obj
 0001:00081b9c       ??$__crt_fast_decode_pointer@P6AXXZ@@YAP6AXXZQ6AXXZ@Z 10082b9c f i libucrt:onexit.obj
 0001:00081bb7       ??$__crt_fast_decode_pointer@PAP6AXXZ@@YAPAP6AXXZQAP6AXXZ@Z 10082bb7 f i libucrt:onexit.obj
 0001:00081bd2       ??$__crt_fast_encode_pointer@P6AHXZ@@YAP6AHXZQ6AHXZ@Z 10082bd2 f i libucrt:onexit.obj
 0001:00081bf8       ??$__crt_fast_encode_pointer@P6AXXZ@@YAP6AXXZQ6AXXZ@Z 10082bf8 f i libucrt:onexit.obj
 0001:00081c1e       ??$__crt_fast_encode_pointer@PAP6AXXZ@@YAPAP6AXXZQAP6AXXZ@Z 10082c1e f i libucrt:onexit.obj
 0001:00081ccb       ??0?$__crt_unique_heap_ptr@P6AXXZU__crt_internal_free_policy@@@@QAE@QAP6AXXZ@Z 10082ccb f i libucrt:onexit.obj
 0001:00081cdf       ??1?$__crt_unique_heap_ptr@P6AXXZU__crt_internal_free_policy@@@@QAE@XZ 10082cdf f i libucrt:onexit.obj
 0001:00081cf5       ??1scoped_global_state_reset@__crt_state_management@@QAE@XZ 10082cf5 f i libucrt:onexit.obj
 0001:00082020       ?detach@?$__crt_unique_heap_ptr@P6AXXZU__crt_internal_free_policy@@@@QAEPAP6AXXZXZ 10083020 f i libucrt:onexit.obj
 0001:00082026       ?release@?$__crt_unique_heap_ptr@P6AXXZU__crt_internal_free_policy@@@@QAEXXZ 10083026 f i libucrt:onexit.obj
 0001:0008203c       __crt_at_quick_exit        1008303c f   libucrt:onexit.obj
 0001:00082057       __crt_atexit               10083057 f   libucrt:onexit.obj
 0001:00082072       __execute_onexit_table     10083072 f   libucrt:onexit.obj
 0001:000820ac       __initialize_onexit_table  100830ac f   libucrt:onexit.obj
 0001:000820f8       __register_onexit_function 100830f8 f   libucrt:onexit.obj
 0001:0008225d       ??$?BX@__crt_fast_encoded_nullptr_t@@QBEPAXXZ 1008325d f i libucrt:initialization.obj
 0001:0008227b       ??$__crt_fast_encode_pointer@PAX@@YAPAXQAX@Z 1008327b f i libucrt:initialization.obj
 0001:00082307       ?__acrt_stdio_is_initialized@@YA_NXZ 10083307 f i libucrt:initialization.obj
 0001:00082314       ?initialize@?$dual_state_global@PAU__crt_locale_data@@@__crt_state_management@@QAEXQAU__crt_locale_data@@@Z 10083314 f i libucrt:initialization.obj
 0001:00082343       ___acrt_initialize         10083343 f   libucrt:initialization.obj
 0001:00082359       ___acrt_thread_attach      10083359 f   libucrt:initialization.obj
 0001:00082366       ___acrt_thread_detach      10083366 f   libucrt:initialization.obj
 0001:00082370       ___acrt_uninitialize       10083370 f   libucrt:initialization.obj
 0001:000823ac       ___acrt_uninitialize_critical 100833ac f   libucrt:initialization.obj
 0001:000823c2       ___acrt_initialize_locks   100833c2 f   libucrt:locks.obj
 0001:00082413       ___acrt_lock               10083413 f   libucrt:locks.obj
 0001:0008242f       ___acrt_uninitialize_locks 1008342f f   libucrt:locks.obj
 0001:0008246c       ___acrt_unlock             1008346c f   libucrt:locks.obj
 0001:00082488       __lock_locales             10083488 f   libucrt:locks.obj
 0001:00082499       __unlock_locales           10083499 f   libucrt:locks.obj
 0001:0008275d       __invoke_watson_if_oneof   1008375d f i libucrt:setlocale.obj
 0001:00082859       _setlocale                 10083859 f   libucrt:setlocale.obj
 0001:000828a1       ___pctype_func             100838a1 f   libucrt:ctype.obj
 0001:000828d0       ___pwctype_func            100838d0 f   libucrt:ctype.obj
 0001:000828f2       ___isascii                 100838f2 f i libucrt:_ctype.obj
 0001:00082908       ___iscsym                  10083908 f i libucrt:_ctype.obj
 0001:00082932       ___iscsymf                 10083932 f i libucrt:_ctype.obj
 0001:00082958       ___toascii                 10083958 f i libucrt:_ctype.obj
 0001:00082968       __isalnum_l                10083968 f i libucrt:_ctype.obj
 0001:000829b1       __isalpha_l                100839b1 f i libucrt:_ctype.obj
 0001:000829fa       __isblank_l                100839fa f i libucrt:_ctype.obj
 0001:00082a4d       __iscntrl_l                10083a4d f i libucrt:_ctype.obj
 0001:00082a93       __iscsym_l                 10083a93 f i libucrt:_ctype.obj
 0001:00082abe       __iscsymf_l                10083abe f i libucrt:_ctype.obj
 0001:00082ae9       __isdigit_l                10083ae9 f i libucrt:_ctype.obj
 0001:00082b2f       __isgraph_l                10083b2f f i libucrt:_ctype.obj
 0001:00082b78       __islower_l                10083b78 f i libucrt:_ctype.obj
 0001:00082bbe       __isprint_l                10083bbe f i libucrt:_ctype.obj
 0001:00082c07       __ispunct_l                10083c07 f i libucrt:_ctype.obj
 0001:00082c4d       __isspace_l                10083c4d f i libucrt:_ctype.obj
 0001:00082c93       __isupper_l                10083c93 f i libucrt:_ctype.obj
 0001:00082cd9       __isxdigit_l               10083cd9 f i libucrt:_ctype.obj
 0001:00082d22       _isalnum                   10083d22 f i libucrt:_ctype.obj
 0001:00082d5e       _isalpha                   10083d5e f i libucrt:_ctype.obj
 0001:00082d9a       _isblank                   10083d9a f i libucrt:_ctype.obj
 0001:00082de2       _iscntrl                   10083de2 f i libucrt:_ctype.obj
 0001:00082e1b       _isdigit                   10083e1b f i libucrt:_ctype.obj
 0001:00082e54       _isgraph                   10083e54 f i libucrt:_ctype.obj
 0001:00082e90       _islower                   10083e90 f i libucrt:_ctype.obj
 0001:00082ec9       _isprint                   10083ec9 f i libucrt:_ctype.obj
 0001:00082f05       _ispunct                   10083f05 f i libucrt:_ctype.obj
 0001:00082f3e       _isspace                   10083f3e f i libucrt:_ctype.obj
 0001:00082f77       _isupper                   10083f77 f i libucrt:_ctype.obj
 0001:00082fb0       _isxdigit                  10083fb0 f i libucrt:_ctype.obj
 0001:00082fec       __wcsdup                   10083fec f   libucrt:wcsdup.obj
 0001:00083065       ??$?RG@__crt_internal_free_policy@@QBEXQBG@Z 10084065 f i libucrt:initctype.obj
 0001:0008307b       ??$?RJ@__crt_internal_free_policy@@QBEXQBJ@Z 1008407b f i libucrt:initctype.obj
 0001:00083091       ??0?$__crt_unique_heap_ptr@GU__crt_internal_free_policy@@@@QAE@QAG@Z 10084091 f i libucrt:initctype.obj
 0001:000830a5       ??0?$__crt_unique_heap_ptr@JU__crt_internal_free_policy@@@@QAE@QAJ@Z 100840a5 f i libucrt:initctype.obj
 0001:000830b9       ??1?$__crt_unique_heap_ptr@GU__crt_internal_free_policy@@@@QAE@XZ 100840b9 f i libucrt:initctype.obj
 0001:000830cf       ??1?$__crt_unique_heap_ptr@JU__crt_internal_free_policy@@@@QAE@XZ 100840cf f i libucrt:initctype.obj
 0001:000830e5       ?detach@?$__crt_unique_heap_ptr@GU__crt_internal_free_policy@@@@QAEPAGXZ 100840e5 f i libucrt:initctype.obj
 0001:000830eb       ?detach@?$__crt_unique_heap_ptr@JU__crt_internal_free_policy@@@@QAEPAJXZ 100840eb f i libucrt:initctype.obj
 0001:000830f1       ?release@?$__crt_unique_heap_ptr@GU__crt_internal_free_policy@@@@QAEXXZ 100840f1 f i libucrt:initctype.obj
 0001:00083107       ?release@?$__crt_unique_heap_ptr@JU__crt_internal_free_policy@@@@QAEXXZ 10084107 f i libucrt:initctype.obj
 0001:0008311d       ____lc_codepage_func       1008411d f   libucrt:initctype.obj
 0001:0008314d       ____lc_collate_cp_func     1008414d f   libucrt:initctype.obj
 0001:0008317d       ____lc_locale_name_func    1008417d f   libucrt:initctype.obj
 0001:000831b0       ____mb_cur_max_func        100841b0 f   libucrt:initctype.obj
 0001:000831e0       ____mb_cur_max_l_func      100841e0 f   libucrt:initctype.obj
 0001:000831ff       ___acrt_locale_initialize_ctype 100841ff f   libucrt:initctype.obj
 0001:00083740       ??$assemble_floating_point_ind@M@__crt_strtox@@YAXAAM@Z 10084740 f i libucrt:strtod.obj
 0001:00083754       ??$assemble_floating_point_ind@N@__crt_strtox@@YAXAAN@Z 10084754 f i libucrt:strtod.obj
 0001:0008376d       ??$assemble_floating_point_infinity@M@__crt_strtox@@YAX_NAAM@Z 1008476d f i libucrt:strtod.obj
 0001:0008378c       ??$assemble_floating_point_infinity@N@__crt_strtox@@YAX_NAAN@Z 1008478c f i libucrt:strtod.obj
 0001:000837b0       ??$assemble_floating_point_qnan@M@__crt_strtox@@YAX_NAAM@Z 100847b0 f i libucrt:strtod.obj
 0001:000837cf       ??$assemble_floating_point_qnan@N@__crt_strtox@@YAX_NAAN@Z 100847cf f i libucrt:strtod.obj
 0001:000837f3       ??$assemble_floating_point_snan@M@__crt_strtox@@YAX_NAAM@Z 100847f3 f i libucrt:strtod.obj
 0001:00083812       ??$assemble_floating_point_snan@N@__crt_strtox@@YAX_NAAN@Z 10084812 f i libucrt:strtod.obj
 0001:0008383b       ??$assemble_floating_point_value_t@M@__crt_strtox@@YA?AW4SLD_STATUS@@_NH_KAAM@Z 1008483b f i libucrt:strtod.obj
 0001:00083877       ??$assemble_floating_point_value_t@N@__crt_strtox@@YA?AW4SLD_STATUS@@_NH_KAAN@Z 10084877 f i libucrt:strtod.obj
 0001:000838c9       ??$assemble_floating_point_zero@M@__crt_strtox@@YAX_NAAM@Z 100848c9 f i libucrt:strtod.obj
 0001:000838e0       ??$assemble_floating_point_zero@N@__crt_strtox@@YAX_NAAN@Z 100848e0 f i libucrt:strtod.obj
 0001:00083bc2       ??$convert_decimal_string_to_floating_type@M@__crt_strtox@@YA?AW4SLD_STATUS@@ABUfloating_point_string@0@AAM@Z 10084bc2 f i libucrt:strtod.obj
 0001:00083bed       ??$convert_decimal_string_to_floating_type@N@__crt_strtox@@YA?AW4SLD_STATUS@@ABUfloating_point_string@0@AAN@Z 10084bed f i libucrt:strtod.obj
 0001:00083c18       ??$convert_hexadecimal_string_to_floating_type@M@__crt_strtox@@YA?AW4SLD_STATUS@@ABUfloating_point_string@0@AAM@Z 10084c18 f i libucrt:strtod.obj
 0001:00083c43       ??$convert_hexadecimal_string_to_floating_type@N@__crt_strtox@@YA?AW4SLD_STATUS@@ABUfloating_point_string@0@AAN@Z 10084c43 f i libucrt:strtod.obj
 0001:00083c6e       ??$parse_floating_point@V?$c_string_character_source@D@__crt_strtox@@M@__crt_strtox@@YA?AW4SLD_STATUS@@QAU__crt_locale_pointers@@V?$c_string_character_source@D@0@QAM@Z 10084c6e f i libucrt:strtod.obj
 0001:00083d01       ??$parse_floating_point@V?$c_string_character_source@D@__crt_strtox@@N@__crt_strtox@@YA?AW4SLD_STATUS@@QAU__crt_locale_pointers@@V?$c_string_character_source@D@0@QAN@Z 10084d01 f i libucrt:strtod.obj
 0001:00083d94       ??$parse_floating_point@V?$c_string_character_source@_W@__crt_strtox@@M@__crt_strtox@@YA?AW4SLD_STATUS@@QAU__crt_locale_pointers@@V?$c_string_character_source@_W@0@QAM@Z 10084d94 f i libucrt:strtod.obj
 0001:00083e27       ??$parse_floating_point@V?$c_string_character_source@_W@__crt_strtox@@N@__crt_strtox@@YA?AW4SLD_STATUS@@QAU__crt_locale_pointers@@V?$c_string_character_source@_W@0@QAN@Z 10084e27 f i libucrt:strtod.obj
 0001:00083eba       ??$parse_floating_point_from_source@V?$c_string_character_source@D@__crt_strtox@@@__crt_strtox@@YA?AW4floating_point_parse_result@0@QAU__crt_locale_pointers@@AAV?$c_string_character_source@D@0@AAUfloating_point_string@0@@Z 10084eba f i libucrt:strtod.obj
 0001:000843a8       ??$parse_floating_point_from_source@V?$c_string_character_source@_W@__crt_strtox@@@__crt_strtox@@YA?AW4floating_point_parse_result@0@QAU__crt_locale_pointers@@AAV?$c_string_character_source@_W@0@AAUfloating_point_string@0@@Z 100853a8 f i libucrt:strtod.obj
 0001:000853ea       ??$parse_floating_point_possible_infinity@DV?$c_string_character_source@D@__crt_strtox@@PBD@__crt_strtox@@YA?AW4floating_point_parse_result@0@AADAAV?$c_string_character_source@D@0@PBD@Z 100863ea f i libucrt:strtod.obj
 0001:000854b7       ??$parse_floating_point_possible_infinity@_WV?$c_string_character_source@_W@__crt_strtox@@PB_W@__crt_strtox@@YA?AW4floating_point_parse_result@0@AA_WAAV?$c_string_character_source@_W@0@PB_W@Z 100864b7 f i libucrt:strtod.obj
 0001:000855c6       ??$parse_floating_point_possible_nan@DV?$c_string_character_source@D@__crt_strtox@@PBD@__crt_strtox@@YA?AW4floating_point_parse_result@0@AADAAV?$c_string_character_source@D@0@PBD@Z 100865c6 f i libucrt:strtod.obj
 0001:0008571f       ??$parse_floating_point_possible_nan@_WV?$c_string_character_source@_W@__crt_strtox@@PB_W@__crt_strtox@@YA?AW4floating_point_parse_result@0@AA_WAAV?$c_string_character_source@_W@0@PB_W@Z 1008671f f i libucrt:strtod.obj
 0001:000858c1       ??$parse_floating_point_possible_nan_is_ind@DV?$c_string_character_source@D@__crt_strtox@@@__crt_strtox@@YA_NAADAAV?$c_string_character_source@D@0@@Z 100868c1 f i libucrt:strtod.obj
 0001:0008590c       ??$parse_floating_point_possible_nan_is_ind@_WV?$c_string_character_source@_W@__crt_strtox@@@__crt_strtox@@YA_NAA_WAAV?$c_string_character_source@_W@0@@Z 1008690c f i libucrt:strtod.obj
 0001:00085964       ??$parse_floating_point_possible_nan_is_snan@DV?$c_string_character_source@D@__crt_strtox@@@__crt_strtox@@YA_NAADAAV?$c_string_character_source@D@0@@Z 10086964 f i libucrt:strtod.obj
 0001:000859af       ??$parse_floating_point_possible_nan_is_snan@_WV?$c_string_character_source@_W@__crt_strtox@@@__crt_strtox@@YA_NAA_WAAV?$c_string_character_source@_W@0@@Z 100869af f i libucrt:strtod.obj
 0001:00085a07       ??$parse_floating_point_write_result@M@__crt_strtox@@YA?AW4SLD_STATUS@@W4floating_point_parse_result@0@ABUfloating_point_string@0@QAM@Z 10086a07 f i libucrt:strtod.obj
 0001:00085bce       ??$parse_floating_point_write_result@N@__crt_strtox@@YA?AW4SLD_STATUS@@W4floating_point_parse_result@0@ABUfloating_point_string@0@QAN@Z 10086bce f i libucrt:strtod.obj
 0001:00085d3b       ??$parse_next_characters_from_source@DV?$c_string_character_source@D@__crt_strtox@@@__crt_strtox@@YA_NQBD0IAADAAV?$c_string_character_source@D@0@@Z 10086d3b f i libucrt:strtod.obj
 0001:00085d96       ??$parse_next_characters_from_source@_WV?$c_string_character_source@_W@__crt_strtox@@@__crt_strtox@@YA_NQB_W0IAA_WAAV?$c_string_character_source@_W@0@@Z 10086d96 f i libucrt:strtod.obj
 0001:00085ee0       ??0big_integer@__crt_strtox@@QAE@ABU01@@Z 10086ee0 f i libucrt:strtod.obj
 0001:00085f20       ??0big_integer@__crt_strtox@@QAE@XZ 10086f20 f i libucrt:strtod.obj
 0001:00085f2b       ??0floating_point_value@__crt_strtox@@QAE@QAM@Z 10086f2b f i libucrt:strtod.obj
 0001:00085f44       ??0floating_point_value@__crt_strtox@@QAE@QAN@Z 10086f44 f i libucrt:strtod.obj
 0001:00085f60       ??4big_integer@__crt_strtox@@QAEAAU01@ABU01@@Z 10086f60 f i libucrt:strtod.obj
 0001:00085fa0       ??M__crt_strtox@@YA_NABUbig_integer@0@0@Z 10086fa0 f i libucrt:strtod.obj
 0001:0008613b       ?accumulate_decimal_digits_into_big_integer@__crt_strtox@@YAXQBE0AAUbig_integer@1@@Z 1008713b f i libucrt:strtod.obj
 0001:000868f0       ?add@__crt_strtox@@YA_NAAUbig_integer@1@I@Z 100878f0 f i libucrt:strtod.obj
 0001:00086990       ?add_carry@__crt_strtox@@YAIAAIII@Z 10087990 f i libucrt:strtod.obj
 0001:000869c0       ?add_multiply_carry@__crt_strtox@@YAIAAIIII@Z 100879c0 f i libucrt:strtod.obj
 0001:000869ed       ?as_double@floating_point_value@__crt_strtox@@QBEAANXZ 100879ed f i libucrt:strtod.obj
 0001:00086a1b       ?as_float@floating_point_value@__crt_strtox@@QBEAAMXZ 10087a1b f i libucrt:strtod.obj
 0001:00086a49       ?assemble_floating_point_infinity@__crt_strtox@@YAX_NABVfloating_point_value@1@@Z 10087a49 f i libucrt:strtod.obj
 0001:00086a9c       ?assemble_floating_point_value@__crt_strtox@@YA?AW4SLD_STATUS@@_KH_N1ABVfloating_point_value@1@@Z 10087a9c f i libucrt:strtod.obj
 0001:00086eb3       ?assemble_floating_point_value_from_big_integer@__crt_strtox@@YA?AW4SLD_STATUS@@ABUbig_integer@1@I_N1ABVfloating_point_value@1@@Z 10087eb3 f i libucrt:strtod.obj
 0001:000870ae       ?assemble_floating_point_zero@__crt_strtox@@YAX_NABVfloating_point_value@1@@Z 100880ae f i libucrt:strtod.obj
 0001:00087100       ?bit_scan_reverse@__crt_strtox@@YAIABUbig_integer@1@@Z 10088100 f i libucrt:strtod.obj
 0001:00087150       ?bit_scan_reverse@__crt_strtox@@YAII@Z 10088150 f i libucrt:strtod.obj
 0001:00087180       ?bit_scan_reverse@__crt_strtox@@YAI_K@Z 10088180 f i libucrt:strtod.obj
 0001:000871d8       ?convert_decimal_string_to_floating_type_common@__crt_strtox@@YA?AW4SLD_STATUS@@ABUfloating_point_string@1@ABVfloating_point_value@1@@Z 100881d8 f i libucrt:strtod.obj
 0001:000896aa       ?convert_hexadecimal_string_to_floating_type_common@__crt_strtox@@YA?AW4SLD_STATUS@@ABUfloating_point_string@1@ABVfloating_point_value@1@@Z 1008a6aa f i libucrt:strtod.obj
 0001:00089780       ?count_sequential_high_zeroes@__crt_strtox@@YAII@Z 1008a780 f i libucrt:strtod.obj
 0001:000897a1       ?denormal_mantissa_mask@floating_point_value@__crt_strtox@@QBE_KXZ 1008a7a1 f i libucrt:strtod.obj
 0001:000897c0       ?divide@__crt_strtox@@YA_KAAUbig_integer@1@ABU21@@Z 1008a7c0 f i libucrt:strtod.obj
 0001:00089d70       ?exponent_bias@floating_point_value@__crt_strtox@@QBEHXZ 1008ad70 f i libucrt:strtod.obj
 0001:00089d86       ?is_digit_or_nondigit@__crt_strtox@@YA_NH@Z 1008ad86 f i libucrt:strtod.obj
 0001:00089dbd       ?is_double@floating_point_value@__crt_strtox@@QBE_NXZ 1008adbd f i libucrt:strtod.obj
 0001:00089dd0       ?make_big_integer@__crt_strtox@@YA?AUbig_integer@1@_K@Z 1008add0 f i libucrt:strtod.obj
